
h:/IOT2/IOT2/PapaDuck/target/5.9.0/p2/PapaDuck.elf:     file format elf32-littlearm

Sections:
Idx Name          Size      VMA       LMA       File off  Algn
  0 .module_info  00000018  085f9000  085f9000  00009000  2**0
                  CONTENTS, ALLOC, LOAD, READONLY, DATA
  1 .text         0000008c  085f9018  085f9018  00009018  2**2
                  CONTENTS, ALLOC, LOAD, READONLY, CODE
  2 .dynalib      00000008  023fa080  085f90a8  0000a080  2**3
                  CONTENTS, ALLOC, LOAD, READONLY, DATA
  3 .psram_text   00005f6c  023fa088  085f90b0  0000a088  2**3
                  CONTENTS, ALLOC, LOAD, CODE
  4 .data_alt     00000000  023ffff4  023ffff4  00020000  2**0
                  CONTENTS
  5 .bss_alt      00000000  023ffff4  023ffff4  00020000  2**0
                  CONTENTS
  6 .data         0000049c  1007a7e0  085ff01c  0001a7e0  2**2
                  CONTENTS, ALLOC, LOAD, DATA
  7 .bss          00000380  1007ac7c  1007ac7c  0002ac7c  2**2
                  ALLOC
  8 .secure_ram_text 00000000  1007e000  1007e000  00020000  2**0
                  CONTENTS
  9 .backup       00000004  1007b400  085ff4b8  0001b400  2**2
                  CONTENTS, ALLOC, LOAD, DATA
 10 .module_info_suffix_align 00000afc  085ff4bc  085ff4bc  0001f4bc  2**0
                  ALLOC
 11 .module_info_product 00000006  085fffb8  085fffb8  0001f4bc  2**0
                  ALLOC
 12 .module_info_suffix 0000003e  085fffbe  085fffbe  0001ffbe  2**0
                  CONTENTS, ALLOC, LOAD, READONLY, DATA
 13 .module_info_crc 00000004  085ffffc  085ffffc  0001fffc  2**0
                  CONTENTS, ALLOC, LOAD, READONLY, DATA
 14 .debug_info   00180095  00000000  00000000  00020000  2**0
                  CONTENTS, READONLY, DEBUGGING, OCTETS
 15 .debug_abbrev 00019851  00000000  00000000  001a0095  2**0
                  CONTENTS, READONLY, DEBUGGING, OCTETS
 16 .debug_loc    00049158  00000000  00000000  001b98e6  2**0
                  CONTENTS, READONLY, DEBUGGING, OCTETS
 17 .debug_aranges 00003738  00000000  00000000  00202a3e  2**0
                  CONTENTS, READONLY, DEBUGGING, OCTETS
 18 .debug_ranges 0000cbe0  00000000  00000000  00206176  2**0
                  CONTENTS, READONLY, DEBUGGING, OCTETS
 19 .debug_macro  00032053  00000000  00000000  00212d56  2**0
                  CONTENTS, READONLY, DEBUGGING, OCTETS
 20 .debug_line   00058f65  00000000  00000000  00244da9  2**0
                  CONTENTS, READONLY, DEBUGGING, OCTETS
 21 .debug_str    000f1e99  00000000  00000000  0029dd0e  2**0
                  CONTENTS, READONLY, DEBUGGING, OCTETS
 22 .debug_frame  0000a0ec  00000000  00000000  0038fba8  2**2
                  CONTENTS, READONLY, DEBUGGING, OCTETS

Disassembly of section .text:

085f9018 <module_user_pre_init>:
 * Initializes this user module. Returns the start of the heap.
 */
__attribute__((section(".xip.text"))) void* module_user_pre_init() {
    // NOTE: Must invoke APIs in ROM
    // Copy .data
    if ( (&link_global_data_start != &link_global_data_initial_values) && (link_global_data_size != 0))
 85f9018:	4813      	ldr	r0, [pc, #76]	; (85f9068 <module_user_pre_init+0x50>)
 85f901a:	4914      	ldr	r1, [pc, #80]	; (85f906c <module_user_pre_init+0x54>)
__attribute__((section(".xip.text"))) void* module_user_pre_init() {
 85f901c:	b508      	push	{r3, lr}
    if ( (&link_global_data_start != &link_global_data_initial_values) && (link_global_data_size != 0))
 85f901e:	4288      	cmp	r0, r1
 85f9020:	d005      	beq.n	85f902e <module_user_pre_init+0x16>
 85f9022:	4a13      	ldr	r2, [pc, #76]	; (85f9070 <module_user_pre_init+0x58>)
 85f9024:	4282      	cmp	r2, r0
 85f9026:	d002      	beq.n	85f902e <module_user_pre_init+0x16>
    {
        _memcpy(&link_global_data_start, &link_global_data_initial_values, link_global_data_size);
 85f9028:	4b12      	ldr	r3, [pc, #72]	; (85f9074 <module_user_pre_init+0x5c>)
 85f902a:	1a12      	subs	r2, r2, r0
 85f902c:	4798      	blx	r3
    }

    // Initialize .bss
    _memset(&link_bss_location, 0, link_bss_size );
 85f902e:	4812      	ldr	r0, [pc, #72]	; (85f9078 <module_user_pre_init+0x60>)
 85f9030:	4a12      	ldr	r2, [pc, #72]	; (85f907c <module_user_pre_init+0x64>)
 85f9032:	2100      	movs	r1, #0
 85f9034:	4b12      	ldr	r3, [pc, #72]	; (85f9080 <module_user_pre_init+0x68>)
 85f9036:	1a12      	subs	r2, r2, r0
 85f9038:	4798      	blx	r3

    // Copy .dynalib
    if ( (&link_dynalib_start != &link_dynalib_flash_start) && (link_dynalib_size != 0))
 85f903a:	4812      	ldr	r0, [pc, #72]	; (85f9084 <module_user_pre_init+0x6c>)
 85f903c:	4912      	ldr	r1, [pc, #72]	; (85f9088 <module_user_pre_init+0x70>)
 85f903e:	4288      	cmp	r0, r1
 85f9040:	d005      	beq.n	85f904e <module_user_pre_init+0x36>
 85f9042:	4a12      	ldr	r2, [pc, #72]	; (85f908c <module_user_pre_init+0x74>)
 85f9044:	4282      	cmp	r2, r0
 85f9046:	d002      	beq.n	85f904e <module_user_pre_init+0x36>
    {
        _memcpy(&link_dynalib_start, &link_dynalib_flash_start, link_dynalib_size);
 85f9048:	4b0a      	ldr	r3, [pc, #40]	; (85f9074 <module_user_pre_init+0x5c>)
 85f904a:	1a12      	subs	r2, r2, r0
 85f904c:	4798      	blx	r3
    }

    // Copy .psram_text
    if ( (&link_psram_code_start != &link_psram_code_flash_start) && (link_psram_code_size != 0))
 85f904e:	4810      	ldr	r0, [pc, #64]	; (85f9090 <module_user_pre_init+0x78>)
 85f9050:	4910      	ldr	r1, [pc, #64]	; (85f9094 <module_user_pre_init+0x7c>)
 85f9052:	4288      	cmp	r0, r1
 85f9054:	d005      	beq.n	85f9062 <module_user_pre_init+0x4a>
 85f9056:	4a10      	ldr	r2, [pc, #64]	; (85f9098 <module_user_pre_init+0x80>)
 85f9058:	4282      	cmp	r2, r0
 85f905a:	d002      	beq.n	85f9062 <module_user_pre_init+0x4a>
    {
        _memcpy(&link_psram_code_start, &link_psram_code_flash_start, link_psram_code_size);
 85f905c:	4b05      	ldr	r3, [pc, #20]	; (85f9074 <module_user_pre_init+0x5c>)
 85f905e:	1a12      	subs	r2, r2, r0
 85f9060:	4798      	blx	r3
    }

    return &link_global_data_start;
}
 85f9062:	4801      	ldr	r0, [pc, #4]	; (85f9068 <module_user_pre_init+0x50>)
 85f9064:	bd08      	pop	{r3, pc}
 85f9066:	bf00      	nop
 85f9068:	1007a7e0 	.word	0x1007a7e0
 85f906c:	085ff01c 	.word	0x085ff01c
 85f9070:	1007ac7c 	.word	0x1007ac7c
 85f9074:	10110d2d 	.word	0x10110d2d
 85f9078:	1007ac7c 	.word	0x1007ac7c
 85f907c:	1007affc 	.word	0x1007affc
 85f9080:	10110ea1 	.word	0x10110ea1
 85f9084:	023fa080 	.word	0x023fa080
 85f9088:	085f90a8 	.word	0x085f90a8
 85f908c:	023fa088 	.word	0x023fa088
 85f9090:	023fa088 	.word	0x023fa088
 85f9094:	085f90b0 	.word	0x085f90b0
 85f9098:	023ffff4 	.word	0x023ffff4

085f909c <dynalib_preinit>:
 85f909c:	085f9019 00000000                       .._.....

Disassembly of section .psram_text:

023fa088 <__aeabi_drsub>:
 23fa088:	f081 4100 	eor.w	r1, r1, #2147483648	; 0x80000000
 23fa08c:	e002      	b.n	23fa094 <__adddf3>
 23fa08e:	bf00      	nop

023fa090 <__aeabi_dsub>:
 23fa090:	f083 4300 	eor.w	r3, r3, #2147483648	; 0x80000000

023fa094 <__adddf3>:
 23fa094:	b530      	push	{r4, r5, lr}
 23fa096:	ea4f 0441 	mov.w	r4, r1, lsl #1
 23fa09a:	ea4f 0543 	mov.w	r5, r3, lsl #1
 23fa09e:	ea94 0f05 	teq	r4, r5
 23fa0a2:	bf08      	it	eq
 23fa0a4:	ea90 0f02 	teqeq	r0, r2
 23fa0a8:	bf1f      	itttt	ne
 23fa0aa:	ea54 0c00 	orrsne.w	ip, r4, r0
 23fa0ae:	ea55 0c02 	orrsne.w	ip, r5, r2
 23fa0b2:	ea7f 5c64 	mvnsne.w	ip, r4, asr #21
 23fa0b6:	ea7f 5c65 	mvnsne.w	ip, r5, asr #21
 23fa0ba:	f000 80e2 	beq.w	23fa282 <__adddf3+0x1ee>
 23fa0be:	ea4f 5454 	mov.w	r4, r4, lsr #21
 23fa0c2:	ebd4 5555 	rsbs	r5, r4, r5, lsr #21
 23fa0c6:	bfb8      	it	lt
 23fa0c8:	426d      	neglt	r5, r5
 23fa0ca:	dd0c      	ble.n	23fa0e6 <__adddf3+0x52>
 23fa0cc:	442c      	add	r4, r5
 23fa0ce:	ea80 0202 	eor.w	r2, r0, r2
 23fa0d2:	ea81 0303 	eor.w	r3, r1, r3
 23fa0d6:	ea82 0000 	eor.w	r0, r2, r0
 23fa0da:	ea83 0101 	eor.w	r1, r3, r1
 23fa0de:	ea80 0202 	eor.w	r2, r0, r2
 23fa0e2:	ea81 0303 	eor.w	r3, r1, r3
 23fa0e6:	2d36      	cmp	r5, #54	; 0x36
 23fa0e8:	bf88      	it	hi
 23fa0ea:	bd30      	pophi	{r4, r5, pc}
 23fa0ec:	f011 4f00 	tst.w	r1, #2147483648	; 0x80000000
 23fa0f0:	ea4f 3101 	mov.w	r1, r1, lsl #12
 23fa0f4:	f44f 1c80 	mov.w	ip, #1048576	; 0x100000
 23fa0f8:	ea4c 3111 	orr.w	r1, ip, r1, lsr #12
 23fa0fc:	d002      	beq.n	23fa104 <__adddf3+0x70>
 23fa0fe:	4240      	negs	r0, r0
 23fa100:	eb61 0141 	sbc.w	r1, r1, r1, lsl #1
 23fa104:	f013 4f00 	tst.w	r3, #2147483648	; 0x80000000
 23fa108:	ea4f 3303 	mov.w	r3, r3, lsl #12
 23fa10c:	ea4c 3313 	orr.w	r3, ip, r3, lsr #12
 23fa110:	d002      	beq.n	23fa118 <__adddf3+0x84>
 23fa112:	4252      	negs	r2, r2
 23fa114:	eb63 0343 	sbc.w	r3, r3, r3, lsl #1
 23fa118:	ea94 0f05 	teq	r4, r5
 23fa11c:	f000 80a7 	beq.w	23fa26e <__adddf3+0x1da>
 23fa120:	f1a4 0401 	sub.w	r4, r4, #1
 23fa124:	f1d5 0e20 	rsbs	lr, r5, #32
 23fa128:	db0d      	blt.n	23fa146 <__adddf3+0xb2>
 23fa12a:	fa02 fc0e 	lsl.w	ip, r2, lr
 23fa12e:	fa22 f205 	lsr.w	r2, r2, r5
 23fa132:	1880      	adds	r0, r0, r2
 23fa134:	f141 0100 	adc.w	r1, r1, #0
 23fa138:	fa03 f20e 	lsl.w	r2, r3, lr
 23fa13c:	1880      	adds	r0, r0, r2
 23fa13e:	fa43 f305 	asr.w	r3, r3, r5
 23fa142:	4159      	adcs	r1, r3
 23fa144:	e00e      	b.n	23fa164 <__adddf3+0xd0>
 23fa146:	f1a5 0520 	sub.w	r5, r5, #32
 23fa14a:	f10e 0e20 	add.w	lr, lr, #32
 23fa14e:	2a01      	cmp	r2, #1
 23fa150:	fa03 fc0e 	lsl.w	ip, r3, lr
 23fa154:	bf28      	it	cs
 23fa156:	f04c 0c02 	orrcs.w	ip, ip, #2
 23fa15a:	fa43 f305 	asr.w	r3, r3, r5
 23fa15e:	18c0      	adds	r0, r0, r3
 23fa160:	eb51 71e3 	adcs.w	r1, r1, r3, asr #31
 23fa164:	f001 4500 	and.w	r5, r1, #2147483648	; 0x80000000
 23fa168:	d507      	bpl.n	23fa17a <__adddf3+0xe6>
 23fa16a:	f04f 0e00 	mov.w	lr, #0
 23fa16e:	f1dc 0c00 	rsbs	ip, ip, #0
 23fa172:	eb7e 0000 	sbcs.w	r0, lr, r0
 23fa176:	eb6e 0101 	sbc.w	r1, lr, r1
 23fa17a:	f5b1 1f80 	cmp.w	r1, #1048576	; 0x100000
 23fa17e:	d31b      	bcc.n	23fa1b8 <__adddf3+0x124>
 23fa180:	f5b1 1f00 	cmp.w	r1, #2097152	; 0x200000
 23fa184:	d30c      	bcc.n	23fa1a0 <__adddf3+0x10c>
 23fa186:	0849      	lsrs	r1, r1, #1
 23fa188:	ea5f 0030 	movs.w	r0, r0, rrx
 23fa18c:	ea4f 0c3c 	mov.w	ip, ip, rrx
 23fa190:	f104 0401 	add.w	r4, r4, #1
 23fa194:	ea4f 5244 	mov.w	r2, r4, lsl #21
 23fa198:	f512 0f80 	cmn.w	r2, #4194304	; 0x400000
 23fa19c:	f080 809a 	bcs.w	23fa2d4 <__adddf3+0x240>
 23fa1a0:	f1bc 4f00 	cmp.w	ip, #2147483648	; 0x80000000
 23fa1a4:	bf08      	it	eq
 23fa1a6:	ea5f 0c50 	movseq.w	ip, r0, lsr #1
 23fa1aa:	f150 0000 	adcs.w	r0, r0, #0
 23fa1ae:	eb41 5104 	adc.w	r1, r1, r4, lsl #20
 23fa1b2:	ea41 0105 	orr.w	r1, r1, r5
 23fa1b6:	bd30      	pop	{r4, r5, pc}
 23fa1b8:	ea5f 0c4c 	movs.w	ip, ip, lsl #1
 23fa1bc:	4140      	adcs	r0, r0
 23fa1be:	eb41 0101 	adc.w	r1, r1, r1
 23fa1c2:	3c01      	subs	r4, #1
 23fa1c4:	bf28      	it	cs
 23fa1c6:	f5b1 1f80 	cmpcs.w	r1, #1048576	; 0x100000
 23fa1ca:	d2e9      	bcs.n	23fa1a0 <__adddf3+0x10c>
 23fa1cc:	f091 0f00 	teq	r1, #0
 23fa1d0:	bf04      	itt	eq
 23fa1d2:	4601      	moveq	r1, r0
 23fa1d4:	2000      	moveq	r0, #0
 23fa1d6:	fab1 f381 	clz	r3, r1
 23fa1da:	bf08      	it	eq
 23fa1dc:	3320      	addeq	r3, #32
 23fa1de:	f1a3 030b 	sub.w	r3, r3, #11
 23fa1e2:	f1b3 0220 	subs.w	r2, r3, #32
 23fa1e6:	da0c      	bge.n	23fa202 <__adddf3+0x16e>
 23fa1e8:	320c      	adds	r2, #12
 23fa1ea:	dd08      	ble.n	23fa1fe <__adddf3+0x16a>
 23fa1ec:	f102 0c14 	add.w	ip, r2, #20
 23fa1f0:	f1c2 020c 	rsb	r2, r2, #12
 23fa1f4:	fa01 f00c 	lsl.w	r0, r1, ip
 23fa1f8:	fa21 f102 	lsr.w	r1, r1, r2
 23fa1fc:	e00c      	b.n	23fa218 <__adddf3+0x184>
 23fa1fe:	f102 0214 	add.w	r2, r2, #20
 23fa202:	bfd8      	it	le
 23fa204:	f1c2 0c20 	rsble	ip, r2, #32
 23fa208:	fa01 f102 	lsl.w	r1, r1, r2
 23fa20c:	fa20 fc0c 	lsr.w	ip, r0, ip
 23fa210:	bfdc      	itt	le
 23fa212:	ea41 010c 	orrle.w	r1, r1, ip
 23fa216:	4090      	lslle	r0, r2
 23fa218:	1ae4      	subs	r4, r4, r3
 23fa21a:	bfa2      	ittt	ge
 23fa21c:	eb01 5104 	addge.w	r1, r1, r4, lsl #20
 23fa220:	4329      	orrge	r1, r5
 23fa222:	bd30      	popge	{r4, r5, pc}
 23fa224:	ea6f 0404 	mvn.w	r4, r4
 23fa228:	3c1f      	subs	r4, #31
 23fa22a:	da1c      	bge.n	23fa266 <__adddf3+0x1d2>
 23fa22c:	340c      	adds	r4, #12
 23fa22e:	dc0e      	bgt.n	23fa24e <__adddf3+0x1ba>
 23fa230:	f104 0414 	add.w	r4, r4, #20
 23fa234:	f1c4 0220 	rsb	r2, r4, #32
 23fa238:	fa20 f004 	lsr.w	r0, r0, r4
 23fa23c:	fa01 f302 	lsl.w	r3, r1, r2
 23fa240:	ea40 0003 	orr.w	r0, r0, r3
 23fa244:	fa21 f304 	lsr.w	r3, r1, r4
 23fa248:	ea45 0103 	orr.w	r1, r5, r3
 23fa24c:	bd30      	pop	{r4, r5, pc}
 23fa24e:	f1c4 040c 	rsb	r4, r4, #12
 23fa252:	f1c4 0220 	rsb	r2, r4, #32
 23fa256:	fa20 f002 	lsr.w	r0, r0, r2
 23fa25a:	fa01 f304 	lsl.w	r3, r1, r4
 23fa25e:	ea40 0003 	orr.w	r0, r0, r3
 23fa262:	4629      	mov	r1, r5
 23fa264:	bd30      	pop	{r4, r5, pc}
 23fa266:	fa21 f004 	lsr.w	r0, r1, r4
 23fa26a:	4629      	mov	r1, r5
 23fa26c:	bd30      	pop	{r4, r5, pc}
 23fa26e:	f094 0f00 	teq	r4, #0
 23fa272:	f483 1380 	eor.w	r3, r3, #1048576	; 0x100000
 23fa276:	bf06      	itte	eq
 23fa278:	f481 1180 	eoreq.w	r1, r1, #1048576	; 0x100000
 23fa27c:	3401      	addeq	r4, #1
 23fa27e:	3d01      	subne	r5, #1
 23fa280:	e74e      	b.n	23fa120 <__adddf3+0x8c>
 23fa282:	ea7f 5c64 	mvns.w	ip, r4, asr #21
 23fa286:	bf18      	it	ne
 23fa288:	ea7f 5c65 	mvnsne.w	ip, r5, asr #21
 23fa28c:	d029      	beq.n	23fa2e2 <__adddf3+0x24e>
 23fa28e:	ea94 0f05 	teq	r4, r5
 23fa292:	bf08      	it	eq
 23fa294:	ea90 0f02 	teqeq	r0, r2
 23fa298:	d005      	beq.n	23fa2a6 <__adddf3+0x212>
 23fa29a:	ea54 0c00 	orrs.w	ip, r4, r0
 23fa29e:	bf04      	itt	eq
 23fa2a0:	4619      	moveq	r1, r3
 23fa2a2:	4610      	moveq	r0, r2
 23fa2a4:	bd30      	pop	{r4, r5, pc}
 23fa2a6:	ea91 0f03 	teq	r1, r3
 23fa2aa:	bf1e      	ittt	ne
 23fa2ac:	2100      	movne	r1, #0
 23fa2ae:	2000      	movne	r0, #0
 23fa2b0:	bd30      	popne	{r4, r5, pc}
 23fa2b2:	ea5f 5c54 	movs.w	ip, r4, lsr #21
 23fa2b6:	d105      	bne.n	23fa2c4 <__adddf3+0x230>
 23fa2b8:	0040      	lsls	r0, r0, #1
 23fa2ba:	4149      	adcs	r1, r1
 23fa2bc:	bf28      	it	cs
 23fa2be:	f041 4100 	orrcs.w	r1, r1, #2147483648	; 0x80000000
 23fa2c2:	bd30      	pop	{r4, r5, pc}
 23fa2c4:	f514 0480 	adds.w	r4, r4, #4194304	; 0x400000
 23fa2c8:	bf3c      	itt	cc
 23fa2ca:	f501 1180 	addcc.w	r1, r1, #1048576	; 0x100000
 23fa2ce:	bd30      	popcc	{r4, r5, pc}
 23fa2d0:	f001 4500 	and.w	r5, r1, #2147483648	; 0x80000000
 23fa2d4:	f045 41fe 	orr.w	r1, r5, #2130706432	; 0x7f000000
 23fa2d8:	f441 0170 	orr.w	r1, r1, #15728640	; 0xf00000
 23fa2dc:	f04f 0000 	mov.w	r0, #0
 23fa2e0:	bd30      	pop	{r4, r5, pc}
 23fa2e2:	ea7f 5c64 	mvns.w	ip, r4, asr #21
 23fa2e6:	bf1a      	itte	ne
 23fa2e8:	4619      	movne	r1, r3
 23fa2ea:	4610      	movne	r0, r2
 23fa2ec:	ea7f 5c65 	mvnseq.w	ip, r5, asr #21
 23fa2f0:	bf1c      	itt	ne
 23fa2f2:	460b      	movne	r3, r1
 23fa2f4:	4602      	movne	r2, r0
 23fa2f6:	ea50 3401 	orrs.w	r4, r0, r1, lsl #12
 23fa2fa:	bf06      	itte	eq
 23fa2fc:	ea52 3503 	orrseq.w	r5, r2, r3, lsl #12
 23fa300:	ea91 0f03 	teqeq	r1, r3
 23fa304:	f441 2100 	orrne.w	r1, r1, #524288	; 0x80000
 23fa308:	bd30      	pop	{r4, r5, pc}
 23fa30a:	bf00      	nop

023fa30c <__aeabi_ui2d>:
 23fa30c:	f090 0f00 	teq	r0, #0
 23fa310:	bf04      	itt	eq
 23fa312:	2100      	moveq	r1, #0
 23fa314:	4770      	bxeq	lr
 23fa316:	b530      	push	{r4, r5, lr}
 23fa318:	f44f 6480 	mov.w	r4, #1024	; 0x400
 23fa31c:	f104 0432 	add.w	r4, r4, #50	; 0x32
 23fa320:	f04f 0500 	mov.w	r5, #0
 23fa324:	f04f 0100 	mov.w	r1, #0
 23fa328:	e750      	b.n	23fa1cc <__adddf3+0x138>
 23fa32a:	bf00      	nop

023fa32c <__aeabi_i2d>:
 23fa32c:	f090 0f00 	teq	r0, #0
 23fa330:	bf04      	itt	eq
 23fa332:	2100      	moveq	r1, #0
 23fa334:	4770      	bxeq	lr
 23fa336:	b530      	push	{r4, r5, lr}
 23fa338:	f44f 6480 	mov.w	r4, #1024	; 0x400
 23fa33c:	f104 0432 	add.w	r4, r4, #50	; 0x32
 23fa340:	f010 4500 	ands.w	r5, r0, #2147483648	; 0x80000000
 23fa344:	bf48      	it	mi
 23fa346:	4240      	negmi	r0, r0
 23fa348:	f04f 0100 	mov.w	r1, #0
 23fa34c:	e73e      	b.n	23fa1cc <__adddf3+0x138>
 23fa34e:	bf00      	nop

023fa350 <__aeabi_f2d>:
 23fa350:	0042      	lsls	r2, r0, #1
 23fa352:	ea4f 01e2 	mov.w	r1, r2, asr #3
 23fa356:	ea4f 0131 	mov.w	r1, r1, rrx
 23fa35a:	ea4f 7002 	mov.w	r0, r2, lsl #28
 23fa35e:	bf1f      	itttt	ne
 23fa360:	f012 437f 	andsne.w	r3, r2, #4278190080	; 0xff000000
 23fa364:	f093 4f7f 	teqne	r3, #4278190080	; 0xff000000
 23fa368:	f081 5160 	eorne.w	r1, r1, #939524096	; 0x38000000
 23fa36c:	4770      	bxne	lr
 23fa36e:	f032 427f 	bics.w	r2, r2, #4278190080	; 0xff000000
 23fa372:	bf08      	it	eq
 23fa374:	4770      	bxeq	lr
 23fa376:	f093 4f7f 	teq	r3, #4278190080	; 0xff000000
 23fa37a:	bf04      	itt	eq
 23fa37c:	f441 2100 	orreq.w	r1, r1, #524288	; 0x80000
 23fa380:	4770      	bxeq	lr
 23fa382:	b530      	push	{r4, r5, lr}
 23fa384:	f44f 7460 	mov.w	r4, #896	; 0x380
 23fa388:	f001 4500 	and.w	r5, r1, #2147483648	; 0x80000000
 23fa38c:	f021 4100 	bic.w	r1, r1, #2147483648	; 0x80000000
 23fa390:	e71c      	b.n	23fa1cc <__adddf3+0x138>
 23fa392:	bf00      	nop

023fa394 <__aeabi_ul2d>:
 23fa394:	ea50 0201 	orrs.w	r2, r0, r1
 23fa398:	bf08      	it	eq
 23fa39a:	4770      	bxeq	lr
 23fa39c:	b530      	push	{r4, r5, lr}
 23fa39e:	f04f 0500 	mov.w	r5, #0
 23fa3a2:	e00a      	b.n	23fa3ba <__aeabi_l2d+0x16>

023fa3a4 <__aeabi_l2d>:
 23fa3a4:	ea50 0201 	orrs.w	r2, r0, r1
 23fa3a8:	bf08      	it	eq
 23fa3aa:	4770      	bxeq	lr
 23fa3ac:	b530      	push	{r4, r5, lr}
 23fa3ae:	f011 4500 	ands.w	r5, r1, #2147483648	; 0x80000000
 23fa3b2:	d502      	bpl.n	23fa3ba <__aeabi_l2d+0x16>
 23fa3b4:	4240      	negs	r0, r0
 23fa3b6:	eb61 0141 	sbc.w	r1, r1, r1, lsl #1
 23fa3ba:	f44f 6480 	mov.w	r4, #1024	; 0x400
 23fa3be:	f104 0432 	add.w	r4, r4, #50	; 0x32
 23fa3c2:	ea5f 5c91 	movs.w	ip, r1, lsr #22
 23fa3c6:	f43f aed8 	beq.w	23fa17a <__adddf3+0xe6>
 23fa3ca:	f04f 0203 	mov.w	r2, #3
 23fa3ce:	ea5f 0cdc 	movs.w	ip, ip, lsr #3
 23fa3d2:	bf18      	it	ne
 23fa3d4:	3203      	addne	r2, #3
 23fa3d6:	ea5f 0cdc 	movs.w	ip, ip, lsr #3
 23fa3da:	bf18      	it	ne
 23fa3dc:	3203      	addne	r2, #3
 23fa3de:	eb02 02dc 	add.w	r2, r2, ip, lsr #3
 23fa3e2:	f1c2 0320 	rsb	r3, r2, #32
 23fa3e6:	fa00 fc03 	lsl.w	ip, r0, r3
 23fa3ea:	fa20 f002 	lsr.w	r0, r0, r2
 23fa3ee:	fa01 fe03 	lsl.w	lr, r1, r3
 23fa3f2:	ea40 000e 	orr.w	r0, r0, lr
 23fa3f6:	fa21 f102 	lsr.w	r1, r1, r2
 23fa3fa:	4414      	add	r4, r2
 23fa3fc:	e6bd      	b.n	23fa17a <__adddf3+0xe6>
 23fa3fe:	bf00      	nop

023fa400 <__aeabi_dmul>:
 23fa400:	b570      	push	{r4, r5, r6, lr}
 23fa402:	f04f 0cff 	mov.w	ip, #255	; 0xff
 23fa406:	f44c 6ce0 	orr.w	ip, ip, #1792	; 0x700
 23fa40a:	ea1c 5411 	ands.w	r4, ip, r1, lsr #20
 23fa40e:	bf1d      	ittte	ne
 23fa410:	ea1c 5513 	andsne.w	r5, ip, r3, lsr #20
 23fa414:	ea94 0f0c 	teqne	r4, ip
 23fa418:	ea95 0f0c 	teqne	r5, ip
 23fa41c:	f000 f8de 	bleq	23fa5dc <__aeabi_dmul+0x1dc>
 23fa420:	442c      	add	r4, r5
 23fa422:	ea81 0603 	eor.w	r6, r1, r3
 23fa426:	ea21 514c 	bic.w	r1, r1, ip, lsl #21
 23fa42a:	ea23 534c 	bic.w	r3, r3, ip, lsl #21
 23fa42e:	ea50 3501 	orrs.w	r5, r0, r1, lsl #12
 23fa432:	bf18      	it	ne
 23fa434:	ea52 3503 	orrsne.w	r5, r2, r3, lsl #12
 23fa438:	f441 1180 	orr.w	r1, r1, #1048576	; 0x100000
 23fa43c:	f443 1380 	orr.w	r3, r3, #1048576	; 0x100000
 23fa440:	d038      	beq.n	23fa4b4 <__aeabi_dmul+0xb4>
 23fa442:	fba0 ce02 	umull	ip, lr, r0, r2
 23fa446:	f04f 0500 	mov.w	r5, #0
 23fa44a:	fbe1 e502 	umlal	lr, r5, r1, r2
 23fa44e:	f006 4200 	and.w	r2, r6, #2147483648	; 0x80000000
 23fa452:	fbe0 e503 	umlal	lr, r5, r0, r3
 23fa456:	f04f 0600 	mov.w	r6, #0
 23fa45a:	fbe1 5603 	umlal	r5, r6, r1, r3
 23fa45e:	f09c 0f00 	teq	ip, #0
 23fa462:	bf18      	it	ne
 23fa464:	f04e 0e01 	orrne.w	lr, lr, #1
 23fa468:	f1a4 04ff 	sub.w	r4, r4, #255	; 0xff
 23fa46c:	f5b6 7f00 	cmp.w	r6, #512	; 0x200
 23fa470:	f564 7440 	sbc.w	r4, r4, #768	; 0x300
 23fa474:	d204      	bcs.n	23fa480 <__aeabi_dmul+0x80>
 23fa476:	ea5f 0e4e 	movs.w	lr, lr, lsl #1
 23fa47a:	416d      	adcs	r5, r5
 23fa47c:	eb46 0606 	adc.w	r6, r6, r6
 23fa480:	ea42 21c6 	orr.w	r1, r2, r6, lsl #11
 23fa484:	ea41 5155 	orr.w	r1, r1, r5, lsr #21
 23fa488:	ea4f 20c5 	mov.w	r0, r5, lsl #11
 23fa48c:	ea40 505e 	orr.w	r0, r0, lr, lsr #21
 23fa490:	ea4f 2ece 	mov.w	lr, lr, lsl #11
 23fa494:	f1b4 0cfd 	subs.w	ip, r4, #253	; 0xfd
 23fa498:	bf88      	it	hi
 23fa49a:	f5bc 6fe0 	cmphi.w	ip, #1792	; 0x700
 23fa49e:	d81e      	bhi.n	23fa4de <__aeabi_dmul+0xde>
 23fa4a0:	f1be 4f00 	cmp.w	lr, #2147483648	; 0x80000000
 23fa4a4:	bf08      	it	eq
 23fa4a6:	ea5f 0e50 	movseq.w	lr, r0, lsr #1
 23fa4aa:	f150 0000 	adcs.w	r0, r0, #0
 23fa4ae:	eb41 5104 	adc.w	r1, r1, r4, lsl #20
 23fa4b2:	bd70      	pop	{r4, r5, r6, pc}
 23fa4b4:	f006 4600 	and.w	r6, r6, #2147483648	; 0x80000000
 23fa4b8:	ea46 0101 	orr.w	r1, r6, r1
 23fa4bc:	ea40 0002 	orr.w	r0, r0, r2
 23fa4c0:	ea81 0103 	eor.w	r1, r1, r3
 23fa4c4:	ebb4 045c 	subs.w	r4, r4, ip, lsr #1
 23fa4c8:	bfc2      	ittt	gt
 23fa4ca:	ebd4 050c 	rsbsgt	r5, r4, ip
 23fa4ce:	ea41 5104 	orrgt.w	r1, r1, r4, lsl #20
 23fa4d2:	bd70      	popgt	{r4, r5, r6, pc}
 23fa4d4:	f441 1180 	orr.w	r1, r1, #1048576	; 0x100000
 23fa4d8:	f04f 0e00 	mov.w	lr, #0
 23fa4dc:	3c01      	subs	r4, #1
 23fa4de:	f300 80ab 	bgt.w	23fa638 <__aeabi_dmul+0x238>
 23fa4e2:	f114 0f36 	cmn.w	r4, #54	; 0x36
 23fa4e6:	bfde      	ittt	le
 23fa4e8:	2000      	movle	r0, #0
 23fa4ea:	f001 4100 	andle.w	r1, r1, #2147483648	; 0x80000000
 23fa4ee:	bd70      	pople	{r4, r5, r6, pc}
 23fa4f0:	f1c4 0400 	rsb	r4, r4, #0
 23fa4f4:	3c20      	subs	r4, #32
 23fa4f6:	da35      	bge.n	23fa564 <__aeabi_dmul+0x164>
 23fa4f8:	340c      	adds	r4, #12
 23fa4fa:	dc1b      	bgt.n	23fa534 <__aeabi_dmul+0x134>
 23fa4fc:	f104 0414 	add.w	r4, r4, #20
 23fa500:	f1c4 0520 	rsb	r5, r4, #32
 23fa504:	fa00 f305 	lsl.w	r3, r0, r5
 23fa508:	fa20 f004 	lsr.w	r0, r0, r4
 23fa50c:	fa01 f205 	lsl.w	r2, r1, r5
 23fa510:	ea40 0002 	orr.w	r0, r0, r2
 23fa514:	f001 4200 	and.w	r2, r1, #2147483648	; 0x80000000
 23fa518:	f021 4100 	bic.w	r1, r1, #2147483648	; 0x80000000
 23fa51c:	eb10 70d3 	adds.w	r0, r0, r3, lsr #31
 23fa520:	fa21 f604 	lsr.w	r6, r1, r4
 23fa524:	eb42 0106 	adc.w	r1, r2, r6
 23fa528:	ea5e 0e43 	orrs.w	lr, lr, r3, lsl #1
 23fa52c:	bf08      	it	eq
 23fa52e:	ea20 70d3 	biceq.w	r0, r0, r3, lsr #31
 23fa532:	bd70      	pop	{r4, r5, r6, pc}
 23fa534:	f1c4 040c 	rsb	r4, r4, #12
 23fa538:	f1c4 0520 	rsb	r5, r4, #32
 23fa53c:	fa00 f304 	lsl.w	r3, r0, r4
 23fa540:	fa20 f005 	lsr.w	r0, r0, r5
 23fa544:	fa01 f204 	lsl.w	r2, r1, r4
 23fa548:	ea40 0002 	orr.w	r0, r0, r2
 23fa54c:	f001 4100 	and.w	r1, r1, #2147483648	; 0x80000000
 23fa550:	eb10 70d3 	adds.w	r0, r0, r3, lsr #31
 23fa554:	f141 0100 	adc.w	r1, r1, #0
 23fa558:	ea5e 0e43 	orrs.w	lr, lr, r3, lsl #1
 23fa55c:	bf08      	it	eq
 23fa55e:	ea20 70d3 	biceq.w	r0, r0, r3, lsr #31
 23fa562:	bd70      	pop	{r4, r5, r6, pc}
 23fa564:	f1c4 0520 	rsb	r5, r4, #32
 23fa568:	fa00 f205 	lsl.w	r2, r0, r5
 23fa56c:	ea4e 0e02 	orr.w	lr, lr, r2
 23fa570:	fa20 f304 	lsr.w	r3, r0, r4
 23fa574:	fa01 f205 	lsl.w	r2, r1, r5
 23fa578:	ea43 0302 	orr.w	r3, r3, r2
 23fa57c:	fa21 f004 	lsr.w	r0, r1, r4
 23fa580:	f001 4100 	and.w	r1, r1, #2147483648	; 0x80000000
 23fa584:	fa21 f204 	lsr.w	r2, r1, r4
 23fa588:	ea20 0002 	bic.w	r0, r0, r2
 23fa58c:	eb00 70d3 	add.w	r0, r0, r3, lsr #31
 23fa590:	ea5e 0e43 	orrs.w	lr, lr, r3, lsl #1
 23fa594:	bf08      	it	eq
 23fa596:	ea20 70d3 	biceq.w	r0, r0, r3, lsr #31
 23fa59a:	bd70      	pop	{r4, r5, r6, pc}
 23fa59c:	f094 0f00 	teq	r4, #0
 23fa5a0:	d10f      	bne.n	23fa5c2 <__aeabi_dmul+0x1c2>
 23fa5a2:	f001 4600 	and.w	r6, r1, #2147483648	; 0x80000000
 23fa5a6:	0040      	lsls	r0, r0, #1
 23fa5a8:	eb41 0101 	adc.w	r1, r1, r1
 23fa5ac:	f411 1f80 	tst.w	r1, #1048576	; 0x100000
 23fa5b0:	bf08      	it	eq
 23fa5b2:	3c01      	subeq	r4, #1
 23fa5b4:	d0f7      	beq.n	23fa5a6 <__aeabi_dmul+0x1a6>
 23fa5b6:	ea41 0106 	orr.w	r1, r1, r6
 23fa5ba:	f095 0f00 	teq	r5, #0
 23fa5be:	bf18      	it	ne
 23fa5c0:	4770      	bxne	lr
 23fa5c2:	f003 4600 	and.w	r6, r3, #2147483648	; 0x80000000
 23fa5c6:	0052      	lsls	r2, r2, #1
 23fa5c8:	eb43 0303 	adc.w	r3, r3, r3
 23fa5cc:	f413 1f80 	tst.w	r3, #1048576	; 0x100000
 23fa5d0:	bf08      	it	eq
 23fa5d2:	3d01      	subeq	r5, #1
 23fa5d4:	d0f7      	beq.n	23fa5c6 <__aeabi_dmul+0x1c6>
 23fa5d6:	ea43 0306 	orr.w	r3, r3, r6
 23fa5da:	4770      	bx	lr
 23fa5dc:	ea94 0f0c 	teq	r4, ip
 23fa5e0:	ea0c 5513 	and.w	r5, ip, r3, lsr #20
 23fa5e4:	bf18      	it	ne
 23fa5e6:	ea95 0f0c 	teqne	r5, ip
 23fa5ea:	d00c      	beq.n	23fa606 <__aeabi_dmul+0x206>
 23fa5ec:	ea50 0641 	orrs.w	r6, r0, r1, lsl #1
 23fa5f0:	bf18      	it	ne
 23fa5f2:	ea52 0643 	orrsne.w	r6, r2, r3, lsl #1
 23fa5f6:	d1d1      	bne.n	23fa59c <__aeabi_dmul+0x19c>
 23fa5f8:	ea81 0103 	eor.w	r1, r1, r3
 23fa5fc:	f001 4100 	and.w	r1, r1, #2147483648	; 0x80000000
 23fa600:	f04f 0000 	mov.w	r0, #0
 23fa604:	bd70      	pop	{r4, r5, r6, pc}
 23fa606:	ea50 0641 	orrs.w	r6, r0, r1, lsl #1
 23fa60a:	bf06      	itte	eq
 23fa60c:	4610      	moveq	r0, r2
 23fa60e:	4619      	moveq	r1, r3
 23fa610:	ea52 0643 	orrsne.w	r6, r2, r3, lsl #1
 23fa614:	d019      	beq.n	23fa64a <__aeabi_dmul+0x24a>
 23fa616:	ea94 0f0c 	teq	r4, ip
 23fa61a:	d102      	bne.n	23fa622 <__aeabi_dmul+0x222>
 23fa61c:	ea50 3601 	orrs.w	r6, r0, r1, lsl #12
 23fa620:	d113      	bne.n	23fa64a <__aeabi_dmul+0x24a>
 23fa622:	ea95 0f0c 	teq	r5, ip
 23fa626:	d105      	bne.n	23fa634 <__aeabi_dmul+0x234>
 23fa628:	ea52 3603 	orrs.w	r6, r2, r3, lsl #12
 23fa62c:	bf1c      	itt	ne
 23fa62e:	4610      	movne	r0, r2
 23fa630:	4619      	movne	r1, r3
 23fa632:	d10a      	bne.n	23fa64a <__aeabi_dmul+0x24a>
 23fa634:	ea81 0103 	eor.w	r1, r1, r3
 23fa638:	f001 4100 	and.w	r1, r1, #2147483648	; 0x80000000
 23fa63c:	f041 41fe 	orr.w	r1, r1, #2130706432	; 0x7f000000
 23fa640:	f441 0170 	orr.w	r1, r1, #15728640	; 0xf00000
 23fa644:	f04f 0000 	mov.w	r0, #0
 23fa648:	bd70      	pop	{r4, r5, r6, pc}
 23fa64a:	f041 41fe 	orr.w	r1, r1, #2130706432	; 0x7f000000
 23fa64e:	f441 0178 	orr.w	r1, r1, #16252928	; 0xf80000
 23fa652:	bd70      	pop	{r4, r5, r6, pc}

023fa654 <__aeabi_ddiv>:
 23fa654:	b570      	push	{r4, r5, r6, lr}
 23fa656:	f04f 0cff 	mov.w	ip, #255	; 0xff
 23fa65a:	f44c 6ce0 	orr.w	ip, ip, #1792	; 0x700
 23fa65e:	ea1c 5411 	ands.w	r4, ip, r1, lsr #20
 23fa662:	bf1d      	ittte	ne
 23fa664:	ea1c 5513 	andsne.w	r5, ip, r3, lsr #20
 23fa668:	ea94 0f0c 	teqne	r4, ip
 23fa66c:	ea95 0f0c 	teqne	r5, ip
 23fa670:	f000 f8a7 	bleq	23fa7c2 <__aeabi_ddiv+0x16e>
 23fa674:	eba4 0405 	sub.w	r4, r4, r5
 23fa678:	ea81 0e03 	eor.w	lr, r1, r3
 23fa67c:	ea52 3503 	orrs.w	r5, r2, r3, lsl #12
 23fa680:	ea4f 3101 	mov.w	r1, r1, lsl #12
 23fa684:	f000 8088 	beq.w	23fa798 <__aeabi_ddiv+0x144>
 23fa688:	ea4f 3303 	mov.w	r3, r3, lsl #12
 23fa68c:	f04f 5580 	mov.w	r5, #268435456	; 0x10000000
 23fa690:	ea45 1313 	orr.w	r3, r5, r3, lsr #4
 23fa694:	ea43 6312 	orr.w	r3, r3, r2, lsr #24
 23fa698:	ea4f 2202 	mov.w	r2, r2, lsl #8
 23fa69c:	ea45 1511 	orr.w	r5, r5, r1, lsr #4
 23fa6a0:	ea45 6510 	orr.w	r5, r5, r0, lsr #24
 23fa6a4:	ea4f 2600 	mov.w	r6, r0, lsl #8
 23fa6a8:	f00e 4100 	and.w	r1, lr, #2147483648	; 0x80000000
 23fa6ac:	429d      	cmp	r5, r3
 23fa6ae:	bf08      	it	eq
 23fa6b0:	4296      	cmpeq	r6, r2
 23fa6b2:	f144 04fd 	adc.w	r4, r4, #253	; 0xfd
 23fa6b6:	f504 7440 	add.w	r4, r4, #768	; 0x300
 23fa6ba:	d202      	bcs.n	23fa6c2 <__aeabi_ddiv+0x6e>
 23fa6bc:	085b      	lsrs	r3, r3, #1
 23fa6be:	ea4f 0232 	mov.w	r2, r2, rrx
 23fa6c2:	1ab6      	subs	r6, r6, r2
 23fa6c4:	eb65 0503 	sbc.w	r5, r5, r3
 23fa6c8:	085b      	lsrs	r3, r3, #1
 23fa6ca:	ea4f 0232 	mov.w	r2, r2, rrx
 23fa6ce:	f44f 1080 	mov.w	r0, #1048576	; 0x100000
 23fa6d2:	f44f 2c00 	mov.w	ip, #524288	; 0x80000
 23fa6d6:	ebb6 0e02 	subs.w	lr, r6, r2
 23fa6da:	eb75 0e03 	sbcs.w	lr, r5, r3
 23fa6de:	bf22      	ittt	cs
 23fa6e0:	1ab6      	subcs	r6, r6, r2
 23fa6e2:	4675      	movcs	r5, lr
 23fa6e4:	ea40 000c 	orrcs.w	r0, r0, ip
 23fa6e8:	085b      	lsrs	r3, r3, #1
 23fa6ea:	ea4f 0232 	mov.w	r2, r2, rrx
 23fa6ee:	ebb6 0e02 	subs.w	lr, r6, r2
 23fa6f2:	eb75 0e03 	sbcs.w	lr, r5, r3
 23fa6f6:	bf22      	ittt	cs
 23fa6f8:	1ab6      	subcs	r6, r6, r2
 23fa6fa:	4675      	movcs	r5, lr
 23fa6fc:	ea40 005c 	orrcs.w	r0, r0, ip, lsr #1
 23fa700:	085b      	lsrs	r3, r3, #1
 23fa702:	ea4f 0232 	mov.w	r2, r2, rrx
 23fa706:	ebb6 0e02 	subs.w	lr, r6, r2
 23fa70a:	eb75 0e03 	sbcs.w	lr, r5, r3
 23fa70e:	bf22      	ittt	cs
 23fa710:	1ab6      	subcs	r6, r6, r2
 23fa712:	4675      	movcs	r5, lr
 23fa714:	ea40 009c 	orrcs.w	r0, r0, ip, lsr #2
 23fa718:	085b      	lsrs	r3, r3, #1
 23fa71a:	ea4f 0232 	mov.w	r2, r2, rrx
 23fa71e:	ebb6 0e02 	subs.w	lr, r6, r2
 23fa722:	eb75 0e03 	sbcs.w	lr, r5, r3
 23fa726:	bf22      	ittt	cs
 23fa728:	1ab6      	subcs	r6, r6, r2
 23fa72a:	4675      	movcs	r5, lr
 23fa72c:	ea40 00dc 	orrcs.w	r0, r0, ip, lsr #3
 23fa730:	ea55 0e06 	orrs.w	lr, r5, r6
 23fa734:	d018      	beq.n	23fa768 <__aeabi_ddiv+0x114>
 23fa736:	ea4f 1505 	mov.w	r5, r5, lsl #4
 23fa73a:	ea45 7516 	orr.w	r5, r5, r6, lsr #28
 23fa73e:	ea4f 1606 	mov.w	r6, r6, lsl #4
 23fa742:	ea4f 03c3 	mov.w	r3, r3, lsl #3
 23fa746:	ea43 7352 	orr.w	r3, r3, r2, lsr #29
 23fa74a:	ea4f 02c2 	mov.w	r2, r2, lsl #3
 23fa74e:	ea5f 1c1c 	movs.w	ip, ip, lsr #4
 23fa752:	d1c0      	bne.n	23fa6d6 <__aeabi_ddiv+0x82>
 23fa754:	f411 1f80 	tst.w	r1, #1048576	; 0x100000
 23fa758:	d10b      	bne.n	23fa772 <__aeabi_ddiv+0x11e>
 23fa75a:	ea41 0100 	orr.w	r1, r1, r0
 23fa75e:	f04f 0000 	mov.w	r0, #0
 23fa762:	f04f 4c00 	mov.w	ip, #2147483648	; 0x80000000
 23fa766:	e7b6      	b.n	23fa6d6 <__aeabi_ddiv+0x82>
 23fa768:	f411 1f80 	tst.w	r1, #1048576	; 0x100000
 23fa76c:	bf04      	itt	eq
 23fa76e:	4301      	orreq	r1, r0
 23fa770:	2000      	moveq	r0, #0
 23fa772:	f1b4 0cfd 	subs.w	ip, r4, #253	; 0xfd
 23fa776:	bf88      	it	hi
 23fa778:	f5bc 6fe0 	cmphi.w	ip, #1792	; 0x700
 23fa77c:	f63f aeaf 	bhi.w	23fa4de <__aeabi_dmul+0xde>
 23fa780:	ebb5 0c03 	subs.w	ip, r5, r3
 23fa784:	bf04      	itt	eq
 23fa786:	ebb6 0c02 	subseq.w	ip, r6, r2
 23fa78a:	ea5f 0c50 	movseq.w	ip, r0, lsr #1
 23fa78e:	f150 0000 	adcs.w	r0, r0, #0
 23fa792:	eb41 5104 	adc.w	r1, r1, r4, lsl #20
 23fa796:	bd70      	pop	{r4, r5, r6, pc}
 23fa798:	f00e 4e00 	and.w	lr, lr, #2147483648	; 0x80000000
 23fa79c:	ea4e 3111 	orr.w	r1, lr, r1, lsr #12
 23fa7a0:	eb14 045c 	adds.w	r4, r4, ip, lsr #1
 23fa7a4:	bfc2      	ittt	gt
 23fa7a6:	ebd4 050c 	rsbsgt	r5, r4, ip
 23fa7aa:	ea41 5104 	orrgt.w	r1, r1, r4, lsl #20
 23fa7ae:	bd70      	popgt	{r4, r5, r6, pc}
 23fa7b0:	f441 1180 	orr.w	r1, r1, #1048576	; 0x100000
 23fa7b4:	f04f 0e00 	mov.w	lr, #0
 23fa7b8:	3c01      	subs	r4, #1
 23fa7ba:	e690      	b.n	23fa4de <__aeabi_dmul+0xde>
 23fa7bc:	ea45 0e06 	orr.w	lr, r5, r6
 23fa7c0:	e68d      	b.n	23fa4de <__aeabi_dmul+0xde>
 23fa7c2:	ea0c 5513 	and.w	r5, ip, r3, lsr #20
 23fa7c6:	ea94 0f0c 	teq	r4, ip
 23fa7ca:	bf08      	it	eq
 23fa7cc:	ea95 0f0c 	teqeq	r5, ip
 23fa7d0:	f43f af3b 	beq.w	23fa64a <__aeabi_dmul+0x24a>
 23fa7d4:	ea94 0f0c 	teq	r4, ip
 23fa7d8:	d10a      	bne.n	23fa7f0 <__aeabi_ddiv+0x19c>
 23fa7da:	ea50 3401 	orrs.w	r4, r0, r1, lsl #12
 23fa7de:	f47f af34 	bne.w	23fa64a <__aeabi_dmul+0x24a>
 23fa7e2:	ea95 0f0c 	teq	r5, ip
 23fa7e6:	f47f af25 	bne.w	23fa634 <__aeabi_dmul+0x234>
 23fa7ea:	4610      	mov	r0, r2
 23fa7ec:	4619      	mov	r1, r3
 23fa7ee:	e72c      	b.n	23fa64a <__aeabi_dmul+0x24a>
 23fa7f0:	ea95 0f0c 	teq	r5, ip
 23fa7f4:	d106      	bne.n	23fa804 <__aeabi_ddiv+0x1b0>
 23fa7f6:	ea52 3503 	orrs.w	r5, r2, r3, lsl #12
 23fa7fa:	f43f aefd 	beq.w	23fa5f8 <__aeabi_dmul+0x1f8>
 23fa7fe:	4610      	mov	r0, r2
 23fa800:	4619      	mov	r1, r3
 23fa802:	e722      	b.n	23fa64a <__aeabi_dmul+0x24a>
 23fa804:	ea50 0641 	orrs.w	r6, r0, r1, lsl #1
 23fa808:	bf18      	it	ne
 23fa80a:	ea52 0643 	orrsne.w	r6, r2, r3, lsl #1
 23fa80e:	f47f aec5 	bne.w	23fa59c <__aeabi_dmul+0x19c>
 23fa812:	ea50 0441 	orrs.w	r4, r0, r1, lsl #1
 23fa816:	f47f af0d 	bne.w	23fa634 <__aeabi_dmul+0x234>
 23fa81a:	ea52 0543 	orrs.w	r5, r2, r3, lsl #1
 23fa81e:	f47f aeeb 	bne.w	23fa5f8 <__aeabi_dmul+0x1f8>
 23fa822:	e712      	b.n	23fa64a <__aeabi_dmul+0x24a>

023fa824 <__gedf2>:
 23fa824:	f04f 3cff 	mov.w	ip, #4294967295
 23fa828:	e006      	b.n	23fa838 <__cmpdf2+0x4>
 23fa82a:	bf00      	nop

023fa82c <__ledf2>:
 23fa82c:	f04f 0c01 	mov.w	ip, #1
 23fa830:	e002      	b.n	23fa838 <__cmpdf2+0x4>
 23fa832:	bf00      	nop

023fa834 <__cmpdf2>:
 23fa834:	f04f 0c01 	mov.w	ip, #1
 23fa838:	f84d cd04 	str.w	ip, [sp, #-4]!
 23fa83c:	ea4f 0c41 	mov.w	ip, r1, lsl #1
 23fa840:	ea7f 5c6c 	mvns.w	ip, ip, asr #21
 23fa844:	ea4f 0c43 	mov.w	ip, r3, lsl #1
 23fa848:	bf18      	it	ne
 23fa84a:	ea7f 5c6c 	mvnsne.w	ip, ip, asr #21
 23fa84e:	d01b      	beq.n	23fa888 <__cmpdf2+0x54>
 23fa850:	b001      	add	sp, #4
 23fa852:	ea50 0c41 	orrs.w	ip, r0, r1, lsl #1
 23fa856:	bf0c      	ite	eq
 23fa858:	ea52 0c43 	orrseq.w	ip, r2, r3, lsl #1
 23fa85c:	ea91 0f03 	teqne	r1, r3
 23fa860:	bf02      	ittt	eq
 23fa862:	ea90 0f02 	teqeq	r0, r2
 23fa866:	2000      	moveq	r0, #0
 23fa868:	4770      	bxeq	lr
 23fa86a:	f110 0f00 	cmn.w	r0, #0
 23fa86e:	ea91 0f03 	teq	r1, r3
 23fa872:	bf58      	it	pl
 23fa874:	4299      	cmppl	r1, r3
 23fa876:	bf08      	it	eq
 23fa878:	4290      	cmpeq	r0, r2
 23fa87a:	bf2c      	ite	cs
 23fa87c:	17d8      	asrcs	r0, r3, #31
 23fa87e:	ea6f 70e3 	mvncc.w	r0, r3, asr #31
 23fa882:	f040 0001 	orr.w	r0, r0, #1
 23fa886:	4770      	bx	lr
 23fa888:	ea4f 0c41 	mov.w	ip, r1, lsl #1
 23fa88c:	ea7f 5c6c 	mvns.w	ip, ip, asr #21
 23fa890:	d102      	bne.n	23fa898 <__cmpdf2+0x64>
 23fa892:	ea50 3c01 	orrs.w	ip, r0, r1, lsl #12
 23fa896:	d107      	bne.n	23fa8a8 <__cmpdf2+0x74>
 23fa898:	ea4f 0c43 	mov.w	ip, r3, lsl #1
 23fa89c:	ea7f 5c6c 	mvns.w	ip, ip, asr #21
 23fa8a0:	d1d6      	bne.n	23fa850 <__cmpdf2+0x1c>
 23fa8a2:	ea52 3c03 	orrs.w	ip, r2, r3, lsl #12
 23fa8a6:	d0d3      	beq.n	23fa850 <__cmpdf2+0x1c>
 23fa8a8:	f85d 0b04 	ldr.w	r0, [sp], #4
 23fa8ac:	4770      	bx	lr
 23fa8ae:	bf00      	nop

023fa8b0 <__aeabi_cdrcmple>:
 23fa8b0:	4684      	mov	ip, r0
 23fa8b2:	4610      	mov	r0, r2
 23fa8b4:	4662      	mov	r2, ip
 23fa8b6:	468c      	mov	ip, r1
 23fa8b8:	4619      	mov	r1, r3
 23fa8ba:	4663      	mov	r3, ip
 23fa8bc:	e000      	b.n	23fa8c0 <__aeabi_cdcmpeq>
 23fa8be:	bf00      	nop

023fa8c0 <__aeabi_cdcmpeq>:
 23fa8c0:	b501      	push	{r0, lr}
 23fa8c2:	f7ff ffb7 	bl	23fa834 <__cmpdf2>
 23fa8c6:	2800      	cmp	r0, #0
 23fa8c8:	bf48      	it	mi
 23fa8ca:	f110 0f00 	cmnmi.w	r0, #0
 23fa8ce:	bd01      	pop	{r0, pc}

023fa8d0 <__aeabi_dcmpeq>:
 23fa8d0:	f84d ed08 	str.w	lr, [sp, #-8]!
 23fa8d4:	f7ff fff4 	bl	23fa8c0 <__aeabi_cdcmpeq>
 23fa8d8:	bf0c      	ite	eq
 23fa8da:	2001      	moveq	r0, #1
 23fa8dc:	2000      	movne	r0, #0
 23fa8de:	f85d fb08 	ldr.w	pc, [sp], #8
 23fa8e2:	bf00      	nop

023fa8e4 <__aeabi_dcmplt>:
 23fa8e4:	f84d ed08 	str.w	lr, [sp, #-8]!
 23fa8e8:	f7ff ffea 	bl	23fa8c0 <__aeabi_cdcmpeq>
 23fa8ec:	bf34      	ite	cc
 23fa8ee:	2001      	movcc	r0, #1
 23fa8f0:	2000      	movcs	r0, #0
 23fa8f2:	f85d fb08 	ldr.w	pc, [sp], #8
 23fa8f6:	bf00      	nop

023fa8f8 <__aeabi_dcmple>:
 23fa8f8:	f84d ed08 	str.w	lr, [sp, #-8]!
 23fa8fc:	f7ff ffe0 	bl	23fa8c0 <__aeabi_cdcmpeq>
 23fa900:	bf94      	ite	ls
 23fa902:	2001      	movls	r0, #1
 23fa904:	2000      	movhi	r0, #0
 23fa906:	f85d fb08 	ldr.w	pc, [sp], #8
 23fa90a:	bf00      	nop

023fa90c <__aeabi_dcmpge>:
 23fa90c:	f84d ed08 	str.w	lr, [sp, #-8]!
 23fa910:	f7ff ffce 	bl	23fa8b0 <__aeabi_cdrcmple>
 23fa914:	bf94      	ite	ls
 23fa916:	2001      	movls	r0, #1
 23fa918:	2000      	movhi	r0, #0
 23fa91a:	f85d fb08 	ldr.w	pc, [sp], #8
 23fa91e:	bf00      	nop

023fa920 <__aeabi_dcmpgt>:
 23fa920:	f84d ed08 	str.w	lr, [sp, #-8]!
 23fa924:	f7ff ffc4 	bl	23fa8b0 <__aeabi_cdrcmple>
 23fa928:	bf34      	ite	cc
 23fa92a:	2001      	movcc	r0, #1
 23fa92c:	2000      	movcs	r0, #0
 23fa92e:	f85d fb08 	ldr.w	pc, [sp], #8
 23fa932:	bf00      	nop

023fa934 <__aeabi_dcmpun>:
 23fa934:	ea4f 0c41 	mov.w	ip, r1, lsl #1
 23fa938:	ea7f 5c6c 	mvns.w	ip, ip, asr #21
 23fa93c:	d102      	bne.n	23fa944 <__aeabi_dcmpun+0x10>
 23fa93e:	ea50 3c01 	orrs.w	ip, r0, r1, lsl #12
 23fa942:	d10a      	bne.n	23fa95a <__aeabi_dcmpun+0x26>
 23fa944:	ea4f 0c43 	mov.w	ip, r3, lsl #1
 23fa948:	ea7f 5c6c 	mvns.w	ip, ip, asr #21
 23fa94c:	d102      	bne.n	23fa954 <__aeabi_dcmpun+0x20>
 23fa94e:	ea52 3c03 	orrs.w	ip, r2, r3, lsl #12
 23fa952:	d102      	bne.n	23fa95a <__aeabi_dcmpun+0x26>
 23fa954:	f04f 0000 	mov.w	r0, #0
 23fa958:	4770      	bx	lr
 23fa95a:	f04f 0001 	mov.w	r0, #1
 23fa95e:	4770      	bx	lr

023fa960 <__aeabi_d2iz>:
 23fa960:	ea4f 0241 	mov.w	r2, r1, lsl #1
 23fa964:	f512 1200 	adds.w	r2, r2, #2097152	; 0x200000
 23fa968:	d215      	bcs.n	23fa996 <__aeabi_d2iz+0x36>
 23fa96a:	d511      	bpl.n	23fa990 <__aeabi_d2iz+0x30>
 23fa96c:	f46f 7378 	mvn.w	r3, #992	; 0x3e0
 23fa970:	ebb3 5262 	subs.w	r2, r3, r2, asr #21
 23fa974:	d912      	bls.n	23fa99c <__aeabi_d2iz+0x3c>
 23fa976:	ea4f 23c1 	mov.w	r3, r1, lsl #11
 23fa97a:	f043 4300 	orr.w	r3, r3, #2147483648	; 0x80000000
 23fa97e:	ea43 5350 	orr.w	r3, r3, r0, lsr #21
 23fa982:	f011 4f00 	tst.w	r1, #2147483648	; 0x80000000
 23fa986:	fa23 f002 	lsr.w	r0, r3, r2
 23fa98a:	bf18      	it	ne
 23fa98c:	4240      	negne	r0, r0
 23fa98e:	4770      	bx	lr
 23fa990:	f04f 0000 	mov.w	r0, #0
 23fa994:	4770      	bx	lr
 23fa996:	ea50 3001 	orrs.w	r0, r0, r1, lsl #12
 23fa99a:	d105      	bne.n	23fa9a8 <__aeabi_d2iz+0x48>
 23fa99c:	f011 4000 	ands.w	r0, r1, #2147483648	; 0x80000000
 23fa9a0:	bf08      	it	eq
 23fa9a2:	f06f 4000 	mvneq.w	r0, #2147483648	; 0x80000000
 23fa9a6:	4770      	bx	lr
 23fa9a8:	f04f 0000 	mov.w	r0, #0
 23fa9ac:	4770      	bx	lr
 23fa9ae:	bf00      	nop

023fa9b0 <__aeabi_d2uiz>:
 23fa9b0:	004a      	lsls	r2, r1, #1
 23fa9b2:	d211      	bcs.n	23fa9d8 <__aeabi_d2uiz+0x28>
 23fa9b4:	f512 1200 	adds.w	r2, r2, #2097152	; 0x200000
 23fa9b8:	d211      	bcs.n	23fa9de <__aeabi_d2uiz+0x2e>
 23fa9ba:	d50d      	bpl.n	23fa9d8 <__aeabi_d2uiz+0x28>
 23fa9bc:	f46f 7378 	mvn.w	r3, #992	; 0x3e0
 23fa9c0:	ebb3 5262 	subs.w	r2, r3, r2, asr #21
 23fa9c4:	d40e      	bmi.n	23fa9e4 <__aeabi_d2uiz+0x34>
 23fa9c6:	ea4f 23c1 	mov.w	r3, r1, lsl #11
 23fa9ca:	f043 4300 	orr.w	r3, r3, #2147483648	; 0x80000000
 23fa9ce:	ea43 5350 	orr.w	r3, r3, r0, lsr #21
 23fa9d2:	fa23 f002 	lsr.w	r0, r3, r2
 23fa9d6:	4770      	bx	lr
 23fa9d8:	f04f 0000 	mov.w	r0, #0
 23fa9dc:	4770      	bx	lr
 23fa9de:	ea50 3001 	orrs.w	r0, r0, r1, lsl #12
 23fa9e2:	d102      	bne.n	23fa9ea <__aeabi_d2uiz+0x3a>
 23fa9e4:	f04f 30ff 	mov.w	r0, #4294967295
 23fa9e8:	4770      	bx	lr
 23fa9ea:	f04f 0000 	mov.w	r0, #0
 23fa9ee:	4770      	bx	lr

023fa9f0 <strcmp>:
 23fa9f0:	f810 2b01 	ldrb.w	r2, [r0], #1
 23fa9f4:	f811 3b01 	ldrb.w	r3, [r1], #1
 23fa9f8:	2a01      	cmp	r2, #1
 23fa9fa:	bf28      	it	cs
 23fa9fc:	429a      	cmpcs	r2, r3
 23fa9fe:	d0f7      	beq.n	23fa9f0 <strcmp>
 23faa00:	1ad0      	subs	r0, r2, r3
 23faa02:	4770      	bx	lr

023faa04 <strlen>:
 23faa04:	4603      	mov	r3, r0
 23faa06:	f813 2b01 	ldrb.w	r2, [r3], #1
 23faa0a:	2a00      	cmp	r2, #0
 23faa0c:	d1fb      	bne.n	23faa06 <strlen+0x2>
 23faa0e:	1a18      	subs	r0, r3, r0
 23faa10:	3801      	subs	r0, #1
 23faa12:	4770      	bx	lr

023faa14 <module_user_init>:
extern constructor_ptr_t link_constructors_location[];
extern constructor_ptr_t link_constructors_end;
#define link_constructors_size   ((unsigned long)&link_constructors_end  -  (unsigned long)&link_constructors_location )

void module_user_init()
{
 23faa14:	b570      	push	{r4, r5, r6, lr}
    module_user_init_hook();
 23faa16:	f003 fa17 	bl	23fde48 <module_user_init_hook>

    // invoke constructors
    unsigned ctor_num;
    for (ctor_num=0; ctor_num < link_constructors_size/sizeof(constructor_ptr_t); ctor_num++ )
 23faa1a:	2500      	movs	r5, #0
 23faa1c:	4e05      	ldr	r6, [pc, #20]	; (23faa34 <module_user_init+0x20>)
 23faa1e:	4c06      	ldr	r4, [pc, #24]	; (23faa38 <module_user_init+0x24>)
 23faa20:	1ba4      	subs	r4, r4, r6
 23faa22:	08a4      	lsrs	r4, r4, #2
 23faa24:	42ac      	cmp	r4, r5
 23faa26:	d100      	bne.n	23faa2a <module_user_init+0x16>
    {
        link_constructors_location[ctor_num]();
    }
}
 23faa28:	bd70      	pop	{r4, r5, r6, pc}
        link_constructors_location[ctor_num]();
 23faa2a:	f856 3b04 	ldr.w	r3, [r6], #4
 23faa2e:	4798      	blx	r3
    for (ctor_num=0; ctor_num < link_constructors_size/sizeof(constructor_ptr_t); ctor_num++ )
 23faa30:	3501      	adds	r5, #1
 23faa32:	e7f7      	b.n	23faa24 <module_user_init+0x10>
 23faa34:	023fffcc 	.word	0x023fffcc
 23faa38:	023ffff4 	.word	0x023ffff4

023faa3c <module_user_setup>:

/**
 * Export these functions with a fuller name so they don't clash with the setup/loop wrappers in the system module.
 */
void module_user_setup() {
    setup();
 23faa3c:	f000 b9cc 	b.w	23fadd8 <setup>

023faa40 <module_user_loop>:
}

void module_user_loop() {
 23faa40:	b508      	push	{r3, lr}
    loop();
 23faa42:	f000 fa9d 	bl	23faf80 <loop>
    _post_loop();
}
 23faa46:	e8bd 4008 	ldmia.w	sp!, {r3, lr}
    _post_loop();
 23faa4a:	f003 b9b5 	b.w	23fddb8 <_post_loop>

023faa4e <_Znwj>:
 * Implement C++ new/delete operators using the heap
 */

void *operator new(size_t size)
{
	return malloc(size);
 23faa4e:	f002 be3b 	b.w	23fd6c8 <malloc>

023faa52 <_Znaj>:
 23faa52:	f002 be39 	b.w	23fd6c8 <malloc>

023faa56 <_ZdlPvj>:
	free(p);
}

void operator delete(void *p, size_t size)
{
	free(p);
 23faa56:	f002 be45 	b.w	23fd6e4 <free>
	...

023faa5c <__cxa_pure_virtual>:
    return -1;
}

/* Default implementation for call made to pure virtual function. */
void __cxa_pure_virtual() {
  PANIC(PureVirtualCall,"Call on pure virtual");
 23faa5c:	200c      	movs	r0, #12
void __cxa_pure_virtual() {
 23faa5e:	b508      	push	{r3, lr}
  PANIC(PureVirtualCall,"Call on pure virtual");
 23faa60:	4a02      	ldr	r2, [pc, #8]	; (23faa6c <__cxa_pure_virtual+0x10>)
 23faa62:	4903      	ldr	r1, [pc, #12]	; (23faa70 <__cxa_pure_virtual+0x14>)
 23faa64:	f002 fcd2 	bl	23fd40c <panic_>
  while (1);
 23faa68:	e7fe      	b.n	23faa68 <__cxa_pure_virtual+0xc>
 23faa6a:	bf00      	nop
 23faa6c:	023fcded 	.word	0x023fcded
 23faa70:	023ff220 	.word	0x023ff220

023faa74 <__cxa_guard_acquire>:

/* Provide default implemenation for __cxa_guard_acquire() and
 * __cxa_guard_release(). Note: these must be revisited if a multitasking
 * OS is ported to this platform. */
__extension__ typedef int __guard __attribute__((mode (__DI__)));
int __cxa_guard_acquire(__guard *g) {return !*(char *)(g);};
 23faa74:	7800      	ldrb	r0, [r0, #0]
 23faa76:	fab0 f080 	clz	r0, r0
 23faa7a:	0940      	lsrs	r0, r0, #5
 23faa7c:	4770      	bx	lr

023faa7e <__cxa_guard_release>:
void __cxa_guard_release (__guard *g) {*(char *)g = 1;};
 23faa7e:	2301      	movs	r3, #1
 23faa80:	7003      	strb	r3, [r0, #0]
 23faa82:	4770      	bx	lr

023faa84 <_ZN7Encoder16interruptHandlerEv>:
		state = (s >> 2);
	}
*/

private:
	void interruptHandler() {
 23faa84:	e92d 41f0 	stmdb	sp!, {r4, r5, r6, r7, r8, lr}
 23faa88:	4604      	mov	r4, r0
		uint8_t p1val = DIRECT_PIN_READ(pin1_register, pin1_bitmask);
 23faa8a:	6885      	ldr	r5, [r0, #8]
#ifdef	__cplusplus
extern "C" {
#endif

__attribute__((always_inline)) inline const hal_pin_info_t* fastPinGetPinmap() {
    static const hal_pin_info_t* pinMap = hal_pin_map();
 23faa8c:	f8df 80d4 	ldr.w	r8, [pc, #212]	; 23fab64 <_ZN7Encoder16interruptHandlerEv+0xe0>
 23faa90:	e8d8 3f8f 	ldab	r3, [r8]
 23faa94:	f013 0f01 	tst.w	r3, #1
 23faa98:	4e2f      	ldr	r6, [pc, #188]	; (23fab58 <_ZN7Encoder16interruptHandlerEv+0xd4>)
 23faa9a:	d109      	bne.n	23faab0 <_ZN7Encoder16interruptHandlerEv+0x2c>
 23faa9c:	4640      	mov	r0, r8
 23faa9e:	f7ff ffe9 	bl	23faa74 <__cxa_guard_acquire>
 23faaa2:	b128      	cbz	r0, 23faab0 <_ZN7Encoder16interruptHandlerEv+0x2c>
 23faaa4:	f002 f908 	bl	23fccb8 <hal_pin_map>
 23faaa8:	6030      	str	r0, [r6, #0]
 23faaaa:	4640      	mov	r0, r8
 23faaac:	f7ff ffe7 	bl	23faa7e <__cxa_guard_release>
    gpiobase->PORT[0].DDR |= (1 << pin_info.gpio_pin);
}

inline int32_t pinReadFast(hal_pin_t _pin)
{
    hal_pin_info_t pin_info = fastPinGetPinmap()[_pin];
 23faab0:	220c      	movs	r2, #12
 23faab2:	b2ab      	uxth	r3, r5
 23faab4:	4353      	muls	r3, r2
 23faab6:	6832      	ldr	r2, [r6, #0]
		uint8_t p2val = DIRECT_PIN_READ(pin2_register, pin2_bitmask);
 23faab8:	68e5      	ldr	r5, [r4, #12]

    GPIO_TypeDef* gpiobase = ((pin_info.gpio_port == RTL_PORT_A) ? GPIOA_BASE : GPIOB_BASE);
 23faaba:	5cd0      	ldrb	r0, [r2, r3]
    hal_pin_info_t pin_info = fastPinGetPinmap()[_pin];
 23faabc:	18d1      	adds	r1, r2, r3
    GPIO_TypeDef* gpiobase = ((pin_info.gpio_port == RTL_PORT_A) ? GPIOA_BASE : GPIOB_BASE);
 23faabe:	4a27      	ldr	r2, [pc, #156]	; (23fab5c <_ZN7Encoder16interruptHandlerEv+0xd8>)
 23faac0:	4b27      	ldr	r3, [pc, #156]	; (23fab60 <_ZN7Encoder16interruptHandlerEv+0xdc>)
    hal_pin_info_t pin_info = fastPinGetPinmap()[_pin];
 23faac2:	7849      	ldrb	r1, [r1, #1]
    GPIO_TypeDef* gpiobase = ((pin_info.gpio_port == RTL_PORT_A) ? GPIOA_BASE : GPIOB_BASE);
 23faac4:	2800      	cmp	r0, #0
 23faac6:	bf18      	it	ne
 23faac8:	4613      	movne	r3, r2
    return ((gpiobase->EXT_PORT[0] >> pin_info.gpio_pin) & 1UL);
 23faaca:	6d1f      	ldr	r7, [r3, #80]	; 0x50
 23faacc:	40cf      	lsrs	r7, r1
 23faace:	f007 0701 	and.w	r7, r7, #1
    static const hal_pin_info_t* pinMap = hal_pin_map();
 23faad2:	e8d8 3f8f 	ldab	r3, [r8]
 23faad6:	07db      	lsls	r3, r3, #31
 23faad8:	d409      	bmi.n	23faaee <_ZN7Encoder16interruptHandlerEv+0x6a>
 23faada:	4822      	ldr	r0, [pc, #136]	; (23fab64 <_ZN7Encoder16interruptHandlerEv+0xe0>)
 23faadc:	f7ff ffca 	bl	23faa74 <__cxa_guard_acquire>
 23faae0:	b128      	cbz	r0, 23faaee <_ZN7Encoder16interruptHandlerEv+0x6a>
 23faae2:	f002 f8e9 	bl	23fccb8 <hal_pin_map>
 23faae6:	6030      	str	r0, [r6, #0]
 23faae8:	481e      	ldr	r0, [pc, #120]	; (23fab64 <_ZN7Encoder16interruptHandlerEv+0xe0>)
 23faaea:	f7ff ffc8 	bl	23faa7e <__cxa_guard_release>
    hal_pin_info_t pin_info = fastPinGetPinmap()[_pin];
 23faaee:	220c      	movs	r2, #12
 23faaf0:	b2ab      	uxth	r3, r5
 23faaf2:	4353      	muls	r3, r2
 23faaf4:	6831      	ldr	r1, [r6, #0]
 23faaf6:	18ca      	adds	r2, r1, r3
 23faaf8:	7850      	ldrb	r0, [r2, #1]
    GPIO_TypeDef* gpiobase = ((pin_info.gpio_port == RTL_PORT_A) ? GPIOA_BASE : GPIOB_BASE);
 23faafa:	5cc9      	ldrb	r1, [r1, r3]
 23faafc:	4a17      	ldr	r2, [pc, #92]	; (23fab5c <_ZN7Encoder16interruptHandlerEv+0xd8>)
 23faafe:	4b18      	ldr	r3, [pc, #96]	; (23fab60 <_ZN7Encoder16interruptHandlerEv+0xdc>)
 23fab00:	2900      	cmp	r1, #0
 23fab02:	bf18      	it	ne
 23fab04:	4613      	movne	r3, r2
    return ((gpiobase->EXT_PORT[0] >> pin_info.gpio_pin) & 1UL);
 23fab06:	6d1a      	ldr	r2, [r3, #80]	; 0x50
		uint8_t newState = state & 3;
 23fab08:	7c23      	ldrb	r3, [r4, #16]
 23fab0a:	40c2      	lsrs	r2, r0
 23fab0c:	f002 0201 	and.w	r2, r2, #1
 23fab10:	f003 0303 	and.w	r3, r3, #3
		if (p1val) newState |= 4;
 23fab14:	b10f      	cbz	r7, 23fab1a <_ZN7Encoder16interruptHandlerEv+0x96>
 23fab16:	f043 0304 	orr.w	r3, r3, #4
		if (p2val) newState |= 8;
 23fab1a:	b10a      	cbz	r2, 23fab20 <_ZN7Encoder16interruptHandlerEv+0x9c>
 23fab1c:	f043 0308 	orr.w	r3, r3, #8
		state = (newState >> 2);
 23fab20:	089a      	lsrs	r2, r3, #2
 23fab22:	3b01      	subs	r3, #1
 23fab24:	7422      	strb	r2, [r4, #16]
		switch (newState) {
 23fab26:	2b0d      	cmp	r3, #13
 23fab28:	d80b      	bhi.n	23fab42 <_ZN7Encoder16interruptHandlerEv+0xbe>
 23fab2a:	e8df f003 	tbb	[pc, r3]
 23fab2e:	0c07      	.short	0x0c07
 23fab30:	120a0c0f 	.word	0x120a0c0f
 23fab34:	0a120707 	.word	0x0a120707
 23fab38:	070c0f0c 	.word	0x070c0f0c
			case 1: case 7: case 8: case 14:
				position++;
 23fab3c:	6963      	ldr	r3, [r4, #20]
 23fab3e:	3301      	adds	r3, #1
				return;
			case 3: case 12:
				position += 2;
				return;
			case 6: case 9:
				position -= 2;
 23fab40:	6163      	str	r3, [r4, #20]
				return;
		}
	}
 23fab42:	e8bd 81f0 	ldmia.w	sp!, {r4, r5, r6, r7, r8, pc}
				position--;
 23fab46:	6963      	ldr	r3, [r4, #20]
 23fab48:	3b01      	subs	r3, #1
 23fab4a:	e7f9      	b.n	23fab40 <_ZN7Encoder16interruptHandlerEv+0xbc>
				position += 2;
 23fab4c:	6963      	ldr	r3, [r4, #20]
 23fab4e:	3302      	adds	r3, #2
 23fab50:	e7f6      	b.n	23fab40 <_ZN7Encoder16interruptHandlerEv+0xbc>
				position -= 2;
 23fab52:	6963      	ldr	r3, [r4, #20]
 23fab54:	3b02      	subs	r3, #2
 23fab56:	e7f3      	b.n	23fab40 <_ZN7Encoder16interruptHandlerEv+0xbc>
 23fab58:	1007ac8c 	.word	0x1007ac8c
 23fab5c:	48014400 	.word	0x48014400
 23fab60:	48014000 	.word	0x48014000
 23fab64:	1007ac88 	.word	0x1007ac88

023fab68 <_ZN5Print5printIiLi0EEEjT_i.part.0.isra.0>:

} // namespace particle

template <typename T, std::enable_if_t<!std::is_base_of<Printable, T>::value && (std::is_integral<T>::value || std::is_convertible<T, unsigned long long>::value ||
    std::is_convertible<T, long long>::value), int>>
inline size_t Print::print(T n, int base)
 23fab68:	b570      	push	{r4, r5, r6, lr}
// FIXME: avoids 'comparison of constant '0' with boolean expression is always false'
#if __GNUC__ >= 9
#pragma GCC diagnostic push
#pragma GCC diagnostic ignored "-Wbool-compare"
#endif // __GNUC__ >= 9
        if (n < 0 && base == 10) {
 23fab6a:	1e0c      	subs	r4, r1, #0
inline size_t Print::print(T n, int base)
 23fab6c:	4606      	mov	r6, r0
 23fab6e:	4615      	mov	r5, r2
        if (n < 0 && base == 10) {
 23fab70:	da0b      	bge.n	23fab8a <_ZN5Print5printIiLi0EEEjT_i.part.0.isra.0+0x22>
 23fab72:	2a0a      	cmp	r2, #10
 23fab74:	d109      	bne.n	23fab8a <_ZN5Print5printIiLi0EEEjT_i.part.0.isra.0+0x22>
            t = print('-');
 23fab76:	212d      	movs	r1, #45	; 0x2d
 23fab78:	f003 f842 	bl	23fdc00 <_ZN5Print5printEc>
            val = -n;
 23fab7c:	4261      	negs	r1, r4
            val = n;
        }
#if __GNUC__ >= 9
#pragma GCC diagnostic pop
#endif // __GNUC__ >= 9
        return printNumber(val, base) + t;
 23fab7e:	4630      	mov	r0, r6
 23fab80:	b2ea      	uxtb	r2, r5
    }
}
 23fab82:	e8bd 4070 	ldmia.w	sp!, {r4, r5, r6, lr}
        return printNumber(val, base) + t;
 23fab86:	f003 b854 	b.w	23fdc32 <_ZN5Print11printNumberEmh>
            val = n;
 23fab8a:	4621      	mov	r1, r4
 23fab8c:	e7f7      	b.n	23fab7e <_ZN5Print5printIiLi0EEEjT_i.part.0.isra.0+0x16>

023fab8e <_ZNSt17_Function_handlerIFvvESt5_BindIFM7EncoderFvvEPS2_EEE9_M_invokeERKSt9_Any_data>:
	  }
	return false;
      }

      static _Res
      _M_invoke(const _Any_data& __functor, _ArgTypes&&... __args)
 23fab8e:	b410      	push	{r4}
	    return __source._M_access<_Functor*>();
 23fab90:	6803      	ldr	r3, [r0, #0]
  template<typename _Res, typename _MemFun, typename _Tp, typename... _Args>
    constexpr _Res
    __invoke_impl(__invoke_memfun_deref, _MemFun&& __f, _Tp&& __t,
		  _Args&&... __args)
    {
      return ((*std::forward<_Tp>(__t)).*__f)(std::forward<_Args>(__args)...);
 23fab92:	685a      	ldr	r2, [r3, #4]
 23fab94:	6899      	ldr	r1, [r3, #8]
 23fab96:	1054      	asrs	r4, r2, #1
 23fab98:	eb01 0062 	add.w	r0, r1, r2, asr #1
 23fab9c:	07d2      	lsls	r2, r2, #31
 23fab9e:	bf48      	it	mi
 23faba0:	590a      	ldrmi	r2, [r1, r4]
 23faba2:	681b      	ldr	r3, [r3, #0]
      {
	return std::__invoke_r<_Res>(*_Base::_M_get_pointer(__functor),
				     std::forward<_ArgTypes>(__args)...);
      }
 23faba4:	f85d 4b04 	ldr.w	r4, [sp], #4
 23faba8:	bf48      	it	mi
 23fabaa:	58d3      	ldrmi	r3, [r2, r3]
 23fabac:	4718      	bx	r3

023fabae <_ZNSt17_Function_handlerIFvvESt5_BindIFM7EncoderFvvEPS2_EEE10_M_managerERSt9_Any_dataRKS9_St18_Manager_operation>:
	switch (__op)
 23fabae:	2a01      	cmp	r2, #1
      _M_manager(_Any_data& __dest, const _Any_data& __source,
 23fabb0:	b538      	push	{r3, r4, r5, lr}
 23fabb2:	4604      	mov	r4, r0
	switch (__op)
 23fabb4:	d102      	bne.n	23fabbc <_ZNSt17_Function_handlerIFvvESt5_BindIFM7EncoderFvvEPS2_EEE10_M_managerERSt9_Any_dataRKS9_St18_Manager_operation+0xe>
	    return __source._M_access<_Functor*>();
 23fabb6:	680b      	ldr	r3, [r1, #0]
	  __dest._M_access<_Functor*>() =
 23fabb8:	6023      	str	r3, [r4, #0]
	}
 23fabba:	e003      	b.n	23fabc4 <_ZNSt17_Function_handlerIFvvESt5_BindIFM7EncoderFvvEPS2_EEE10_M_managerERSt9_Any_dataRKS9_St18_Manager_operation+0x16>
	  switch (__op)
 23fabbc:	2a02      	cmp	r2, #2
 23fabbe:	d003      	beq.n	23fabc8 <_ZNSt17_Function_handlerIFvvESt5_BindIFM7EncoderFvvEPS2_EEE10_M_managerERSt9_Any_dataRKS9_St18_Manager_operation+0x1a>
 23fabc0:	2a03      	cmp	r2, #3
 23fabc2:	d00d      	beq.n	23fabe0 <_ZNSt17_Function_handlerIFvvESt5_BindIFM7EncoderFvvEPS2_EEE10_M_managerERSt9_Any_dataRKS9_St18_Manager_operation+0x32>
      }
 23fabc4:	2000      	movs	r0, #0
 23fabc6:	bd38      	pop	{r3, r4, r5, pc}
	    new _Functor(*__source._M_access<const _Functor*>());
 23fabc8:	200c      	movs	r0, #12
	  __dest._M_access<_Functor*>() =
 23fabca:	680d      	ldr	r5, [r1, #0]
	    new _Functor(*__source._M_access<const _Functor*>());
 23fabcc:	f7ff ff3f 	bl	23faa4e <_Znwj>
 23fabd0:	4603      	mov	r3, r0
 23fabd2:	2800      	cmp	r0, #0
 23fabd4:	d0f0      	beq.n	23fabb8 <_ZNSt17_Function_handlerIFvvESt5_BindIFM7EncoderFvvEPS2_EEE10_M_managerERSt9_Any_dataRKS9_St18_Manager_operation+0xa>
 23fabd6:	e895 0007 	ldmia.w	r5, {r0, r1, r2}
 23fabda:	e883 0007 	stmia.w	r3, {r0, r1, r2}
 23fabde:	e7eb      	b.n	23fabb8 <_ZNSt17_Function_handlerIFvvESt5_BindIFM7EncoderFvvEPS2_EEE10_M_managerERSt9_Any_dataRKS9_St18_Manager_operation+0xa>
	  delete __victim._M_access<_Functor*>();
 23fabe0:	6800      	ldr	r0, [r0, #0]
 23fabe2:	2800      	cmp	r0, #0
 23fabe4:	d0ee      	beq.n	23fabc4 <_ZNSt17_Function_handlerIFvvESt5_BindIFM7EncoderFvvEPS2_EEE10_M_managerERSt9_Any_dataRKS9_St18_Manager_operation+0x16>
 23fabe6:	210c      	movs	r1, #12
 23fabe8:	f7ff ff35 	bl	23faa56 <_ZdlPvj>
 23fabec:	e7ea      	b.n	23fabc4 <_ZNSt17_Function_handlerIFvvESt5_BindIFM7EncoderFvvEPS2_EEE10_M_managerERSt9_Any_dataRKS9_St18_Manager_operation+0x16>
	...

023fabf0 <_Z15attachInterruptI7EncoderEbtMT_FvvEPS1_13InterruptModeah.isra.0>:
 * GPIO Interrupts
 */
bool attachInterrupt(uint16_t pin, wiring_interrupt_handler_t handler, InterruptMode mode, int8_t priority = -1, uint8_t subpriority = 0);
bool attachInterrupt(uint16_t pin, raw_interrupt_handler_t handler, InterruptMode mode, int8_t priority = -1, uint8_t subpriority = 0);
template <typename T>
bool attachInterrupt(uint16_t pin, void (T::*handler)(), T *instance, InterruptMode mode, int8_t priority = -1, uint8_t subpriority = 0) {
 23fabf0:	b5f0      	push	{r4, r5, r6, r7, lr}
 23fabf2:	461f      	mov	r7, r3
    _Function_base() : _M_manager(nullptr) { }
 23fabf4:	2300      	movs	r3, #0
 23fabf6:	b08d      	sub	sp, #52	; 0x34
 23fabf8:	ad02      	add	r5, sp, #8
 23fabfa:	e885 0006 	stmia.w	r5, {r1, r2}

     public:
      template<typename... _Args>
	explicit _GLIBCXX20_CONSTEXPR
	_Bind(const _Functor& __f, _Args&&... __args)
	: _M_f(__f), _M_bound_args(std::forward<_Args>(__args)...)
 23fabfe:	ac05      	add	r4, sp, #20
 23fac00:	4606      	mov	r6, r0
 23fac02:	e895 0003 	ldmia.w	r5, {r0, r1}
 23fac06:	e884 0005 	stmia.w	r4, {r0, r2}
	{ __functor._M_access<_Functor*>() = new _Functor(std::move(__f)); }
 23fac0a:	200c      	movs	r0, #12
    _Function_base() : _M_manager(nullptr) { }
 23fac0c:	930a      	str	r3, [sp, #40]	; 0x28
	{ __functor._M_access<_Functor*>() = new _Functor(std::move(__f)); }
 23fac0e:	f7ff ff1e 	bl	23faa4e <_Znwj>
 23fac12:	4602      	mov	r2, r0
 23fac14:	b120      	cbz	r0, 23fac20 <_Z15attachInterruptI7EncoderEbtMT_FvvEPS1_13InterruptModeah.isra.0+0x30>
	_Bind(_Functor&& __f, _Args&&... __args)
	: _M_f(std::move(__f)), _M_bound_args(std::forward<_Args>(__args)...)
	{ }

      _Bind(const _Bind&) = default;
      _Bind(_Bind&&) = default;
 23fac16:	e894 0003 	ldmia.w	r4, {r0, r1}
 23fac1a:	e882 0003 	stmia.w	r2, {r0, r1}
      constexpr _Head_base(const _Head_base&) = default;
      constexpr _Head_base(_Head_base&&) = default;

      template<typename _UHead>
        constexpr _Head_base(_UHead&& __h)
	: _M_head_impl(std::forward<_UHead>(__h)) { }
 23fac1e:	6097      	str	r7, [r2, #8]
	typedef _Function_handler<_Res(_ArgTypes...), _Functor> _My_handler;

	if (_My_handler::_M_not_empty_function(__f))
	  {
	    _My_handler::_M_init_functor(_M_functor, std::move(__f));
	    _M_invoker = &_My_handler::_M_invoke;
 23fac20:	4b0b      	ldr	r3, [pc, #44]	; (23fac50 <_Z15attachInterruptI7EncoderEbtMT_FvvEPS1_13InterruptModeah.isra.0+0x60>)
	{ __functor._M_access<_Functor*>() = new _Functor(std::move(__f)); }
 23fac22:	9208      	str	r2, [sp, #32]
	    _M_invoker = &_My_handler::_M_invoke;
 23fac24:	930b      	str	r3, [sp, #44]	; 0x2c
	    _M_manager = &_My_handler::_M_manager;
 23fac26:	4b0b      	ldr	r3, [pc, #44]	; (23fac54 <_Z15attachInterruptI7EncoderEbtMT_FvvEPS1_13InterruptModeah.isra.0+0x64>)
    using namespace std::placeholders;
    return attachInterrupt(pin, std::bind(handler, instance), mode, priority, subpriority);
 23fac28:	4630      	mov	r0, r6
 23fac2a:	930a      	str	r3, [sp, #40]	; 0x28
 23fac2c:	f89d 3050 	ldrb.w	r3, [sp, #80]	; 0x50
 23fac30:	f89d 2048 	ldrb.w	r2, [sp, #72]	; 0x48
 23fac34:	9300      	str	r3, [sp, #0]
 23fac36:	a908      	add	r1, sp, #32
 23fac38:	f99d 304c 	ldrsb.w	r3, [sp, #76]	; 0x4c
 23fac3c:	f003 fa78 	bl	23fe130 <_Z15attachInterrupttSt8functionIFvvEE13InterruptModeah>
      if (_M_manager)
 23fac40:	9b0a      	ldr	r3, [sp, #40]	; 0x28
 23fac42:	b11b      	cbz	r3, 23fac4c <_Z15attachInterruptI7EncoderEbtMT_FvvEPS1_13InterruptModeah.isra.0+0x5c>
	_M_manager(_M_functor, _M_functor, __destroy_functor);
 23fac44:	a908      	add	r1, sp, #32
 23fac46:	2203      	movs	r2, #3
 23fac48:	4608      	mov	r0, r1
 23fac4a:	4798      	blx	r3
}
 23fac4c:	b00d      	add	sp, #52	; 0x34
 23fac4e:	bdf0      	pop	{r4, r5, r6, r7, pc}
 23fac50:	023fab8f 	.word	0x023fab8f
 23fac54:	023fabaf 	.word	0x023fabaf

023fac58 <_ZN5Print6printfEPKcz>:
    size_t printf(const char* format, ...) __attribute__ ((format(printf, 2, 3)))
 23fac58:	b40e      	push	{r1, r2, r3}
 23fac5a:	b503      	push	{r0, r1, lr}
 23fac5c:	ab03      	add	r3, sp, #12
 23fac5e:	f853 2b04 	ldr.w	r2, [r3], #4
        auto r = this->vprintf(false, format, args);
 23fac62:	2100      	movs	r1, #0
        va_start(args, format);
 23fac64:	9301      	str	r3, [sp, #4]
        auto r = this->vprintf(false, format, args);
 23fac66:	f003 f802 	bl	23fdc6e <_ZN5Print7vprintfEbPKcSt9__va_list>
    }
 23fac6a:	b002      	add	sp, #8
 23fac6c:	f85d eb04 	ldr.w	lr, [sp], #4
 23fac70:	b003      	add	sp, #12
 23fac72:	4770      	bx	lr

023fac74 <_ZN9TCPClientD1Ev>:
class TCPClient : public Client {

public:
    TCPClient();
    TCPClient(sock_handle_t sock);
    virtual ~TCPClient() {};
 23fac74:	b538      	push	{r3, r4, r5, lr}
 23fac76:	4b0b      	ldr	r3, [pc, #44]	; (23faca4 <_ZN9TCPClientD1Ev+0x30>)
      // Does not throw if __r._M_get_use_count() == 0, caller must check.
      explicit __shared_count(const __weak_count<_Lp>& __r, std::nothrow_t);

      ~__shared_count() noexcept
      {
	if (_M_pi != nullptr)
 23fac78:	6984      	ldr	r4, [r0, #24]
 23fac7a:	4605      	mov	r5, r0
 23fac7c:	6003      	str	r3, [r0, #0]
 23fac7e:	b17c      	cbz	r4, 23faca0 <_ZN9TCPClientD1Ev+0x2c>
      if (--_M_use_count == 0)
 23fac80:	6863      	ldr	r3, [r4, #4]
 23fac82:	3b01      	subs	r3, #1
 23fac84:	6063      	str	r3, [r4, #4]
 23fac86:	b95b      	cbnz	r3, 23faca0 <_ZN9TCPClientD1Ev+0x2c>
          _M_dispose();
 23fac88:	6823      	ldr	r3, [r4, #0]
 23fac8a:	4620      	mov	r0, r4
 23fac8c:	689b      	ldr	r3, [r3, #8]
 23fac8e:	4798      	blx	r3
          if (--_M_weak_count == 0)
 23fac90:	68a3      	ldr	r3, [r4, #8]
 23fac92:	3b01      	subs	r3, #1
 23fac94:	60a3      	str	r3, [r4, #8]
 23fac96:	b91b      	cbnz	r3, 23faca0 <_ZN9TCPClientD1Ev+0x2c>
            _M_destroy();
 23fac98:	6823      	ldr	r3, [r4, #0]
 23fac9a:	4620      	mov	r0, r4
 23fac9c:	68db      	ldr	r3, [r3, #12]
 23fac9e:	4798      	blx	r3
 23faca0:	4628      	mov	r0, r5
 23faca2:	bd38      	pop	{r3, r4, r5, pc}
 23faca4:	023ffd64 	.word	0x023ffd64

023faca8 <_ZN9TCPClientD0Ev>:
 23faca8:	b510      	push	{r4, lr}
 23facaa:	4604      	mov	r4, r0
 23facac:	f7ff ffe2 	bl	23fac74 <_ZN9TCPClientD1Ev>
 23facb0:	4620      	mov	r0, r4
 23facb2:	211c      	movs	r1, #28
 23facb4:	f7ff fecf 	bl	23faa56 <_ZdlPvj>
 23facb8:	4620      	mov	r0, r4
 23facba:	bd10      	pop	{r4, pc}

023facbc <_ZN7EncoderC1Ett>:
	Encoder(pin_t pin1, pin_t pin2) {
 23facbc:	e92d 47f0 	stmdb	sp!, {r4, r5, r6, r7, r8, r9, sl, lr}
 23facc0:	4688      	mov	r8, r1
 23facc2:	4617      	mov	r7, r2
 23facc4:	4604      	mov	r4, r0
 23facc6:	b088      	sub	sp, #32
		pinMode(pin1, INPUT_PULLUP);
 23facc8:	4640      	mov	r0, r8
 23facca:	2102      	movs	r1, #2
 23faccc:	f003 ff72 	bl	23febb4 <pinMode>
		pinMode(pin2, INPUT_PULLUP);
 23facd0:	2102      	movs	r1, #2
 23facd2:	4638      	mov	r0, r7
 23facd4:	f003 ff6e 	bl	23febb4 <pinMode>
		pin1_register = PIN_TO_BASEREG(pin1);
 23facd8:	2300      	movs	r3, #0
#endif

inline system_tick_t millis(void) { return HAL_Timer_Get_Milli_Seconds(); }
inline unsigned long micros(void) { return HAL_Timer_Get_Micro_Seconds(); }
void delay(unsigned long ms);
inline void delayMicroseconds(unsigned int us) { HAL_Delay_Microseconds(us); }
 23facda:	f44f 60fa 	mov.w	r0, #2000	; 0x7d0
		pin2_register = PIN_TO_BASEREG(pin2);
 23facde:	e9c4 3801 	strd	r3, r8, [r4, #4]
		pin1_register = PIN_TO_BASEREG(pin1);
 23face2:	6023      	str	r3, [r4, #0]
		pin2_bitmask = PIN_TO_BITMASK(pin2);
 23face4:	60e7      	str	r7, [r4, #12]
		position = 0;
 23face6:	6163      	str	r3, [r4, #20]
 23face8:	f002 f880 	bl	23fcdec <HAL_Delay_Microseconds>
    static const hal_pin_info_t* pinMap = hal_pin_map();
 23facec:	f8df a0dc 	ldr.w	sl, [pc, #220]	; 23fadcc <_ZN7EncoderC1Ett+0x110>
		if (DIRECT_PIN_READ(pin1_register, pin1_bitmask)) s |= 1;
 23facf0:	68a5      	ldr	r5, [r4, #8]
 23facf2:	e8da 3f8f 	ldab	r3, [sl]
 23facf6:	f013 0f01 	tst.w	r3, #1
 23facfa:	f8df 90d4 	ldr.w	r9, [pc, #212]	; 23fadd0 <_ZN7EncoderC1Ett+0x114>
 23facfe:	d10a      	bne.n	23fad16 <_ZN7EncoderC1Ett+0x5a>
 23fad00:	4650      	mov	r0, sl
 23fad02:	f7ff feb7 	bl	23faa74 <__cxa_guard_acquire>
 23fad06:	b130      	cbz	r0, 23fad16 <_ZN7EncoderC1Ett+0x5a>
 23fad08:	f001 ffd6 	bl	23fccb8 <hal_pin_map>
 23fad0c:	f8c9 0000 	str.w	r0, [r9]
 23fad10:	4650      	mov	r0, sl
 23fad12:	f7ff feb4 	bl	23faa7e <__cxa_guard_release>
    hal_pin_info_t pin_info = fastPinGetPinmap()[_pin];
 23fad16:	220c      	movs	r2, #12
 23fad18:	b2ab      	uxth	r3, r5
 23fad1a:	4353      	muls	r3, r2
 23fad1c:	f8d9 2000 	ldr.w	r2, [r9]
		if (DIRECT_PIN_READ(pin2_register, pin2_bitmask)) s |= 2;
 23fad20:	68e6      	ldr	r6, [r4, #12]
    GPIO_TypeDef* gpiobase = ((pin_info.gpio_port == RTL_PORT_A) ? GPIOA_BASE : GPIOB_BASE);
 23fad22:	5cd0      	ldrb	r0, [r2, r3]
    hal_pin_info_t pin_info = fastPinGetPinmap()[_pin];
 23fad24:	18d1      	adds	r1, r2, r3
    GPIO_TypeDef* gpiobase = ((pin_info.gpio_port == RTL_PORT_A) ? GPIOA_BASE : GPIOB_BASE);
 23fad26:	4a27      	ldr	r2, [pc, #156]	; (23fadc4 <_ZN7EncoderC1Ett+0x108>)
 23fad28:	4b27      	ldr	r3, [pc, #156]	; (23fadc8 <_ZN7EncoderC1Ett+0x10c>)
    hal_pin_info_t pin_info = fastPinGetPinmap()[_pin];
 23fad2a:	7849      	ldrb	r1, [r1, #1]
    GPIO_TypeDef* gpiobase = ((pin_info.gpio_port == RTL_PORT_A) ? GPIOA_BASE : GPIOB_BASE);
 23fad2c:	2800      	cmp	r0, #0
 23fad2e:	bf18      	it	ne
 23fad30:	4613      	movne	r3, r2
    return ((gpiobase->EXT_PORT[0] >> pin_info.gpio_pin) & 1UL);
 23fad32:	6d1d      	ldr	r5, [r3, #80]	; 0x50
 23fad34:	40cd      	lsrs	r5, r1
		if (DIRECT_PIN_READ(pin1_register, pin1_bitmask)) s |= 1;
 23fad36:	f005 0501 	and.w	r5, r5, #1
    static const hal_pin_info_t* pinMap = hal_pin_map();
 23fad3a:	e8da 3f8f 	ldab	r3, [sl]
 23fad3e:	07da      	lsls	r2, r3, #31
 23fad40:	d40a      	bmi.n	23fad58 <_ZN7EncoderC1Ett+0x9c>
 23fad42:	4822      	ldr	r0, [pc, #136]	; (23fadcc <_ZN7EncoderC1Ett+0x110>)
 23fad44:	f7ff fe96 	bl	23faa74 <__cxa_guard_acquire>
 23fad48:	b130      	cbz	r0, 23fad58 <_ZN7EncoderC1Ett+0x9c>
 23fad4a:	f001 ffb5 	bl	23fccb8 <hal_pin_map>
 23fad4e:	f8c9 0000 	str.w	r0, [r9]
 23fad52:	481e      	ldr	r0, [pc, #120]	; (23fadcc <_ZN7EncoderC1Ett+0x110>)
 23fad54:	f7ff fe93 	bl	23faa7e <__cxa_guard_release>
    hal_pin_info_t pin_info = fastPinGetPinmap()[_pin];
 23fad58:	220c      	movs	r2, #12
 23fad5a:	b2b3      	uxth	r3, r6
 23fad5c:	4353      	muls	r3, r2
 23fad5e:	f8d9 2000 	ldr.w	r2, [r9]
		attachInterrupt(pin1, &Encoder::interruptHandler, this, CHANGE);
 23fad62:	f04f 36ff 	mov.w	r6, #4294967295
    GPIO_TypeDef* gpiobase = ((pin_info.gpio_port == RTL_PORT_A) ? GPIOA_BASE : GPIOB_BASE);
 23fad66:	5cd0      	ldrb	r0, [r2, r3]
    hal_pin_info_t pin_info = fastPinGetPinmap()[_pin];
 23fad68:	18d1      	adds	r1, r2, r3
    GPIO_TypeDef* gpiobase = ((pin_info.gpio_port == RTL_PORT_A) ? GPIOA_BASE : GPIOB_BASE);
 23fad6a:	4b16      	ldr	r3, [pc, #88]	; (23fadc4 <_ZN7EncoderC1Ett+0x108>)
 23fad6c:	4a16      	ldr	r2, [pc, #88]	; (23fadc8 <_ZN7EncoderC1Ett+0x10c>)
    hal_pin_info_t pin_info = fastPinGetPinmap()[_pin];
 23fad6e:	7849      	ldrb	r1, [r1, #1]
    GPIO_TypeDef* gpiobase = ((pin_info.gpio_port == RTL_PORT_A) ? GPIOA_BASE : GPIOB_BASE);
 23fad70:	2800      	cmp	r0, #0
 23fad72:	bf18      	it	ne
 23fad74:	461a      	movne	r2, r3
    return ((gpiobase->EXT_PORT[0] >> pin_info.gpio_pin) & 1UL);
 23fad76:	6d13      	ldr	r3, [r2, #80]	; 0x50
 23fad78:	f8df 9058 	ldr.w	r9, [pc, #88]	; 23fadd4 <_ZN7EncoderC1Ett+0x118>
 23fad7c:	40cb      	lsrs	r3, r1
		if (DIRECT_PIN_READ(pin2_register, pin2_bitmask)) s |= 2;
 23fad7e:	07db      	lsls	r3, r3, #31
 23fad80:	bf48      	it	mi
 23fad82:	f045 0502 	orrmi.w	r5, r5, #2
		state = s;
 23fad86:	7425      	strb	r5, [r4, #16]
		attachInterrupt(pin1, &Encoder::interruptHandler, this, CHANGE);
 23fad88:	2500      	movs	r5, #0
 23fad8a:	4623      	mov	r3, r4
 23fad8c:	462a      	mov	r2, r5
 23fad8e:	4649      	mov	r1, r9
 23fad90:	4640      	mov	r0, r8
 23fad92:	e9cd 5600 	strd	r5, r6, [sp]
 23fad96:	9502      	str	r5, [sp, #8]
 23fad98:	f8cd 9010 	str.w	r9, [sp, #16]
 23fad9c:	9505      	str	r5, [sp, #20]
 23fad9e:	f7ff ff27 	bl	23fabf0 <_Z15attachInterruptI7EncoderEbtMT_FvvEPS1_13InterruptModeah.isra.0>
		attachInterrupt(pin2, &Encoder::interruptHandler, this, CHANGE);
 23fada2:	e9cd 9506 	strd	r9, r5, [sp, #24]
 23fada6:	e9cd 6501 	strd	r6, r5, [sp, #4]
 23fadaa:	9500      	str	r5, [sp, #0]
 23fadac:	aa08      	add	r2, sp, #32
 23fadae:	4638      	mov	r0, r7
 23fadb0:	e912 0006 	ldmdb	r2, {r1, r2}
 23fadb4:	4623      	mov	r3, r4
 23fadb6:	f7ff ff1b 	bl	23fabf0 <_Z15attachInterruptI7EncoderEbtMT_FvvEPS1_13InterruptModeah.isra.0>
	}
 23fadba:	4620      	mov	r0, r4
 23fadbc:	b008      	add	sp, #32
 23fadbe:	e8bd 87f0 	ldmia.w	sp!, {r4, r5, r6, r7, r8, r9, sl, pc}
 23fadc2:	bf00      	nop
 23fadc4:	48014400 	.word	0x48014400
 23fadc8:	48014000 	.word	0x48014000
 23fadcc:	1007ac88 	.word	0x1007ac88
 23fadd0:	1007ac8c 	.word	0x1007ac8c
 23fadd4:	023faa85 	.word	0x023faa85

023fadd8 <setup>:
Button encoderSwitch(ESWTCH);
Encoder encoder(PINA, PINB);
DFRobotDFPlayerMini duckiePlayer;

void setup()
{
 23fadd8:	b530      	push	{r4, r5, lr}
 23fadda:	b099      	sub	sp, #100	; 0x64
  Serial.begin(9600);
 23faddc:	f003 f956 	bl	23fe08c <_Z16_fetch_usbserialv>
 23fade0:	f44f 5116 	mov.w	r1, #9600	; 0x2580
 23fade4:	f003 f942 	bl	23fe06c <_ZN9USBSerial5beginEl>
        HAL_Core_Button_Mirror_Pin_Disable((uint8_t)bootloader, 0, nullptr);
    }

    // This function is similar to the global millis() but returns a 64-bit value
    static uint64_t millis() {
        return hal_timer_millis(nullptr);
 23fade8:	2000      	movs	r0, #0
 23fadea:	f002 f829 	bl	23fce40 <hal_timer_millis>
 23fadee:	4604      	mov	r4, r0
 23fadf0:	2000      	movs	r0, #0
 23fadf2:	f002 f825 	bl	23fce40 <hal_timer_millis>
        return waitConditionWhile(_condition, [=]{ return (millis()-start)<timeout; });
 23fadf6:	1b00      	subs	r0, r0, r4
 23fadf8:	f161 0100 	sbc.w	r1, r1, #0
        while (_while() && !_condition()) {
 23fadfc:	f5b0 7f7a 	cmp.w	r0, #1000	; 0x3e8
 23fae00:	f171 0300 	sbcs.w	r3, r1, #0
 23fae04:	d207      	bcs.n	23fae16 <setup+0x3e>
  waitFor(Serial.isConnected, 1000);
 23fae06:	f003 f941 	bl	23fe08c <_Z16_fetch_usbserialv>
 23fae0a:	f003 f933 	bl	23fe074 <_ZN9USBSerial11isConnectedEv>
 23fae0e:	b910      	cbnz	r0, 23fae16 <setup+0x3e>
            spark_process();
 23fae10:	f002 fc3e 	bl	23fd690 <spark_process>
        while (_while() && !_condition()) {
 23fae14:	e7ec      	b.n	23fadf0 <setup+0x18>
 23fae16:	f003 f939 	bl	23fe08c <_Z16_fetch_usbserialv>
 23fae1a:	f003 f92b 	bl	23fe074 <_ZN9USBSerial11isConnectedEv>
  Serial1.begin(9600);
 23fae1e:	f003 ff57 	bl	23fecd0 <_Z22__fetch_global_Serial1v>
 23fae22:	f44f 5116 	mov.w	r1, #9600	; 0x2580
 23fae26:	f003 fa0d 	bl	23fe244 <_ZN11USARTSerial5beginEm>
    WiFiClass() :
            NetworkClass(NETWORK_INTERFACE_WIFI_STA) {
    }

    void on(void) {
        network_on(*this, 0, 0, NULL);
 23fae2a:	2300      	movs	r3, #0
    virtual bool listening();
    virtual NetworkClass& prefer(bool prefer = true);
    virtual bool isPreferred();

    operator network_interface_t() const {
        return iface_;
 23fae2c:	4c43      	ldr	r4, [pc, #268]	; (23faf3c <setup+0x164>)
 23fae2e:	461a      	mov	r2, r3
 23fae30:	4619      	mov	r1, r3
 23fae32:	6860      	ldr	r0, [r4, #4]
 23fae34:	f002 fb84 	bl	23fd540 <network_on>
    bool hasCredentials(void) {
        return network_has_credentials(*this, 0, NULL);
    }

    bool clearCredentials(void) {
        return network_clear_credentials(*this, 0, NULL, NULL);
 23fae38:	2300      	movs	r3, #0
 23fae3a:	6860      	ldr	r0, [r4, #4]
 23fae3c:	461a      	mov	r2, r3
 23fae3e:	4619      	mov	r1, r3
 23fae40:	f002 fbc4 	bl	23fd5cc <network_clear_credentials>
        memset(&creds, 0, sizeof(creds));
 23fae44:	2238      	movs	r2, #56	; 0x38
 23fae46:	2100      	movs	r1, #0
 23fae48:	a80a      	add	r0, sp, #40	; 0x28
 23fae4a:	f004 f93c 	bl	23ff0c6 <memset>
        creds.size = sizeof(creds);
 23fae4e:	234c      	movs	r3, #76	; 0x4c
 23fae50:	9305      	str	r3, [sp, #20]
        creds.ssid = ssid;
 23fae52:	4b3b      	ldr	r3, [pc, #236]	; (23faf40 <setup+0x168>)
        creds.password = password;
 23fae54:	220a      	movs	r2, #10
        creds.ssid = ssid;
 23fae56:	9306      	str	r3, [sp, #24]
        creds.password = password;
 23fae58:	2300      	movs	r3, #0
        return (network_set_credentials(*this, 0, &creds, NULL) == 0);
 23fae5a:	6860      	ldr	r0, [r4, #4]
 23fae5c:	4619      	mov	r1, r3
        creds.password = password;
 23fae5e:	e9cd 2307 	strd	r2, r3, [sp, #28]
        return (network_set_credentials(*this, 0, &creds, NULL) == 0);
 23fae62:	aa05      	add	r2, sp, #20
        creds.password_len = passwordLen;
 23fae64:	9309      	str	r3, [sp, #36]	; 0x24
        return (network_set_credentials(*this, 0, &creds, NULL) == 0);
 23fae66:	f002 fba3 	bl	23fd5b0 <network_set_credentials>
        network_connect(*this, flags, 0, NULL);
 23fae6a:	2300      	movs	r3, #0
 23fae6c:	6860      	ldr	r0, [r4, #4]
 23fae6e:	461a      	mov	r2, r3
 23fae70:	4619      	mov	r1, r3
 23fae72:	f002 fb2d 	bl	23fd4d0 <network_connect>
  WiFi.setCredentials("IoTNetwork");

  WiFi.connect();
  while (WiFi.connecting())
  {
    Serial.printf(".");
 23fae76:	4d33      	ldr	r5, [pc, #204]	; (23faf44 <setup+0x16c>)
        return network_connecting(*this, 0, NULL);
 23fae78:	2200      	movs	r2, #0
 23fae7a:	6860      	ldr	r0, [r4, #4]
 23fae7c:	4611      	mov	r1, r2
 23fae7e:	f002 fb35 	bl	23fd4ec <network_connecting>
  while (WiFi.connecting())
 23fae82:	b128      	cbz	r0, 23fae90 <setup+0xb8>
    Serial.printf(".");
 23fae84:	f003 f902 	bl	23fe08c <_Z16_fetch_usbserialv>
 23fae88:	4629      	mov	r1, r5
 23fae8a:	f7ff fee5 	bl	23fac58 <_ZN5Print6printfEPKcz>
  while (WiFi.connecting())
 23fae8e:	e7f3      	b.n	23fae78 <setup+0xa0>
  }
  Serial.printf("\n\n");
 23fae90:	f003 f8fc 	bl	23fe08c <_Z16_fetch_usbserialv>
 23fae94:	492c      	ldr	r1, [pc, #176]	; (23faf48 <setup+0x170>)
 23fae96:	f7ff fedf 	bl	23fac58 <_ZN5Print6printfEPKcz>

  pixel.begin();
 23fae9a:	482c      	ldr	r0, [pc, #176]	; (23faf4c <setup+0x174>)
 23fae9c:	f000 ff92 	bl	23fbdc4 <_ZN17Adafruit_NeoPixel5beginEv>
  pixel.setBrightness(10);
 23faea0:	210a      	movs	r1, #10
 23faea2:	482a      	ldr	r0, [pc, #168]	; (23faf4c <setup+0x174>)
 23faea4:	f001 f941 	bl	23fc12a <_ZN17Adafruit_NeoPixel13setBrightnessEh>
  pixel.show();
 23faea8:	4828      	ldr	r0, [pc, #160]	; (23faf4c <setup+0x174>)
 23faeaa:	f000 fff1 	bl	23fbe90 <_ZN17Adafruit_NeoPixel4showEv>

  status = bme.begin(HEXADDRESS);
 23faeae:	2176      	movs	r1, #118	; 0x76
 23faeb0:	4827      	ldr	r0, [pc, #156]	; (23faf50 <setup+0x178>)
 23faeb2:	f000 ff38 	bl	23fbd26 <_ZN15Adafruit_BME2805beginEh>
 23faeb6:	4b27      	ldr	r3, [pc, #156]	; (23faf54 <setup+0x17c>)
 23faeb8:	7018      	strb	r0, [r3, #0]
  if (!status)
 23faeba:	b928      	cbnz	r0, 23faec8 <setup+0xf0>
  {
    Serial.printf("BME at address %i failed to start\n", HEXADDRESS);
 23faebc:	f003 f8e6 	bl	23fe08c <_Z16_fetch_usbserialv>
 23faec0:	2276      	movs	r2, #118	; 0x76
 23faec2:	4925      	ldr	r1, [pc, #148]	; (23faf58 <setup+0x180>)
 23faec4:	f7ff fec8 	bl	23fac58 <_ZN5Print6printfEPKcz>
  }

  display.begin(SSD1306_SWITCHCAPVCC, 0x3C);
 23faec8:	223c      	movs	r2, #60	; 0x3c
 23faeca:	2102      	movs	r1, #2
 23faecc:	4823      	ldr	r0, [pc, #140]	; (23faf5c <setup+0x184>)
 23faece:	f001 fbfb 	bl	23fc6c8 <_ZN16Adafruit_SSD13065beginEhh>
  display.drawBitmap(0, 0, duckie, 128, 64, WHITE);
 23faed2:	2401      	movs	r4, #1
 23faed4:	2340      	movs	r3, #64	; 0x40
 23faed6:	2200      	movs	r2, #0
 23faed8:	e9cd 3401 	strd	r3, r4, [sp, #4]
 23faedc:	2380      	movs	r3, #128	; 0x80
 23faede:	4611      	mov	r1, r2
 23faee0:	481e      	ldr	r0, [pc, #120]	; (23faf5c <setup+0x184>)
 23faee2:	9300      	str	r3, [sp, #0]
 23faee4:	4b1e      	ldr	r3, [pc, #120]	; (23faf60 <setup+0x188>)
 23faee6:	f001 fdb3 	bl	23fca50 <_ZN12Adafruit_GFX10drawBitmapEssPKhsst>
  if (!duckiePlayer.begin(Serial1))
 23faeea:	f003 fef1 	bl	23fecd0 <_Z22__fetch_global_Serial1v>
 23faeee:	4622      	mov	r2, r4
 23faef0:	4601      	mov	r1, r0
 23faef2:	481c      	ldr	r0, [pc, #112]	; (23faf64 <setup+0x18c>)
 23faef4:	f000 fb97 	bl	23fb626 <_ZN19DFRobotDFPlayerMini5beginER6Streamb>
 23faef8:	b978      	cbnz	r0, 23faf1a <setup+0x142>
  { // Use softwareSerial to communicate with mp3.
    Serial.printf("Unable to begin:\n");
 23faefa:	f003 f8c7 	bl	23fe08c <_Z16_fetch_usbserialv>
 23faefe:	491a      	ldr	r1, [pc, #104]	; (23faf68 <setup+0x190>)
 23faf00:	f7ff feaa 	bl	23fac58 <_ZN5Print6printfEPKcz>
    Serial.printf("1.Please recheck the connection!\n");
 23faf04:	f003 f8c2 	bl	23fe08c <_Z16_fetch_usbserialv>
 23faf08:	4918      	ldr	r1, [pc, #96]	; (23faf6c <setup+0x194>)
 23faf0a:	f7ff fea5 	bl	23fac58 <_ZN5Print6printfEPKcz>
    Serial.printf("2.Please insert the SD card!\n");
 23faf0e:	f003 f8bd 	bl	23fe08c <_Z16_fetch_usbserialv>
 23faf12:	4917      	ldr	r1, [pc, #92]	; (23faf70 <setup+0x198>)
 23faf14:	f7ff fea0 	bl	23fac58 <_ZN5Print6printfEPKcz>
    while (true)
 23faf18:	e7fe      	b.n	23faf18 <setup+0x140>
      ;
  }
  Serial.printf("DFPlayer Mini online.\n");
 23faf1a:	f003 f8b7 	bl	23fe08c <_Z16_fetch_usbserialv>
 23faf1e:	4915      	ldr	r1, [pc, #84]	; (23faf74 <setup+0x19c>)
 23faf20:	f7ff fe9a 	bl	23fac58 <_ZN5Print6printfEPKcz>
  Wire.begin();
 23faf24:	f003 ff80 	bl	23fee28 <_Z19__fetch_global_Wirev>
 23faf28:	f003 f9ec 	bl	23fe304 <_ZN7TwoWire5beginEv>
  Serial.println("Ready to go");
 23faf2c:	f003 f8ae 	bl	23fe08c <_Z16_fetch_usbserialv>
 23faf30:	4911      	ldr	r1, [pc, #68]	; (23faf78 <setup+0x1a0>)
}
 23faf32:	b019      	add	sp, #100	; 0x64
 23faf34:	e8bd 4030 	ldmia.w	sp!, {r4, r5, lr}
  Serial.println("Ready to go");
 23faf38:	f002 be71 	b.w	23fdc1e <_ZN5Print7printlnEPKc>
 23faf3c:	1007aef4 	.word	0x1007aef4
 23faf40:	023ff309 	.word	0x023ff309
 23faf44:	023ff314 	.word	0x023ff314
 23faf48:	023ff316 	.word	0x023ff316
 23faf4c:	1007add0 	.word	0x1007add0
 23faf50:	1007acf4 	.word	0x1007acf4
 23faf54:	1007ae04 	.word	0x1007ae04
 23faf58:	023ff319 	.word	0x023ff319
 23faf5c:	1007ad40 	.word	0x1007ad40
 23faf60:	023ff3ce 	.word	0x023ff3ce
 23faf64:	1007ad64 	.word	0x1007ad64
 23faf68:	023ff33c 	.word	0x023ff33c
 23faf6c:	023ff34e 	.word	0x023ff34e
 23faf70:	023ff370 	.word	0x023ff370
 23faf74:	023ff38e 	.word	0x023ff38e
 23faf78:	023ff3a5 	.word	0x023ff3a5
 23faf7c:	00000000 	.word	0x00000000

023faf80 <loop>:

void loop()
{
 23faf80:	e92d 43f0 	stmdb	sp!, {r4, r5, r6, r7, r8, r9, lr}
 23faf84:	ed2d 8b02 	vpush	{d8}
 23faf88:	b083      	sub	sp, #12
inline system_tick_t millis(void) { return HAL_Timer_Get_Milli_Seconds(); }
 23faf8a:	f001 ff4b 	bl	23fce24 <HAL_Timer_Get_Milli_Seconds>
  currentTime = millis();
 23faf8e:	4ba4      	ldr	r3, [pc, #656]	; (23fb220 <loop+0x2a0>)

  // Update temperature every minute
  // if (currentTime >= 60000){
  lastUpdateTime = currentTime;
  temp = bme.readTemperature();
 23faf90:	4ca4      	ldr	r4, [pc, #656]	; (23fb224 <loop+0x2a4>)
  currentTime = millis();
 23faf92:	6018      	str	r0, [r3, #0]
  lastUpdateTime = currentTime;
 23faf94:	4ba4      	ldr	r3, [pc, #656]	; (23fb228 <loop+0x2a8>)
 23faf96:	6018      	str	r0, [r3, #0]
  temp = bme.readTemperature();
 23faf98:	48a4      	ldr	r0, [pc, #656]	; (23fb22c <loop+0x2ac>)
 23faf9a:	f000 fe3b 	bl	23fbc14 <_ZN15Adafruit_BME28015readTemperatureEv>

  display.clearDisplay();
 23faf9e:	48a4      	ldr	r0, [pc, #656]	; (23fb230 <loop+0x2b0>)
  temp = bme.readTemperature();
 23fafa0:	ed84 0a00 	vstr	s0, [r4]
  display.clearDisplay();
 23fafa4:	f001 fac4 	bl	23fc530 <_ZN16Adafruit_SSD130612clearDisplayEv>
  display.setTextSize(1);
 23fafa8:	2101      	movs	r1, #1
 23fafaa:	48a1      	ldr	r0, [pc, #644]	; (23fb230 <loop+0x2b0>)
 23fafac:	f001 fe57 	bl	23fcc5e <_ZN12Adafruit_GFX11setTextSizeEh>
  display.setTextColor(WHITE);
 23fafb0:	2101      	movs	r1, #1
 23fafb2:	489f      	ldr	r0, [pc, #636]	; (23fb230 <loop+0x2b0>)
 23fafb4:	f001 fe58 	bl	23fcc68 <_ZN12Adafruit_GFX12setTextColorEt>
  display.setCursor(10, 0);
 23fafb8:	2200      	movs	r2, #0
 23fafba:	210a      	movs	r1, #10
 23fafbc:	489c      	ldr	r0, [pc, #624]	; (23fb230 <loop+0x2b0>)
 23fafbe:	f001 fe4b 	bl	23fcc58 <_ZN12Adafruit_GFX9setCursorEss>
  display.print("Temp: ");
 23fafc2:	499c      	ldr	r1, [pc, #624]	; (23fb234 <loop+0x2b4>)
 23fafc4:	489a      	ldr	r0, [pc, #616]	; (23fb230 <loop+0x2b0>)
 23fafc6:	f002 fe17 	bl	23fdbf8 <_ZN5Print5printEPKc>
  display.print(temp);
 23fafca:	ed94 8a00 	vldr	s16, [r4]
        return printFloat((double)n, digits);
 23fafce:	ee18 0a10 	vmov	r0, s16
 23fafd2:	f7ff f9bd 	bl	23fa350 <__aeabi_f2d>
        if (std::isnan(number)) {
 23fafd6:	4602      	mov	r2, r0
 23fafd8:	460b      	mov	r3, r1
        return printFloat((double)n, digits);
 23fafda:	4604      	mov	r4, r0
 23fafdc:	460d      	mov	r5, r1
 23fafde:	4680      	mov	r8, r0
 23fafe0:	4689      	mov	r9, r1
        if (std::isnan(number)) {
 23fafe2:	f7ff fca7 	bl	23fa934 <__aeabi_dcmpun>
 23fafe6:	2800      	cmp	r0, #0
 23fafe8:	f000 809a 	beq.w	23fb120 <loop+0x1a0>
            return print("nan");
 23fafec:	4992      	ldr	r1, [pc, #584]	; (23fb238 <loop+0x2b8>)
            return print("inf");
 23fafee:	4890      	ldr	r0, [pc, #576]	; (23fb230 <loop+0x2b0>)
 23faff0:	f002 fe02 	bl	23fdbf8 <_ZN5Print5printEPKc>
inline size_t Print::print(T n, int base)
 23faff4:	220a      	movs	r2, #10
 23faff6:	21b0      	movs	r1, #176	; 0xb0
 23faff8:	488d      	ldr	r0, [pc, #564]	; (23fb230 <loop+0x2b0>)
 23faffa:	f7ff fdb5 	bl	23fab68 <_ZN5Print5printIiLi0EEEjT_i.part.0.isra.0>
  display.print(DEG);
  display.setTextSize(2);
 23faffe:	2102      	movs	r1, #2
 23fb000:	488b      	ldr	r0, [pc, #556]	; (23fb230 <loop+0x2b0>)
 23fb002:	f001 fe2c 	bl	23fcc5e <_ZN12Adafruit_GFX11setTextSizeEh>
  display.setTextColor(WHITE);
 23fb006:	2101      	movs	r1, #1
 23fb008:	4889      	ldr	r0, [pc, #548]	; (23fb230 <loop+0x2b0>)
 23fb00a:	f001 fe2d 	bl	23fcc68 <_ZN12Adafruit_GFX12setTextColorEt>
  display.setCursor(12, 28);
 23fb00e:	221c      	movs	r2, #28
 23fb010:	210c      	movs	r1, #12
 23fb012:	4887      	ldr	r0, [pc, #540]	; (23fb230 <loop+0x2b0>)
 23fb014:	f001 fe20 	bl	23fcc58 <_ZN12Adafruit_GFX9setCursorEss>
  display.println("Papa Duck");
 23fb018:	4988      	ldr	r1, [pc, #544]	; (23fb23c <loop+0x2bc>)
 23fb01a:	4885      	ldr	r0, [pc, #532]	; (23fb230 <loop+0x2b0>)
 23fb01c:	f002 fdff 	bl	23fdc1e <_ZN5Print7printlnEPKc>
  display.display();
 23fb020:	4883      	ldr	r0, [pc, #524]	; (23fb230 <loop+0x2b0>)
 23fb022:	f001 fae1 	bl	23fc5e8 <_ZN16Adafruit_SSD13067displayEv>
  // }

  // Cycle through colors on NeoPixels

  for (int i = 0; i < PIXELCOUNT; i++)
 23fb026:	2400      	movs	r4, #0
  {
    color = i % 7;
 23fb028:	4d85      	ldr	r5, [pc, #532]	; (23fb240 <loop+0x2c0>)
    pixel.setPixelColor(i, rainbow[color]);
 23fb02a:	4e86      	ldr	r6, [pc, #536]	; (23fb244 <loop+0x2c4>)
 23fb02c:	4f86      	ldr	r7, [pc, #536]	; (23fb248 <loop+0x2c8>)
    color = i % 7;
 23fb02e:	2307      	movs	r3, #7
 23fb030:	fbb4 f3f3 	udiv	r3, r4, r3
 23fb034:	ebc3 03c3 	rsb	r3, r3, r3, lsl #3
 23fb038:	1ae3      	subs	r3, r4, r3
    pixel.setPixelColor(i, rainbow[color]);
 23fb03a:	f856 2023 	ldr.w	r2, [r6, r3, lsl #2]
 23fb03e:	b2a1      	uxth	r1, r4
 23fb040:	4638      	mov	r0, r7
    color = i % 7;
 23fb042:	602b      	str	r3, [r5, #0]
    pixel.setPixelColor(i, rainbow[color]);
 23fb044:	f001 f82e 	bl	23fc0a4 <_ZN17Adafruit_NeoPixel13setPixelColorEtm>
    pixel.show();
 23fb048:	4638      	mov	r0, r7
 23fb04a:	f000 ff21 	bl	23fbe90 <_ZN17Adafruit_NeoPixel4showEv>
    color++;
 23fb04e:	682b      	ldr	r3, [r5, #0]
  for (int i = 0; i < PIXELCOUNT; i++)
 23fb050:	3401      	adds	r4, #1
    color++;
 23fb052:	3301      	adds	r3, #1
  for (int i = 0; i < PIXELCOUNT; i++)
 23fb054:	2c0c      	cmp	r4, #12
    color++;
 23fb056:	602b      	str	r3, [r5, #0]
  for (int i = 0; i < PIXELCOUNT; i++)
 23fb058:	d1e9      	bne.n	23fb02e <loop+0xae>
    }

    bool isClicked() {
      bool _buttonState, _clicked;

      _buttonState = digitalRead(_buttonPin);
 23fb05a:	4c7c      	ldr	r4, [pc, #496]	; (23fb24c <loop+0x2cc>)
 23fb05c:	8820      	ldrh	r0, [r4, #0]
 23fb05e:	f003 fdd3 	bl	23fec08 <digitalRead>
      if(_pullUp) {
 23fb062:	7a23      	ldrb	r3, [r4, #8]
 23fb064:	2b00      	cmp	r3, #0
 23fb066:	f040 80cf 	bne.w	23fb208 <loop+0x288>
      _buttonState = digitalRead(_buttonPin);
 23fb06a:	3800      	subs	r0, #0
 23fb06c:	bf18      	it	ne
 23fb06e:	2001      	movne	r0, #1
        _buttonState = !_buttonState;
      }
      if(_buttonState != _prevButtonState) {
 23fb070:	6863      	ldr	r3, [r4, #4]
 23fb072:	4298      	cmp	r0, r3
 23fb074:	d01a      	beq.n	23fb0ac <loop+0x12c>
        _clicked = _buttonState;
      }
      else {
        _clicked = false;
      }
      _prevButtonState=_buttonState;
 23fb076:	6060      	str	r0, [r4, #4]
  }

  if (pushButton.isClicked())
 23fb078:	b1c0      	cbz	r0, 23fb0ac <loop+0x12c>
  {
    onOff = !onOff;
 23fb07a:	4c75      	ldr	r4, [pc, #468]	; (23fb250 <loop+0x2d0>)
    //setHue(HUES[hue], onOff, HueRainbow[color % 7], brightness, SATURATION);
    duckiePlayer.volume(volume);
 23fb07c:	4875      	ldr	r0, [pc, #468]	; (23fb254 <loop+0x2d4>)
    onOff = !onOff;
 23fb07e:	7823      	ldrb	r3, [r4, #0]
 23fb080:	f083 0301 	eor.w	r3, r3, #1
 23fb084:	7023      	strb	r3, [r4, #0]
    duckiePlayer.volume(volume);
 23fb086:	4b74      	ldr	r3, [pc, #464]	; (23fb258 <loop+0x2d8>)
 23fb088:	edd3 7a00 	vldr	s15, [r3]
 23fb08c:	eefc 7ae7 	vcvt.u32.f32	s15, s15
 23fb090:	edcd 7a01 	vstr	s15, [sp, #4]
 23fb094:	f89d 1004 	ldrb.w	r1, [sp, #4]
 23fb098:	f000 fabe 	bl	23fb618 <_ZN19DFRobotDFPlayerMini6volumeEh>
    if (onOff)
 23fb09c:	7823      	ldrb	r3, [r4, #0]
 23fb09e:	2b00      	cmp	r3, #0
 23fb0a0:	f000 80b6 	beq.w	23fb210 <loop+0x290>
    {
      duckiePlayer.play();
 23fb0a4:	2101      	movs	r1, #1
 23fb0a6:	486b      	ldr	r0, [pc, #428]	; (23fb254 <loop+0x2d4>)
 23fb0a8:	f000 fab2 	bl	23fb610 <_ZN19DFRobotDFPlayerMini4playEi>
		int32_t ret = position;
 23fb0ac:	4c6b      	ldr	r4, [pc, #428]	; (23fb25c <loop+0x2dc>)
		noInterrupts();
 23fb0ae:	f003 f86f 	bl	23fe190 <_Z12noInterruptsv>
    {
      duckiePlayer.stop();
    }
  }

  position = encoder.read(); // 0-96 encoder positions, 0-255 brightness
 23fb0b2:	4d6b      	ldr	r5, [pc, #428]	; (23fb260 <loop+0x2e0>)
		int32_t ret = position;
 23fb0b4:	6966      	ldr	r6, [r4, #20]
		interrupts();
 23fb0b6:	f003 f86d 	bl	23fe194 <_Z10interruptsv>
 23fb0ba:	602e      	str	r6, [r5, #0]
		noInterrupts();
 23fb0bc:	f003 f868 	bl	23fe190 <_Z12noInterruptsv>
		int32_t ret = position;
 23fb0c0:	6966      	ldr	r6, [r4, #20]
		interrupts();
 23fb0c2:	f003 f867 	bl	23fe194 <_Z10interruptsv>

  if (encoder.read() > 95)
 23fb0c6:	2e5f      	cmp	r6, #95	; 0x5f
 23fb0c8:	dd06      	ble.n	23fb0d8 <loop+0x158>
  {
    encoder.write(position = 95);
 23fb0ca:	265f      	movs	r6, #95	; 0x5f
 23fb0cc:	602e      	str	r6, [r5, #0]
		noInterrupts();
 23fb0ce:	f003 f85f 	bl	23fe190 <_Z12noInterruptsv>
		position = p;
 23fb0d2:	6166      	str	r6, [r4, #20]
		interrupts();
 23fb0d4:	f003 f85e 	bl	23fe194 <_Z10interruptsv>
		noInterrupts();
 23fb0d8:	f003 f85a 	bl	23fe190 <_Z12noInterruptsv>
		int32_t ret = position;
 23fb0dc:	6966      	ldr	r6, [r4, #20]
		interrupts();
 23fb0de:	f003 f859 	bl	23fe194 <_Z10interruptsv>
  }
  if (encoder.read() < 0)
 23fb0e2:	2e00      	cmp	r6, #0
 23fb0e4:	da06      	bge.n	23fb0f4 <loop+0x174>
  {
    encoder.write(position = 0);
 23fb0e6:	2600      	movs	r6, #0
 23fb0e8:	602e      	str	r6, [r5, #0]
		noInterrupts();
 23fb0ea:	f003 f851 	bl	23fe190 <_Z12noInterruptsv>
		position = p;
 23fb0ee:	6166      	str	r6, [r4, #20]
		interrupts();
 23fb0f0:	f003 f850 	bl	23fe194 <_Z10interruptsv>
  }

  if (position != lastpos)
 23fb0f4:	4c5b      	ldr	r4, [pc, #364]	; (23fb264 <loop+0x2e4>)
 23fb0f6:	682b      	ldr	r3, [r5, #0]
 23fb0f8:	6822      	ldr	r2, [r4, #0]
 23fb0fa:	4293      	cmp	r3, r2
 23fb0fc:	d00b      	beq.n	23fb116 <loop+0x196>
  {
    // Serial.printf("Encoder position %i\n", position);
    brightness = position * (MAXBRITE / MAXENCPOS);
 23fb0fe:	4a5a      	ldr	r2, [pc, #360]	; (23fb268 <loop+0x2e8>)
 23fb100:	005b      	lsls	r3, r3, #1
 23fb102:	6013      	str	r3, [r2, #0]
    volume = position * (MAXVOLUME / MAXENCPOS);
 23fb104:	2200      	movs	r2, #0
 23fb106:	4b54      	ldr	r3, [pc, #336]	; (23fb258 <loop+0x2d8>)
    // Serial.printf("Turning on Hue# %i\n", hue);
    //setHue(HUES[hue], onOff, HueRainbow[color % 7], brightness, SATURATION);
    duckiePlayer.volume(volume);
 23fb108:	2100      	movs	r1, #0
 23fb10a:	4852      	ldr	r0, [pc, #328]	; (23fb254 <loop+0x2d4>)
    volume = position * (MAXVOLUME / MAXENCPOS);
 23fb10c:	601a      	str	r2, [r3, #0]
    duckiePlayer.volume(volume);
 23fb10e:	f000 fa83 	bl	23fb618 <_ZN19DFRobotDFPlayerMini6volumeEh>
    lastpos = position;
 23fb112:	682b      	ldr	r3, [r5, #0]
 23fb114:	6023      	str	r3, [r4, #0]
  //       Serial.printf("Turning off Wemo# %i\n", wemo);
  //       wemoWrite(WEMOS[wemo], LOW);
  //     }
  //   }
  // }
 23fb116:	b003      	add	sp, #12
 23fb118:	ecbd 8b02 	vpop	{d8}
 23fb11c:	e8bd 83f0 	ldmia.w	sp!, {r4, r5, r6, r7, r8, r9, pc}
  && !_GLIBCXX_NO_OBSOLETE_ISINF_ISNAN_DYNAMIC
  using ::isinf;
#else
  constexpr bool
  isinf(double __x)
  { return __builtin_isinf(__x); }
 23fb120:	f025 4700 	bic.w	r7, r5, #2147483648	; 0x80000000
        if (std::isinf(number)) {
 23fb124:	f04f 32ff 	mov.w	r2, #4294967295
 23fb128:	4620      	mov	r0, r4
 23fb12a:	4639      	mov	r1, r7
 23fb12c:	4b4f      	ldr	r3, [pc, #316]	; (23fb26c <loop+0x2ec>)
 23fb12e:	f7ff fc01 	bl	23fa934 <__aeabi_dcmpun>
 23fb132:	b948      	cbnz	r0, 23fb148 <loop+0x1c8>
 23fb134:	f04f 32ff 	mov.w	r2, #4294967295
 23fb138:	4620      	mov	r0, r4
 23fb13a:	4639      	mov	r1, r7
 23fb13c:	4b4b      	ldr	r3, [pc, #300]	; (23fb26c <loop+0x2ec>)
 23fb13e:	f7ff fbdb 	bl	23fa8f8 <__aeabi_dcmple>
 23fb142:	b908      	cbnz	r0, 23fb148 <loop+0x1c8>
            return print("inf");
 23fb144:	494a      	ldr	r1, [pc, #296]	; (23fb270 <loop+0x2f0>)
 23fb146:	e752      	b.n	23fafee <loop+0x6e>
        if (number > 4294967040.0) {
 23fb148:	eddf 7a4a 	vldr	s15, [pc, #296]	; 23fb274 <loop+0x2f4>
 23fb14c:	eeb4 8ae7 	vcmpe.f32	s16, s15
 23fb150:	eef1 fa10 	vmrs	APSR_nzcv, fpscr
 23fb154:	dd01      	ble.n	23fb15a <loop+0x1da>
            return print ("ovf"); // constant determined empirically
 23fb156:	4948      	ldr	r1, [pc, #288]	; (23fb278 <loop+0x2f8>)
 23fb158:	e749      	b.n	23fafee <loop+0x6e>
        if (number <-4294967040.0) {
 23fb15a:	eddf 7a48 	vldr	s15, [pc, #288]	; 23fb27c <loop+0x2fc>
 23fb15e:	eeb4 8ae7 	vcmpe.f32	s16, s15
 23fb162:	eef1 fa10 	vmrs	APSR_nzcv, fpscr
 23fb166:	d4f6      	bmi.n	23fb156 <loop+0x1d6>
        if (number < 0.0) {
 23fb168:	eeb5 8ac0 	vcmpe.f32	s16, #0.0
 23fb16c:	eef1 fa10 	vmrs	APSR_nzcv, fpscr
 23fb170:	d506      	bpl.n	23fb180 <loop+0x200>
            n += print('-');
 23fb172:	212d      	movs	r1, #45	; 0x2d
 23fb174:	482e      	ldr	r0, [pc, #184]	; (23fb230 <loop+0x2b0>)
 23fb176:	f002 fd43 	bl	23fdc00 <_ZN5Print5printEc>
            number = -number;
 23fb17a:	46a0      	mov	r8, r4
 23fb17c:	f105 4900 	add.w	r9, r5, #2147483648	; 0x80000000
        number += rounding;
 23fb180:	a325      	add	r3, pc, #148	; (adr r3, 23fb218 <loop+0x298>)
 23fb182:	e9d3 2300 	ldrd	r2, r3, [r3]
 23fb186:	4640      	mov	r0, r8
 23fb188:	4649      	mov	r1, r9
 23fb18a:	f7fe ff83 	bl	23fa094 <__adddf3>
 23fb18e:	460d      	mov	r5, r1
 23fb190:	4604      	mov	r4, r0
        unsigned long int_part = (unsigned long)number;
 23fb192:	f7ff fc0d 	bl	23fa9b0 <__aeabi_d2uiz>
 23fb196:	4606      	mov	r6, r0
        double remainder = number - (double)int_part;
 23fb198:	f7ff f8b8 	bl	23fa30c <__aeabi_ui2d>
 23fb19c:	460b      	mov	r3, r1
 23fb19e:	4602      	mov	r2, r0
 23fb1a0:	4629      	mov	r1, r5
 23fb1a2:	4620      	mov	r0, r4
 23fb1a4:	f7fe ff74 	bl	23fa090 <__aeabi_dsub>
 23fb1a8:	4604      	mov	r4, r0
 23fb1aa:	460d      	mov	r5, r1
        return printNumber(val, base) + t;
 23fb1ac:	220a      	movs	r2, #10
 23fb1ae:	4631      	mov	r1, r6
 23fb1b0:	481f      	ldr	r0, [pc, #124]	; (23fb230 <loop+0x2b0>)
 23fb1b2:	f002 fd3e 	bl	23fdc32 <_ZN5Print11printNumberEmh>
            n += print(".");
 23fb1b6:	4932      	ldr	r1, [pc, #200]	; (23fb280 <loop+0x300>)
 23fb1b8:	481d      	ldr	r0, [pc, #116]	; (23fb230 <loop+0x2b0>)
 23fb1ba:	f002 fd1d 	bl	23fdbf8 <_ZN5Print5printEPKc>
            remainder *= 10.0;
 23fb1be:	4b31      	ldr	r3, [pc, #196]	; (23fb284 <loop+0x304>)
 23fb1c0:	2200      	movs	r2, #0
 23fb1c2:	4620      	mov	r0, r4
 23fb1c4:	4629      	mov	r1, r5
 23fb1c6:	f7ff f91b 	bl	23fa400 <__aeabi_dmul>
 23fb1ca:	460f      	mov	r7, r1
 23fb1cc:	4606      	mov	r6, r0
            int toPrint = int(remainder);
 23fb1ce:	f7ff fbc7 	bl	23fa960 <__aeabi_d2iz>
 23fb1d2:	4604      	mov	r4, r0
inline size_t Print::print(T n, int base)
 23fb1d4:	220a      	movs	r2, #10
 23fb1d6:	4601      	mov	r1, r0
 23fb1d8:	4815      	ldr	r0, [pc, #84]	; (23fb230 <loop+0x2b0>)
 23fb1da:	f7ff fcc5 	bl	23fab68 <_ZN5Print5printIiLi0EEEjT_i.part.0.isra.0>
            remainder -= toPrint;
 23fb1de:	4620      	mov	r0, r4
 23fb1e0:	f7ff f8a4 	bl	23fa32c <__aeabi_i2d>
 23fb1e4:	4602      	mov	r2, r0
 23fb1e6:	460b      	mov	r3, r1
 23fb1e8:	4630      	mov	r0, r6
 23fb1ea:	4639      	mov	r1, r7
 23fb1ec:	f7fe ff50 	bl	23fa090 <__aeabi_dsub>
            remainder *= 10.0;
 23fb1f0:	2200      	movs	r2, #0
 23fb1f2:	4b24      	ldr	r3, [pc, #144]	; (23fb284 <loop+0x304>)
 23fb1f4:	f7ff f904 	bl	23fa400 <__aeabi_dmul>
            int toPrint = int(remainder);
 23fb1f8:	f7ff fbb2 	bl	23fa960 <__aeabi_d2iz>
 23fb1fc:	220a      	movs	r2, #10
 23fb1fe:	4601      	mov	r1, r0
 23fb200:	480b      	ldr	r0, [pc, #44]	; (23fb230 <loop+0x2b0>)
 23fb202:	f7ff fcb1 	bl	23fab68 <_ZN5Print5printIiLi0EEEjT_i.part.0.isra.0>
        while (digits-- > 0) {
 23fb206:	e6f5      	b.n	23faff4 <loop+0x74>
        _buttonState = !_buttonState;
 23fb208:	fab0 f080 	clz	r0, r0
 23fb20c:	0940      	lsrs	r0, r0, #5
 23fb20e:	e72f      	b.n	23fb070 <loop+0xf0>
      duckiePlayer.stop();
 23fb210:	4810      	ldr	r0, [pc, #64]	; (23fb254 <loop+0x2d4>)
 23fb212:	f000 fa28 	bl	23fb666 <_ZN19DFRobotDFPlayerMini4stopEv>
 23fb216:	e749      	b.n	23fb0ac <loop+0x12c>
 23fb218:	47ae147b 	.word	0x47ae147b
 23fb21c:	3f747ae1 	.word	0x3f747ae1
 23fb220:	1007ad3c 	.word	0x1007ad3c
 23fb224:	1007ae08 	.word	0x1007ae08
 23fb228:	1007adc4 	.word	0x1007adc4
 23fb22c:	1007acf4 	.word	0x1007acf4
 23fb230:	1007ad40 	.word	0x1007ad40
 23fb234:	023ff3b1 	.word	0x023ff3b1
 23fb238:	023ff3b8 	.word	0x023ff3b8
 23fb23c:	023ff3c4 	.word	0x023ff3c4
 23fb240:	1007a7fc 	.word	0x1007a7fc
 23fb244:	023ff5d0 	.word	0x023ff5d0
 23fb248:	1007add0 	.word	0x1007add0
 23fb24c:	1007adec 	.word	0x1007adec
 23fb250:	1007adcc 	.word	0x1007adcc
 23fb254:	1007ad64 	.word	0x1007ad64
 23fb258:	1007ae0c 	.word	0x1007ae0c
 23fb25c:	1007ad8c 	.word	0x1007ad8c
 23fb260:	1007ade8 	.word	0x1007ade8
 23fb264:	1007adc8 	.word	0x1007adc8
 23fb268:	1007ad38 	.word	0x1007ad38
 23fb26c:	7fefffff 	.word	0x7fefffff
 23fb270:	023ff3bc 	.word	0x023ff3bc
 23fb274:	4f7fffff 	.word	0x4f7fffff
 23fb278:	023ff3c0 	.word	0x023ff3c0
 23fb27c:	cf7fffff 	.word	0xcf7fffff
 23fb280:	023ff314 	.word	0x023ff314
 23fb284:	40240000 	.word	0x40240000

023fb288 <_GLOBAL__sub_I_hueOn>:
 23fb288:	b510      	push	{r4, lr}

//  Hue variables
bool hueOn;  // on/off
int hueBri;  // brightness value
long hueHue;  // hue value
String hueCmd;  // Hue command
 23fb28a:	4941      	ldr	r1, [pc, #260]	; (23fb390 <_GLOBAL__sub_I_hueOn+0x108>)
 23fb28c:	4841      	ldr	r0, [pc, #260]	; (23fb394 <_GLOBAL__sub_I_hueOn+0x10c>)
 23fb28e:	f002 fc6f 	bl	23fdb70 <_ZN6StringC1EPK19__FlashStringHelper>
int HueYellow = 10000;
int HueGreen = 22500;
int HueBlue = 45000;
int HueIndigo = 47500;
int HueViolet = 50000;
int HueRainbow[] = {HueRed, HueOrange, HueYellow, HueGreen, HueBlue, HueIndigo, HueViolet};
 23fb292:	4b41      	ldr	r3, [pc, #260]	; (23fb398 <_GLOBAL__sub_I_hueOn+0x110>)
 23fb294:	4c41      	ldr	r4, [pc, #260]	; (23fb39c <_GLOBAL__sub_I_hueOn+0x114>)
 23fb296:	681b      	ldr	r3, [r3, #0]

TCPClient HueClient;
 23fb298:	4841      	ldr	r0, [pc, #260]	; (23fb3a0 <_GLOBAL__sub_I_hueOn+0x118>)
int HueRainbow[] = {HueRed, HueOrange, HueYellow, HueGreen, HueBlue, HueIndigo, HueViolet};
 23fb29a:	6023      	str	r3, [r4, #0]
 23fb29c:	4b41      	ldr	r3, [pc, #260]	; (23fb3a4 <_GLOBAL__sub_I_hueOn+0x11c>)
 23fb29e:	681b      	ldr	r3, [r3, #0]
 23fb2a0:	6063      	str	r3, [r4, #4]
 23fb2a2:	4b41      	ldr	r3, [pc, #260]	; (23fb3a8 <_GLOBAL__sub_I_hueOn+0x120>)
 23fb2a4:	681b      	ldr	r3, [r3, #0]
 23fb2a6:	60a3      	str	r3, [r4, #8]
 23fb2a8:	4b40      	ldr	r3, [pc, #256]	; (23fb3ac <_GLOBAL__sub_I_hueOn+0x124>)
 23fb2aa:	681b      	ldr	r3, [r3, #0]
 23fb2ac:	60e3      	str	r3, [r4, #12]
 23fb2ae:	4b40      	ldr	r3, [pc, #256]	; (23fb3b0 <_GLOBAL__sub_I_hueOn+0x128>)
 23fb2b0:	681b      	ldr	r3, [r3, #0]
 23fb2b2:	6123      	str	r3, [r4, #16]
 23fb2b4:	4b3f      	ldr	r3, [pc, #252]	; (23fb3b4 <_GLOBAL__sub_I_hueOn+0x12c>)
 23fb2b6:	681b      	ldr	r3, [r3, #0]
 23fb2b8:	6163      	str	r3, [r4, #20]
 23fb2ba:	4b3f      	ldr	r3, [pc, #252]	; (23fb3b8 <_GLOBAL__sub_I_hueOn+0x130>)
 23fb2bc:	681b      	ldr	r3, [r3, #0]
 23fb2be:	61a3      	str	r3, [r4, #24]
TCPClient HueClient;
 23fb2c0:	f003 fb1a 	bl	23fe8f8 <_ZN9TCPClientC1Ev>
 *  Date:     06-FEB-2022
 */

#include "application.h"

TCPClient WemoClient;
 23fb2c4:	483d      	ldr	r0, [pc, #244]	; (23fb3bc <_GLOBAL__sub_I_hueOn+0x134>)
 23fb2c6:	f003 fb17 	bl	23fe8f8 <_ZN9TCPClientC1Ev>
              error_(SYSTEM_ERROR_NONE) {
 23fb2ca:	2200      	movs	r2, #0
 23fb2cc:	4b3c      	ldr	r3, [pc, #240]	; (23fb3c0 <_GLOBAL__sub_I_hueOn+0x138>)
        set_system_mode(mode);
 23fb2ce:	2002      	movs	r0, #2
              error_(SYSTEM_ERROR_NONE) {
 23fb2d0:	e9c3 2200 	strd	r2, r2, [r3]
    SleepResult() {}
 23fb2d4:	f5a2 3280 	sub.w	r2, r2, #65536	; 0x10000
 23fb2d8:	609a      	str	r2, [r3, #8]
        set_system_mode(mode);
 23fb2da:	f002 f8c1 	bl	23fd460 <set_system_mode>
int color = rainbow[0], hue = HueRainbow[color % 7];
 23fb2de:	4b39      	ldr	r3, [pc, #228]	; (23fb3c4 <_GLOBAL__sub_I_hueOn+0x13c>)
 23fb2e0:	681a      	ldr	r2, [r3, #0]
 23fb2e2:	2307      	movs	r3, #7
 23fb2e4:	fb92 f3f3 	sdiv	r3, r2, r3
 23fb2e8:	ebc3 03c3 	rsb	r3, r3, r3, lsl #3
 23fb2ec:	1ad3      	subs	r3, r2, r3
 23fb2ee:	f854 2023 	ldr.w	r2, [r4, r3, lsl #2]
 23fb2f2:	4b35      	ldr	r3, [pc, #212]	; (23fb3c8 <_GLOBAL__sub_I_hueOn+0x140>)

template <hal_spi_interface_t Interface>
class SpiProxy {
public:
    static SPIClass& instance() {
        static SPIClass instance(Interface);
 23fb2f4:	4c35      	ldr	r4, [pc, #212]	; (23fb3cc <_GLOBAL__sub_I_hueOn+0x144>)
 23fb2f6:	601a      	str	r2, [r3, #0]
 23fb2f8:	e8d4 3f8f 	ldab	r3, [r4]
 23fb2fc:	07db      	lsls	r3, r3, #31
 23fb2fe:	d40a      	bmi.n	23fb316 <_GLOBAL__sub_I_hueOn+0x8e>
 23fb300:	4620      	mov	r0, r4
 23fb302:	f7ff fbb7 	bl	23faa74 <__cxa_guard_acquire>
 23fb306:	b130      	cbz	r0, 23fb316 <_GLOBAL__sub_I_hueOn+0x8e>
 23fb308:	2101      	movs	r1, #1
 23fb30a:	4831      	ldr	r0, [pc, #196]	; (23fb3d0 <_GLOBAL__sub_I_hueOn+0x148>)
 23fb30c:	f002 fa90 	bl	23fd830 <_ZN8SPIClassC1E19hal_spi_interface_t>
 23fb310:	4620      	mov	r0, r4
 23fb312:	f7ff fbb4 	bl	23faa7e <__cxa_guard_release>
Adafruit_NeoPixel pixel(PIXELCOUNT, SPI1, WS2812B);
 23fb316:	4a2e      	ldr	r2, [pc, #184]	; (23fb3d0 <_GLOBAL__sub_I_hueOn+0x148>)
 23fb318:	2302      	movs	r3, #2
 23fb31a:	210c      	movs	r1, #12
 23fb31c:	482d      	ldr	r0, [pc, #180]	; (23fb3d4 <_GLOBAL__sub_I_hueOn+0x14c>)
 23fb31e:	f000 fd42 	bl	23fbda6 <_ZN17Adafruit_NeoPixelC1EtR8SPIClassh>
Adafruit_SSD1306 display(OLED_RESET);
 23fb322:	f04f 31ff 	mov.w	r1, #4294967295
 23fb326:	482c      	ldr	r0, [pc, #176]	; (23fb3d8 <_GLOBAL__sub_I_hueOn+0x150>)
 23fb328:	f001 f8ec 	bl	23fc504 <_ZN16Adafruit_SSD1306C1Ea>
Adafruit_BME280 bme; // I2C
 23fb32c:	482b      	ldr	r0, [pc, #172]	; (23fb3dc <_GLOBAL__sub_I_hueOn+0x154>)
 23fb32e:	f000 f9cf 	bl	23fb6d0 <_ZN15Adafruit_BME280C1Ev>
      _pullUp = pullUp;
 23fb332:	2400      	movs	r4, #0
      _buttonPin = buttonPin;
 23fb334:	2103      	movs	r1, #3
 23fb336:	4b2a      	ldr	r3, [pc, #168]	; (23fb3e0 <_GLOBAL__sub_I_hueOn+0x158>)
        pinMode(_buttonPin,INPUT_PULLDOWN);       
 23fb338:	4608      	mov	r0, r1
      _buttonPin = buttonPin;
 23fb33a:	6019      	str	r1, [r3, #0]
      _pullUp = pullUp;
 23fb33c:	721c      	strb	r4, [r3, #8]
        pinMode(_buttonPin,INPUT_PULLDOWN);       
 23fb33e:	f003 fc39 	bl	23febb4 <pinMode>
      _buttonPin = buttonPin;
 23fb342:	200d      	movs	r0, #13
 23fb344:	4b27      	ldr	r3, [pc, #156]	; (23fb3e4 <_GLOBAL__sub_I_hueOn+0x15c>)
        pinMode(_buttonPin,INPUT_PULLDOWN);       
 23fb346:	2103      	movs	r1, #3
      _buttonPin = buttonPin;
 23fb348:	6018      	str	r0, [r3, #0]
      _pullUp = pullUp;
 23fb34a:	721c      	strb	r4, [r3, #8]
        pinMode(_buttonPin,INPUT_PULLDOWN);       
 23fb34c:	f003 fc32 	bl	23febb4 <pinMode>
      _buttonPin = buttonPin;
 23fb350:	200f      	movs	r0, #15
 23fb352:	4b25      	ldr	r3, [pc, #148]	; (23fb3e8 <_GLOBAL__sub_I_hueOn+0x160>)
        pinMode(_buttonPin,INPUT_PULLDOWN);       
 23fb354:	2103      	movs	r1, #3
      _buttonPin = buttonPin;
 23fb356:	6018      	str	r0, [r3, #0]
      _pullUp = pullUp;
 23fb358:	721c      	strb	r4, [r3, #8]
        pinMode(_buttonPin,INPUT_PULLDOWN);       
 23fb35a:	f003 fc2b 	bl	23febb4 <pinMode>
Encoder encoder(PINA, PINB);
 23fb35e:	2205      	movs	r2, #5
 23fb360:	2104      	movs	r1, #4
 23fb362:	4822      	ldr	r0, [pc, #136]	; (23fb3ec <_GLOBAL__sub_I_hueOn+0x164>)
 23fb364:	f7ff fcaa 	bl	23facbc <_ZN7EncoderC1Ett>
#define Stack_ACK 4
#define Stack_Parameter 5
#define Stack_CheckSum 7
#define Stack_End 9

class DFRobotDFPlayerMini {
 23fb368:	f44f 72fa 	mov.w	r2, #500	; 0x1f4
 23fb36c:	4b20      	ldr	r3, [pc, #128]	; (23fb3f0 <_GLOBAL__sub_I_hueOn+0x168>)
 23fb36e:	609a      	str	r2, [r3, #8]
 23fb370:	4a20      	ldr	r2, [pc, #128]	; (23fb3f4 <_GLOBAL__sub_I_hueOn+0x16c>)
 23fb372:	84dc      	strh	r4, [r3, #38]	; 0x26
 23fb374:	f8d2 1002 	ldr.w	r1, [r2, #2]
 23fb378:	f8c3 1016 	str.w	r1, [r3, #22]
 23fb37c:	f8d2 1006 	ldr.w	r1, [r2, #6]
 23fb380:	8952      	ldrh	r2, [r2, #10]
 23fb382:	f8c3 101a 	str.w	r1, [r3, #26]
 23fb386:	83da      	strh	r2, [r3, #30]
 23fb388:	f44f 7200 	mov.w	r2, #512	; 0x200
 23fb38c:	841a      	strh	r2, [r3, #32]
 23fb38e:	bd10      	pop	{r4, pc}
 23fb390:	023ff318 	.word	0x023ff318
 23fb394:	1007adb4 	.word	0x1007adb4
 23fb398:	1007acc8 	.word	0x1007acc8
 23fb39c:	1007acac 	.word	0x1007acac
 23fb3a0:	1007ac90 	.word	0x1007ac90
 23fb3a4:	1007a7f0 	.word	0x1007a7f0
 23fb3a8:	1007a7f8 	.word	0x1007a7f8
 23fb3ac:	1007a7e8 	.word	0x1007a7e8
 23fb3b0:	1007a7e4 	.word	0x1007a7e4
 23fb3b4:	1007a7ec 	.word	0x1007a7ec
 23fb3b8:	1007a7f4 	.word	0x1007a7f4
 23fb3bc:	1007acd8 	.word	0x1007acd8
 23fb3c0:	1007accc 	.word	0x1007accc
 23fb3c4:	1007a7fc 	.word	0x1007a7fc
 23fb3c8:	1007adb0 	.word	0x1007adb0
 23fb3cc:	1007ac7c 	.word	0x1007ac7c
 23fb3d0:	1007ac80 	.word	0x1007ac80
 23fb3d4:	1007add0 	.word	0x1007add0
 23fb3d8:	1007ad40 	.word	0x1007ad40
 23fb3dc:	1007acf4 	.word	0x1007acf4
 23fb3e0:	1007adec 	.word	0x1007adec
 23fb3e4:	1007adf8 	.word	0x1007adf8
 23fb3e8:	1007ada4 	.word	0x1007ada4
 23fb3ec:	1007ad8c 	.word	0x1007ad8c
 23fb3f0:	1007ad64 	.word	0x1007ad64
 23fb3f4:	023ff204 	.word	0x023ff204

023fb3f8 <_ZN19DFRobotDFPlayerMini17calculateCheckSumEPh>:
  *array = (uint8_t)(value>>8);
  *(array+1) = (uint8_t)(value);
}

uint16_t DFRobotDFPlayerMini::calculateCheckSum(uint8_t *buffer){
  uint16_t sum = 0;
 23fb3f8:	2000      	movs	r0, #0
 23fb3fa:	1d8b      	adds	r3, r1, #6
  for (int i=Stack_Version; i<Stack_CheckSum; i++) {
    sum += buffer[i];
 23fb3fc:	f811 2f01 	ldrb.w	r2, [r1, #1]!
 23fb400:	4410      	add	r0, r2
  for (int i=Stack_Version; i<Stack_CheckSum; i++) {
 23fb402:	4299      	cmp	r1, r3
    sum += buffer[i];
 23fb404:	b280      	uxth	r0, r0
  for (int i=Stack_Version; i<Stack_CheckSum; i++) {
 23fb406:	d1f9      	bne.n	23fb3fc <_ZN19DFRobotDFPlayerMini17calculateCheckSumEPh+0x4>
  }
  return -sum;
 23fb408:	4240      	negs	r0, r0
}
 23fb40a:	b280      	uxth	r0, r0
 23fb40c:	4770      	bx	lr

023fb40e <_ZN19DFRobotDFPlayerMini10parseStackEv>:
      break;
  }
}

uint16_t DFRobotDFPlayerMini::arrayToUint16(uint8_t *array){
  uint16_t value = *array;
 23fb40e:	7c41      	ldrb	r1, [r0, #17]
  value <<=8;
  value += *(array+1);
 23fb410:	7c83      	ldrb	r3, [r0, #18]
  _handleCommand = *(_received + Stack_Command);
 23fb412:	7bc2      	ldrb	r2, [r0, #15]
  value += *(array+1);
 23fb414:	eb03 2301 	add.w	r3, r3, r1, lsl #8
  _handleCommand = *(_received + Stack_Command);
 23fb418:	f880 2023 	strb.w	r2, [r0, #35]	; 0x23
  value += *(array+1);
 23fb41c:	b29b      	uxth	r3, r3
  return value;
 23fb41e:	3a3a      	subs	r2, #58	; 0x3a
  _handleParameter =  arrayToUint16(_received + Stack_Parameter);
 23fb420:	8483      	strh	r3, [r0, #36]	; 0x24
  switch (_handleCommand) {
 23fb422:	2a15      	cmp	r2, #21
 23fb424:	d834      	bhi.n	23fb490 <_ZN19DFRobotDFPlayerMini10parseStackEv+0x82>
 23fb426:	e8df f002 	tbb	[pc, r2]
 23fb42a:	231c      	.short	0x231c
 23fb42c:	15110b11 	.word	0x15110b11
 23fb430:	11112f2a 	.word	0x11112f2a
 23fb434:	11111111 	.word	0x11111111
 23fb438:	11331111 	.word	0x11331111
 23fb43c:	11111111 	.word	0x11111111
  _receivedIndex = 0;
 23fb440:	2300      	movs	r3, #0
 23fb442:	f880 3020 	strb.w	r3, [r0, #32]
  _handleType = type;
 23fb446:	2305      	movs	r3, #5
 23fb448:	f880 3022 	strb.w	r3, [r0, #34]	; 0x22
  _isAvailable = true;
 23fb44c:	2301      	movs	r3, #1
 23fb44e:	f880 3026 	strb.w	r3, [r0, #38]	; 0x26
  return _isAvailable;
 23fb452:	4770      	bx	lr
      if (_handleParameter & 0x02) {
 23fb454:	0799      	lsls	r1, r3, #30
 23fb456:	d524      	bpl.n	23fb4a2 <_ZN19DFRobotDFPlayerMini10parseStackEv+0x94>
  _receivedIndex = 0;
 23fb458:	2300      	movs	r3, #0
 23fb45a:	f880 3020 	strb.w	r3, [r0, #32]
  _handleType = type;
 23fb45e:	2304      	movs	r3, #4
 23fb460:	e7f2      	b.n	23fb448 <_ZN19DFRobotDFPlayerMini10parseStackEv+0x3a>
      if (_handleParameter & 0x02) {
 23fb462:	079a      	lsls	r2, r3, #30
 23fb464:	d51d      	bpl.n	23fb4a2 <_ZN19DFRobotDFPlayerMini10parseStackEv+0x94>
  _receivedIndex = 0;
 23fb466:	2300      	movs	r3, #0
 23fb468:	f880 3020 	strb.w	r3, [r0, #32]
  _handleType = type;
 23fb46c:	2302      	movs	r3, #2
 23fb46e:	e7eb      	b.n	23fb448 <_ZN19DFRobotDFPlayerMini10parseStackEv+0x3a>
      if (_handleParameter & 0x02) {
 23fb470:	079b      	lsls	r3, r3, #30
 23fb472:	d516      	bpl.n	23fb4a2 <_ZN19DFRobotDFPlayerMini10parseStackEv+0x94>
  _receivedIndex = 0;
 23fb474:	2300      	movs	r3, #0
 23fb476:	f880 3020 	strb.w	r3, [r0, #32]
  _handleType = type;
 23fb47a:	2303      	movs	r3, #3
 23fb47c:	e7e4      	b.n	23fb448 <_ZN19DFRobotDFPlayerMini10parseStackEv+0x3a>
  _receivedIndex = 0;
 23fb47e:	2300      	movs	r3, #0
 23fb480:	f880 3020 	strb.w	r3, [r0, #32]
  _handleType = type;
 23fb484:	2306      	movs	r3, #6
 23fb486:	e7df      	b.n	23fb448 <_ZN19DFRobotDFPlayerMini10parseStackEv+0x3a>
      _isSending = false;
 23fb488:	2300      	movs	r3, #0
 23fb48a:	f880 3027 	strb.w	r3, [r0, #39]	; 0x27
      break;
 23fb48e:	4770      	bx	lr
  _receivedIndex = 0;
 23fb490:	2300      	movs	r3, #0
 23fb492:	f880 3020 	strb.w	r3, [r0, #32]
  _handleType = type;
 23fb496:	2301      	movs	r3, #1
 23fb498:	f880 3022 	strb.w	r3, [r0, #34]	; 0x22
  _handleParameter = parameter;
 23fb49c:	f44f 3380 	mov.w	r3, #65536	; 0x10000
 23fb4a0:	6243      	str	r3, [r0, #36]	; 0x24
}
 23fb4a2:	4770      	bx	lr

023fb4a4 <_ZN19DFRobotDFPlayerMini13validateStackEv>:
}

bool DFRobotDFPlayerMini::validateStack(){
 23fb4a4:	b510      	push	{r4, lr}
 23fb4a6:	4604      	mov	r4, r0
  return calculateCheckSum(_received) == arrayToUint16(_received+Stack_CheckSum);
 23fb4a8:	f100 010c 	add.w	r1, r0, #12
 23fb4ac:	f7ff ffa4 	bl	23fb3f8 <_ZN19DFRobotDFPlayerMini17calculateCheckSumEPh>
  uint16_t value = *array;
 23fb4b0:	7ce2      	ldrb	r2, [r4, #19]
  value += *(array+1);
 23fb4b2:	7d23      	ldrb	r3, [r4, #20]
 23fb4b4:	eb03 2302 	add.w	r3, r3, r2, lsl #8
  return calculateCheckSum(_received) == arrayToUint16(_received+Stack_CheckSum);
 23fb4b8:	b29b      	uxth	r3, r3
}
 23fb4ba:	1a1b      	subs	r3, r3, r0
 23fb4bc:	4258      	negs	r0, r3
 23fb4be:	4158      	adcs	r0, r3
 23fb4c0:	bd10      	pop	{r4, pc}

023fb4c2 <_ZN19DFRobotDFPlayerMini9availableEv>:

bool DFRobotDFPlayerMini::available(){
 23fb4c2:	b538      	push	{r3, r4, r5, lr}
 23fb4c4:	4604      	mov	r4, r0
  while (_serial->available()) {
 23fb4c6:	6820      	ldr	r0, [r4, #0]
 23fb4c8:	6803      	ldr	r3, [r0, #0]
 23fb4ca:	691b      	ldr	r3, [r3, #16]
 23fb4cc:	4798      	blx	r3
 23fb4ce:	4605      	mov	r5, r0
 23fb4d0:	2800      	cmp	r0, #0
 23fb4d2:	d043      	beq.n	23fb55c <_ZN19DFRobotDFPlayerMini9availableEv+0x9a>
    if (_receivedIndex == 0) {
      _received[Stack_Header] = _serial->read();
 23fb4d4:	6820      	ldr	r0, [r4, #0]
    if (_receivedIndex == 0) {
 23fb4d6:	f894 5020 	ldrb.w	r5, [r4, #32]
      _received[Stack_Header] = _serial->read();
 23fb4da:	6803      	ldr	r3, [r0, #0]
 23fb4dc:	695b      	ldr	r3, [r3, #20]
    if (_receivedIndex == 0) {
 23fb4de:	b965      	cbnz	r5, 23fb4fa <_ZN19DFRobotDFPlayerMini9availableEv+0x38>
      _received[Stack_Header] = _serial->read();
 23fb4e0:	4798      	blx	r3
 23fb4e2:	b2c0      	uxtb	r0, r0
#ifdef _DEBUG
      Serial.print(F("received:"));
      Serial.print(_received[_receivedIndex],HEX);
      Serial.print(F(" "));
#endif
      if (_received[Stack_Header] == 0x7E) {
 23fb4e4:	287e      	cmp	r0, #126	; 0x7e
      _received[Stack_Header] = _serial->read();
 23fb4e6:	7320      	strb	r0, [r4, #12]
      if (_received[Stack_Header] == 0x7E) {
 23fb4e8:	d1ed      	bne.n	23fb4c6 <_ZN19DFRobotDFPlayerMini9availableEv+0x4>
        _isAvailable = false;
        _receivedIndex ++;
 23fb4ea:	f894 3020 	ldrb.w	r3, [r4, #32]
        _isAvailable = false;
 23fb4ee:	f884 5026 	strb.w	r5, [r4, #38]	; 0x26
          }
          break;
        default:
          break;
      }
      _receivedIndex++;
 23fb4f2:	3301      	adds	r3, #1
 23fb4f4:	f884 3020 	strb.w	r3, [r4, #32]
 23fb4f8:	e7e5      	b.n	23fb4c6 <_ZN19DFRobotDFPlayerMini9availableEv+0x4>
      _received[_receivedIndex] = _serial->read();
 23fb4fa:	4798      	blx	r3
 23fb4fc:	f894 3020 	ldrb.w	r3, [r4, #32]
 23fb500:	b2c0      	uxtb	r0, r0
 23fb502:	18e2      	adds	r2, r4, r3
      switch (_receivedIndex) {
 23fb504:	2b02      	cmp	r3, #2
      _received[_receivedIndex] = _serial->read();
 23fb506:	7310      	strb	r0, [r2, #12]
      switch (_receivedIndex) {
 23fb508:	d00f      	beq.n	23fb52a <_ZN19DFRobotDFPlayerMini9availableEv+0x68>
 23fb50a:	2b09      	cmp	r3, #9
 23fb50c:	d00f      	beq.n	23fb52e <_ZN19DFRobotDFPlayerMini9availableEv+0x6c>
 23fb50e:	2b01      	cmp	r3, #1
 23fb510:	d1ef      	bne.n	23fb4f2 <_ZN19DFRobotDFPlayerMini9availableEv+0x30>
          if (_received[_receivedIndex] != 0xFF) {
 23fb512:	28ff      	cmp	r0, #255	; 0xff
 23fb514:	d0ed      	beq.n	23fb4f2 <_ZN19DFRobotDFPlayerMini9availableEv+0x30>
  _handleType = type;
 23fb516:	2301      	movs	r3, #1
  _receivedIndex = 0;
 23fb518:	2000      	movs	r0, #0
  _handleType = type;
 23fb51a:	f884 3022 	strb.w	r3, [r4, #34]	; 0x22
  _handleParameter = parameter;
 23fb51e:	f44f 3380 	mov.w	r3, #65536	; 0x10000
  _receivedIndex = 0;
 23fb522:	f884 0020 	strb.w	r0, [r4, #32]
  _handleParameter = parameter;
 23fb526:	6263      	str	r3, [r4, #36]	; 0x24
  if (_isSending && (millis()-_timeOutTimer>=_timeOutDuration)) {
    return handleError(TimeOut);
  }
  
  return _isAvailable;
}
 23fb528:	bd38      	pop	{r3, r4, r5, pc}
          if (_received[_receivedIndex] != 0x06) {
 23fb52a:	2806      	cmp	r0, #6
 23fb52c:	e7f2      	b.n	23fb514 <_ZN19DFRobotDFPlayerMini9availableEv+0x52>
          if (_received[_receivedIndex] != 0xEF) {
 23fb52e:	28ef      	cmp	r0, #239	; 0xef
 23fb530:	d1f1      	bne.n	23fb516 <_ZN19DFRobotDFPlayerMini9availableEv+0x54>
            if (validateStack()) {
 23fb532:	4620      	mov	r0, r4
 23fb534:	f7ff ffb6 	bl	23fb4a4 <_ZN19DFRobotDFPlayerMini13validateStackEv>
 23fb538:	2800      	cmp	r0, #0
 23fb53a:	d0ec      	beq.n	23fb516 <_ZN19DFRobotDFPlayerMini9availableEv+0x54>
              _receivedIndex = 0;
 23fb53c:	2300      	movs	r3, #0
              parseStack();
 23fb53e:	4620      	mov	r0, r4
              _receivedIndex = 0;
 23fb540:	f884 3020 	strb.w	r3, [r4, #32]
              parseStack();
 23fb544:	f7ff ff63 	bl	23fb40e <_ZN19DFRobotDFPlayerMini10parseStackEv>
              if (_isAvailable && !_sending[Stack_ACK]) {
 23fb548:	f894 0026 	ldrb.w	r0, [r4, #38]	; 0x26
 23fb54c:	2800      	cmp	r0, #0
 23fb54e:	d0eb      	beq.n	23fb528 <_ZN19DFRobotDFPlayerMini9availableEv+0x66>
 23fb550:	7ea3      	ldrb	r3, [r4, #26]
 23fb552:	2b00      	cmp	r3, #0
 23fb554:	d1e8      	bne.n	23fb528 <_ZN19DFRobotDFPlayerMini9availableEv+0x66>
                _isSending = false;
 23fb556:	f884 3027 	strb.w	r3, [r4, #39]	; 0x27
 23fb55a:	e7e5      	b.n	23fb528 <_ZN19DFRobotDFPlayerMini9availableEv+0x66>
  if (_isSending && (millis()-_timeOutTimer>=_timeOutDuration)) {
 23fb55c:	f894 3027 	ldrb.w	r3, [r4, #39]	; 0x27
 23fb560:	b17b      	cbz	r3, 23fb582 <_ZN19DFRobotDFPlayerMini9availableEv+0xc0>
 23fb562:	f001 fc5f 	bl	23fce24 <HAL_Timer_Get_Milli_Seconds>
 23fb566:	6863      	ldr	r3, [r4, #4]
 23fb568:	1ac0      	subs	r0, r0, r3
 23fb56a:	68a3      	ldr	r3, [r4, #8]
 23fb56c:	4298      	cmp	r0, r3
 23fb56e:	d308      	bcc.n	23fb582 <_ZN19DFRobotDFPlayerMini9availableEv+0xc0>
  _handleParameter = parameter;
 23fb570:	f44f 3380 	mov.w	r3, #65536	; 0x10000
    return handleError(TimeOut);
 23fb574:	4628      	mov	r0, r5
  _receivedIndex = 0;
 23fb576:	f884 5020 	strb.w	r5, [r4, #32]
  _handleType = type;
 23fb57a:	f884 5022 	strb.w	r5, [r4, #34]	; 0x22
  _handleParameter = parameter;
 23fb57e:	6263      	str	r3, [r4, #36]	; 0x24
    return handleError(TimeOut);
 23fb580:	e7d2      	b.n	23fb528 <_ZN19DFRobotDFPlayerMini9availableEv+0x66>
  return _isAvailable;
 23fb582:	f894 0026 	ldrb.w	r0, [r4, #38]	; 0x26
 23fb586:	e7cf      	b.n	23fb528 <_ZN19DFRobotDFPlayerMini9availableEv+0x66>

023fb588 <_ZN19DFRobotDFPlayerMini9sendStackEv>:
void DFRobotDFPlayerMini::sendStack(){
 23fb588:	b510      	push	{r4, lr}
  if (_sending[Stack_ACK]) {
 23fb58a:	7e83      	ldrb	r3, [r0, #26]
void DFRobotDFPlayerMini::sendStack(){
 23fb58c:	4604      	mov	r4, r0
  if (_sending[Stack_ACK]) {
 23fb58e:	b133      	cbz	r3, 23fb59e <_ZN19DFRobotDFPlayerMini9sendStackEv+0x16>
    while (_isSending) {
 23fb590:	f894 3027 	ldrb.w	r3, [r4, #39]	; 0x27
 23fb594:	b133      	cbz	r3, 23fb5a4 <_ZN19DFRobotDFPlayerMini9sendStackEv+0x1c>
      available();
 23fb596:	4620      	mov	r0, r4
 23fb598:	f7ff ff93 	bl	23fb4c2 <_ZN19DFRobotDFPlayerMini9availableEv>
    while (_isSending) {
 23fb59c:	e7f8      	b.n	23fb590 <_ZN19DFRobotDFPlayerMini9sendStackEv+0x8>
    delay(10);
 23fb59e:	200a      	movs	r0, #10
 23fb5a0:	f002 fbd2 	bl	23fdd48 <delay>
  _serial->write(_sending, DFPLAYER_SEND_LENGTH);
 23fb5a4:	4621      	mov	r1, r4
 23fb5a6:	f851 0b16 	ldr.w	r0, [r1], #22
 23fb5aa:	220a      	movs	r2, #10
 23fb5ac:	6803      	ldr	r3, [r0, #0]
 23fb5ae:	68db      	ldr	r3, [r3, #12]
 23fb5b0:	4798      	blx	r3
 23fb5b2:	f001 fc37 	bl	23fce24 <HAL_Timer_Get_Milli_Seconds>
  _isSending = _sending[Stack_ACK];
 23fb5b6:	7ea3      	ldrb	r3, [r4, #26]
  _timeOutTimer = millis();
 23fb5b8:	6060      	str	r0, [r4, #4]
  _isSending = _sending[Stack_ACK];
 23fb5ba:	3b00      	subs	r3, #0
 23fb5bc:	bf18      	it	ne
 23fb5be:	2301      	movne	r3, #1
 23fb5c0:	f884 3027 	strb.w	r3, [r4, #39]	; 0x27
}
 23fb5c4:	bd10      	pop	{r4, pc}

023fb5c6 <_ZN19DFRobotDFPlayerMini9sendStackEht>:
  *array = (uint8_t)(value>>8);
 23fb5c6:	0a13      	lsrs	r3, r2, #8
void DFRobotDFPlayerMini::sendStack(uint8_t command, uint16_t argument){
 23fb5c8:	b510      	push	{r4, lr}
  _sending[Stack_Command] = command;
 23fb5ca:	7641      	strb	r1, [r0, #25]
  *array = (uint8_t)(value>>8);
 23fb5cc:	76c3      	strb	r3, [r0, #27]
  *(array+1) = (uint8_t)(value);
 23fb5ce:	7702      	strb	r2, [r0, #28]
  uint16ToArray(calculateCheckSum(_sending), _sending+Stack_CheckSum);
 23fb5d0:	f100 0116 	add.w	r1, r0, #22
void DFRobotDFPlayerMini::sendStack(uint8_t command, uint16_t argument){
 23fb5d4:	4604      	mov	r4, r0
  uint16ToArray(calculateCheckSum(_sending), _sending+Stack_CheckSum);
 23fb5d6:	f7ff ff0f 	bl	23fb3f8 <_ZN19DFRobotDFPlayerMini17calculateCheckSumEPh>
  *array = (uint8_t)(value>>8);
 23fb5da:	0a03      	lsrs	r3, r0, #8
  *(array+1) = (uint8_t)(value);
 23fb5dc:	77a0      	strb	r0, [r4, #30]
  *array = (uint8_t)(value>>8);
 23fb5de:	7763      	strb	r3, [r4, #29]
  sendStack();
 23fb5e0:	4620      	mov	r0, r4
}
 23fb5e2:	e8bd 4010 	ldmia.w	sp!, {r4, lr}
  sendStack();
 23fb5e6:	f7ff bfcf 	b.w	23fb588 <_ZN19DFRobotDFPlayerMini9sendStackEv>

023fb5ea <_ZN19DFRobotDFPlayerMini9sendStackEh>:
  sendStack(command, 0);
 23fb5ea:	2200      	movs	r2, #0
 23fb5ec:	f7ff bfeb 	b.w	23fb5c6 <_ZN19DFRobotDFPlayerMini9sendStackEht>

023fb5f0 <_ZN19DFRobotDFPlayerMini13waitAvailableEv>:
  _isSending = true;
 23fb5f0:	2301      	movs	r3, #1
bool DFRobotDFPlayerMini::waitAvailable(){
 23fb5f2:	b510      	push	{r4, lr}
 23fb5f4:	4604      	mov	r4, r0
  _isSending = true;
 23fb5f6:	f880 3027 	strb.w	r3, [r0, #39]	; 0x27
  while (!available());
 23fb5fa:	4620      	mov	r0, r4
 23fb5fc:	f7ff ff61 	bl	23fb4c2 <_ZN19DFRobotDFPlayerMini9availableEv>
 23fb600:	2800      	cmp	r0, #0
 23fb602:	d0fa      	beq.n	23fb5fa <_ZN19DFRobotDFPlayerMini13waitAvailableEv+0xa>
  return _handleType != TimeOut;
 23fb604:	f894 0022 	ldrb.w	r0, [r4, #34]	; 0x22
}
 23fb608:	3800      	subs	r0, #0
 23fb60a:	bf18      	it	ne
 23fb60c:	2001      	movne	r0, #1
 23fb60e:	bd10      	pop	{r4, pc}

023fb610 <_ZN19DFRobotDFPlayerMini4playEi>:
void DFRobotDFPlayerMini::previous(){
  sendStack(0x02);
}

void DFRobotDFPlayerMini::play(int fileNumber){
  sendStack(0x03, fileNumber);
 23fb610:	b28a      	uxth	r2, r1
 23fb612:	2103      	movs	r1, #3
 23fb614:	f7ff bfd7 	b.w	23fb5c6 <_ZN19DFRobotDFPlayerMini9sendStackEht>

023fb618 <_ZN19DFRobotDFPlayerMini6volumeEh>:

void DFRobotDFPlayerMini::volumeDown(){
  sendStack(0x05);
}

void DFRobotDFPlayerMini::volume(uint8_t volume){
 23fb618:	460a      	mov	r2, r1
  sendStack(0x06, volume);
 23fb61a:	2106      	movs	r1, #6
 23fb61c:	f7ff bfd3 	b.w	23fb5c6 <_ZN19DFRobotDFPlayerMini9sendStackEht>

023fb620 <_ZN19DFRobotDFPlayerMini5resetEv>:
void DFRobotDFPlayerMini::sleep(){
  sendStack(0x0A);
}

void DFRobotDFPlayerMini::reset(){
  sendStack(0x0C);
 23fb620:	210c      	movs	r1, #12
 23fb622:	f7ff bfe2 	b.w	23fb5ea <_ZN19DFRobotDFPlayerMini9sendStackEh>

023fb626 <_ZN19DFRobotDFPlayerMini5beginER6Streamb>:
bool DFRobotDFPlayerMini::begin(Stream &stream, bool isACK){
 23fb626:	b538      	push	{r3, r4, r5, lr}
 23fb628:	4604      	mov	r4, r0
  _timeOutDuration += 3000;
 23fb62a:	6883      	ldr	r3, [r0, #8]
 23fb62c:	7682      	strb	r2, [r0, #26]
 23fb62e:	f603 33b8 	addw	r3, r3, #3000	; 0xbb8
  _serial = &stream;
 23fb632:	6001      	str	r1, [r0, #0]
  _timeOutDuration += 3000;
 23fb634:	6083      	str	r3, [r0, #8]
bool DFRobotDFPlayerMini::begin(Stream &stream, bool isACK){
 23fb636:	4615      	mov	r5, r2
  reset();
 23fb638:	f7ff fff2 	bl	23fb620 <_ZN19DFRobotDFPlayerMini5resetEv>
  waitAvailable();
 23fb63c:	4620      	mov	r0, r4
 23fb63e:	f7ff ffd7 	bl	23fb5f0 <_ZN19DFRobotDFPlayerMini13waitAvailableEv>
  _timeOutDuration -= 3000;
 23fb642:	68a3      	ldr	r3, [r4, #8]
  delay(200);
 23fb644:	20c8      	movs	r0, #200	; 0xc8
  _timeOutDuration -= 3000;
 23fb646:	f6a3 33b8 	subw	r3, r3, #3000	; 0xbb8
 23fb64a:	60a3      	str	r3, [r4, #8]
  delay(200);
 23fb64c:	f002 fb7c 	bl	23fdd48 <delay>
  _isAvailable = false;
 23fb650:	2300      	movs	r3, #0
 23fb652:	f884 3026 	strb.w	r3, [r4, #38]	; 0x26
  return (readType() == DFPlayerCardOnline) || !isACK;
 23fb656:	f894 3022 	ldrb.w	r3, [r4, #34]	; 0x22
 23fb65a:	2b04      	cmp	r3, #4
 23fb65c:	bf0c      	ite	eq
 23fb65e:	2001      	moveq	r0, #1
 23fb660:	f085 0001 	eorne.w	r0, r5, #1
}
 23fb664:	bd38      	pop	{r3, r4, r5, pc}

023fb666 <_ZN19DFRobotDFPlayerMini4stopEv>:
void DFRobotDFPlayerMini::stopAdvertise(){
  sendStack(0x15);
}

void DFRobotDFPlayerMini::stop(){
  sendStack(0x16);
 23fb666:	2116      	movs	r1, #22
 23fb668:	f7ff bfbf 	b.w	23fb5ea <_ZN19DFRobotDFPlayerMini9sendStackEh>

023fb66c <_ZN8particle11SPISettingsD1Ev>:
  SPISettings()
  {
  }

  virtual ~SPISettings() {
  }
 23fb66c:	4770      	bx	lr

023fb66e <_ZN8particle11SPISettingsD0Ev>:
  virtual ~SPISettings() {
 23fb66e:	b510      	push	{r4, lr}
 23fb670:	4604      	mov	r4, r0
  }
 23fb672:	2110      	movs	r1, #16
 23fb674:	f7ff f9ef 	bl	23faa56 <_ZdlPvj>
 23fb678:	4620      	mov	r0, r4
 23fb67a:	bd10      	pop	{r4, pc}

023fb67c <_ZNK8particle11SPISettings7printToER5Print>:
  bool operator!=(const SPISettings& other) const
  {
    return !(other == *this);
  }

  virtual size_t printTo(Print& p) const
 23fb67c:	b573      	push	{r0, r1, r4, r5, r6, lr}
 23fb67e:	4604      	mov	r4, r0
  {
    if (default_ && clock_ == 0)
 23fb680:	7922      	ldrb	r2, [r4, #4]
  virtual size_t printTo(Print& p) const
 23fb682:	4608      	mov	r0, r1
    if (default_ && clock_ == 0)
 23fb684:	68a3      	ldr	r3, [r4, #8]
 23fb686:	b132      	cbz	r2, 23fb696 <_ZNK8particle11SPISettings7printToER5Print+0x1a>
 23fb688:	b9a3      	cbnz	r3, 23fb6b4 <_ZNK8particle11SPISettings7printToER5Print+0x38>
      return p.print("<SPISettings default>");
 23fb68a:	490b      	ldr	r1, [pc, #44]	; (23fb6b8 <_ZNK8particle11SPISettings7printToER5Print+0x3c>)
    else
      return p.printf("<SPISettings %s%u %s MODE%u>", default_ ? "default " : "", (unsigned int)clock_,
          bitOrder_ == MSBFIRST ? "MSB" : "LSB", (unsigned int)dataMode_);
  }
 23fb68c:	b002      	add	sp, #8
 23fb68e:	e8bd 4070 	ldmia.w	sp!, {r4, r5, r6, lr}
      return p.print("<SPISettings default>");
 23fb692:	f002 bab1 	b.w	23fdbf8 <_ZN5Print5printEPKc>
      return p.printf("<SPISettings %s%u %s MODE%u>", default_ ? "default " : "", (unsigned int)clock_,
 23fb696:	4a09      	ldr	r2, [pc, #36]	; (23fb6bc <_ZNK8particle11SPISettings7printToER5Print+0x40>)
 23fb698:	7b26      	ldrb	r6, [r4, #12]
 23fb69a:	4d09      	ldr	r5, [pc, #36]	; (23fb6c0 <_ZNK8particle11SPISettings7printToER5Print+0x44>)
 23fb69c:	4909      	ldr	r1, [pc, #36]	; (23fb6c4 <_ZNK8particle11SPISettings7printToER5Print+0x48>)
 23fb69e:	7b64      	ldrb	r4, [r4, #13]
 23fb6a0:	2e01      	cmp	r6, #1
 23fb6a2:	bf18      	it	ne
 23fb6a4:	4629      	movne	r1, r5
 23fb6a6:	e9cd 1400 	strd	r1, r4, [sp]
 23fb6aa:	4907      	ldr	r1, [pc, #28]	; (23fb6c8 <_ZNK8particle11SPISettings7printToER5Print+0x4c>)
 23fb6ac:	f7ff fad4 	bl	23fac58 <_ZN5Print6printfEPKcz>
  }
 23fb6b0:	b002      	add	sp, #8
 23fb6b2:	bd70      	pop	{r4, r5, r6, pc}
      return p.printf("<SPISettings %s%u %s MODE%u>", default_ ? "default " : "", (unsigned int)clock_,
 23fb6b4:	4a05      	ldr	r2, [pc, #20]	; (23fb6cc <_ZNK8particle11SPISettings7printToER5Print+0x50>)
 23fb6b6:	e7ef      	b.n	23fb698 <_ZNK8particle11SPISettings7printToER5Print+0x1c>
 23fb6b8:	023ff5fd 	.word	0x023ff5fd
 23fb6bc:	023ff318 	.word	0x023ff318
 23fb6c0:	023ff5f9 	.word	0x023ff5f9
 23fb6c4:	023ff5f5 	.word	0x023ff5f5
 23fb6c8:	023ff613 	.word	0x023ff613
 23fb6cc:	023ff5ec 	.word	0x023ff5ec

023fb6d0 <_ZN15Adafruit_BME280C1Ev>:
/*! 
    @brief  class constructor
*/
/**************************************************************************/
Adafruit_BME280::Adafruit_BME280()
    : _cs(-1), _mosi(-1), _miso(-1), _sck(-1)
 23fb6d0:	f04f 33ff 	mov.w	r3, #4294967295
 23fb6d4:	6103      	str	r3, [r0, #16]
{ }
 23fb6d6:	4770      	bx	lr

023fb6d8 <_ZN8particle8SpiProxyIL19hal_spi_interface_t0EE8instanceEv>:
    static SPIClass& instance() {
 23fb6d8:	b513      	push	{r0, r1, r4, lr}
        static SPIClass instance(Interface);
 23fb6da:	4c0a      	ldr	r4, [pc, #40]	; (23fb704 <_ZN8particle8SpiProxyIL19hal_spi_interface_t0EE8instanceEv+0x2c>)
 23fb6dc:	e8d4 1f8f 	ldab	r1, [r4]
 23fb6e0:	f011 0101 	ands.w	r1, r1, #1
 23fb6e4:	d10b      	bne.n	23fb6fe <_ZN8particle8SpiProxyIL19hal_spi_interface_t0EE8instanceEv+0x26>
 23fb6e6:	4620      	mov	r0, r4
 23fb6e8:	9101      	str	r1, [sp, #4]
 23fb6ea:	f7ff f9c3 	bl	23faa74 <__cxa_guard_acquire>
 23fb6ee:	9901      	ldr	r1, [sp, #4]
 23fb6f0:	b128      	cbz	r0, 23fb6fe <_ZN8particle8SpiProxyIL19hal_spi_interface_t0EE8instanceEv+0x26>
 23fb6f2:	4805      	ldr	r0, [pc, #20]	; (23fb708 <_ZN8particle8SpiProxyIL19hal_spi_interface_t0EE8instanceEv+0x30>)
 23fb6f4:	f002 f89c 	bl	23fd830 <_ZN8SPIClassC1E19hal_spi_interface_t>
 23fb6f8:	4620      	mov	r0, r4
 23fb6fa:	f7ff f9c0 	bl	23faa7e <__cxa_guard_release>
        return instance;
    }
 23fb6fe:	4802      	ldr	r0, [pc, #8]	; (23fb708 <_ZN8particle8SpiProxyIL19hal_spi_interface_t0EE8instanceEv+0x30>)
 23fb700:	b002      	add	sp, #8
 23fb702:	bd10      	pop	{r4, pc}
 23fb704:	1007ae10 	.word	0x1007ae10
 23fb708:	1007ae14 	.word	0x1007ae14

023fb70c <_ZN8particle8SpiProxyIL19hal_spi_interface_t0EE14endTransactionEv.isra.0>:
        return instance().beginTransaction();
    }
    int32_t beginTransaction(const particle::SPISettings& settings) {
        return instance().beginTransaction(settings);
    }
    void endTransaction() {
 23fb70c:	b508      	push	{r3, lr}
        instance().endTransaction();
 23fb70e:	f7ff ffe3 	bl	23fb6d8 <_ZN8particle8SpiProxyIL19hal_spi_interface_t0EE8instanceEv>
    }
 23fb712:	e8bd 4008 	ldmia.w	sp!, {r3, lr}
        instance().endTransaction();
 23fb716:	f002 b8d4 	b.w	23fd8c2 <_ZN8SPIClass14endTransactionEv>

023fb71a <_ZN8particle8SpiProxyIL19hal_spi_interface_t0EE16beginTransactionERKNS_11SPISettingsE.isra.0>:
    int32_t beginTransaction(const particle::SPISettings& settings) {
 23fb71a:	b507      	push	{r0, r1, r2, lr}
 23fb71c:	9001      	str	r0, [sp, #4]
        return instance().beginTransaction(settings);
 23fb71e:	f7ff ffdb 	bl	23fb6d8 <_ZN8particle8SpiProxyIL19hal_spi_interface_t0EE8instanceEv>
 23fb722:	9901      	ldr	r1, [sp, #4]
    }
 23fb724:	b003      	add	sp, #12
 23fb726:	f85d eb04 	ldr.w	lr, [sp], #4
        return instance().beginTransaction(settings);
 23fb72a:	f002 b8e3 	b.w	23fd8f4 <_ZN8SPIClass16beginTransactionERKN8particle11SPISettingsE>

023fb72e <_ZN15Adafruit_BME2807spixferEh>:
    @brief  Encapsulate hardware and software SPI transfer into one function
    @param x the data byte to transfer
    @returns the data byte read from the device
*/
/**************************************************************************/
uint8_t Adafruit_BME280::spixfer(uint8_t x) {
 23fb72e:	e92d 41f0 	stmdb	sp!, {r4, r5, r6, r7, r8, lr}
    // hardware SPI
    if (_sck == -1)
 23fb732:	f990 3013 	ldrsb.w	r3, [r0, #19]
uint8_t Adafruit_BME280::spixfer(uint8_t x) {
 23fb736:	4605      	mov	r5, r0
    if (_sck == -1)
 23fb738:	3301      	adds	r3, #1
uint8_t Adafruit_BME280::spixfer(uint8_t x) {
 23fb73a:	460f      	mov	r7, r1
    if (_sck == -1)
 23fb73c:	d106      	bne.n	23fb74c <_ZN15Adafruit_BME2807spixferEh+0x1e>
    }
    static void computeClockDivider(unsigned reference, unsigned targetSpeed, uint8_t& divider, unsigned& clock) {
        instance().computeClockDivider(reference, targetSpeed, divider, clock);
    }
    byte transfer(byte data) {
        return instance().transfer(data);
 23fb73e:	f7ff ffcb 	bl	23fb6d8 <_ZN8particle8SpiProxyIL19hal_spi_interface_t0EE8instanceEv>
 23fb742:	4639      	mov	r1, r7
        digitalWrite(_sck, HIGH);
        if (digitalRead(_miso))
            reply |= 1;
        }
    return reply;
}
 23fb744:	e8bd 41f0 	ldmia.w	sp!, {r4, r5, r6, r7, r8, lr}
 23fb748:	f002 b99a 	b.w	23fda80 <_ZN8SPIClass8transferEh>
    uint8_t reply = 0;
 23fb74c:	2400      	movs	r4, #0
    for (int i=7; i>=0; i--) {
 23fb74e:	2607      	movs	r6, #7
        digitalWrite(_mosi, x & (1<<i));
 23fb750:	f04f 0801 	mov.w	r8, #1
        digitalWrite(_sck, LOW);
 23fb754:	f995 0013 	ldrsb.w	r0, [r5, #19]
 23fb758:	2100      	movs	r1, #0
 23fb75a:	b280      	uxth	r0, r0
 23fb75c:	f003 fa3b 	bl	23febd6 <digitalWrite>
        digitalWrite(_mosi, x & (1<<i));
 23fb760:	f995 0011 	ldrsb.w	r0, [r5, #17]
 23fb764:	fa08 f106 	lsl.w	r1, r8, r6
 23fb768:	4039      	ands	r1, r7
 23fb76a:	b280      	uxth	r0, r0
 23fb76c:	f003 fa33 	bl	23febd6 <digitalWrite>
        digitalWrite(_sck, HIGH);
 23fb770:	f995 0013 	ldrsb.w	r0, [r5, #19]
 23fb774:	2101      	movs	r1, #1
 23fb776:	b280      	uxth	r0, r0
 23fb778:	f003 fa2d 	bl	23febd6 <digitalWrite>
        if (digitalRead(_miso))
 23fb77c:	f995 0012 	ldrsb.w	r0, [r5, #18]
        reply <<= 1;
 23fb780:	0064      	lsls	r4, r4, #1
        if (digitalRead(_miso))
 23fb782:	b280      	uxth	r0, r0
        reply <<= 1;
 23fb784:	b2e4      	uxtb	r4, r4
        if (digitalRead(_miso))
 23fb786:	f003 fa3f 	bl	23fec08 <digitalRead>
 23fb78a:	b108      	cbz	r0, 23fb790 <_ZN15Adafruit_BME2807spixferEh+0x62>
            reply |= 1;
 23fb78c:	f044 0401 	orr.w	r4, r4, #1
    for (int i=7; i>=0; i--) {
 23fb790:	3e01      	subs	r6, #1
 23fb792:	d2df      	bcs.n	23fb754 <_ZN15Adafruit_BME2807spixferEh+0x26>
}
 23fb794:	4620      	mov	r0, r4
 23fb796:	e8bd 81f0 	ldmia.w	sp!, {r4, r5, r6, r7, r8, pc}
	...

023fb79c <_ZN15Adafruit_BME2806write8Ehh>:
    @brief  Writes an 8 bit value over I2C or SPI
    @param reg the register address to write to
    @param value the value to write to the register
*/
/**************************************************************************/
void Adafruit_BME280::write8(byte reg, byte value) {
 23fb79c:	b57f      	push	{r0, r1, r2, r3, r4, r5, r6, lr}
    if (_cs == -1) {
 23fb79e:	f990 3010 	ldrsb.w	r3, [r0, #16]
void Adafruit_BME280::write8(byte reg, byte value) {
 23fb7a2:	4604      	mov	r4, r0
    if (_cs == -1) {
 23fb7a4:	3301      	adds	r3, #1
void Adafruit_BME280::write8(byte reg, byte value) {
 23fb7a6:	460e      	mov	r6, r1
 23fb7a8:	4615      	mov	r5, r2
    if (_cs == -1) {
 23fb7aa:	d113      	bne.n	23fb7d4 <_ZN15Adafruit_BME2806write8Ehh+0x38>
        _wire -> beginTransmission((uint8_t)_i2caddr);
 23fb7ac:	7901      	ldrb	r1, [r0, #4]
 23fb7ae:	6800      	ldr	r0, [r0, #0]
 23fb7b0:	f002 fdd2 	bl	23fe358 <_ZN7TwoWire17beginTransmissionEh>
        _wire -> write((uint8_t)reg);
 23fb7b4:	6820      	ldr	r0, [r4, #0]
 23fb7b6:	4631      	mov	r1, r6
 23fb7b8:	6803      	ldr	r3, [r0, #0]
 23fb7ba:	689b      	ldr	r3, [r3, #8]
 23fb7bc:	4798      	blx	r3
        _wire -> write((uint8_t)value);
 23fb7be:	6820      	ldr	r0, [r4, #0]
 23fb7c0:	4629      	mov	r1, r5
 23fb7c2:	6803      	ldr	r3, [r0, #0]
 23fb7c4:	689b      	ldr	r3, [r3, #8]
 23fb7c6:	4798      	blx	r3
        _wire -> endTransmission();
 23fb7c8:	6820      	ldr	r0, [r4, #0]
        spixfer(value);
        digitalWrite(_cs, HIGH);
    if (_sck == -1)
        SPI.endTransaction(); // release the SPI bus
    }
}
 23fb7ca:	b004      	add	sp, #16
 23fb7cc:	e8bd 4070 	ldmia.w	sp!, {r4, r5, r6, lr}
        _wire -> endTransmission();
 23fb7d0:	f002 bdcd 	b.w	23fe36e <_ZN7TwoWire15endTransmissionEv>
        if (_sck == -1)
 23fb7d4:	f990 3013 	ldrsb.w	r3, [r0, #19]
 23fb7d8:	3301      	adds	r3, #1
 23fb7da:	d10c      	bne.n	23fb7f6 <_ZN15Adafruit_BME2806write8Ehh+0x5a>
      dataMode_{dataMode}
 23fb7dc:	4b16      	ldr	r3, [pc, #88]	; (23fb838 <_ZN15Adafruit_BME2806write8Ehh+0x9c>)
            SPI.beginTransaction(SPISettings(500000, MSBFIRST, SPI_MODE0));
 23fb7de:	4668      	mov	r0, sp
 23fb7e0:	9300      	str	r3, [sp, #0]
 23fb7e2:	2300      	movs	r3, #0
 23fb7e4:	f88d 3004 	strb.w	r3, [sp, #4]
 23fb7e8:	4b14      	ldr	r3, [pc, #80]	; (23fb83c <_ZN15Adafruit_BME2806write8Ehh+0xa0>)
 23fb7ea:	9302      	str	r3, [sp, #8]
 23fb7ec:	2301      	movs	r3, #1
 23fb7ee:	f8ad 300c 	strh.w	r3, [sp, #12]
 23fb7f2:	f7ff ff92 	bl	23fb71a <_ZN8particle8SpiProxyIL19hal_spi_interface_t0EE16beginTransactionERKNS_11SPISettingsE.isra.0>
        digitalWrite(_cs, LOW);
 23fb7f6:	f994 0010 	ldrsb.w	r0, [r4, #16]
 23fb7fa:	2100      	movs	r1, #0
 23fb7fc:	b280      	uxth	r0, r0
 23fb7fe:	f003 f9ea 	bl	23febd6 <digitalWrite>
        spixfer(reg & ~0x80); // write, bit 7 low
 23fb802:	f006 017f 	and.w	r1, r6, #127	; 0x7f
 23fb806:	4620      	mov	r0, r4
 23fb808:	f7ff ff91 	bl	23fb72e <_ZN15Adafruit_BME2807spixferEh>
        spixfer(value);
 23fb80c:	4629      	mov	r1, r5
 23fb80e:	4620      	mov	r0, r4
 23fb810:	f7ff ff8d 	bl	23fb72e <_ZN15Adafruit_BME2807spixferEh>
        digitalWrite(_cs, HIGH);
 23fb814:	f994 0010 	ldrsb.w	r0, [r4, #16]
 23fb818:	2101      	movs	r1, #1
 23fb81a:	b280      	uxth	r0, r0
 23fb81c:	f003 f9db 	bl	23febd6 <digitalWrite>
    if (_sck == -1)
 23fb820:	f994 3013 	ldrsb.w	r3, [r4, #19]
 23fb824:	3301      	adds	r3, #1
 23fb826:	d104      	bne.n	23fb832 <_ZN15Adafruit_BME2806write8Ehh+0x96>
}
 23fb828:	b004      	add	sp, #16
 23fb82a:	e8bd 4070 	ldmia.w	sp!, {r4, r5, r6, lr}
        SPI.endTransaction(); // release the SPI bus
 23fb82e:	f7ff bf6d 	b.w	23fb70c <_ZN8particle8SpiProxyIL19hal_spi_interface_t0EE14endTransactionEv.isra.0>
}
 23fb832:	b004      	add	sp, #16
 23fb834:	bd70      	pop	{r4, r5, r6, pc}
 23fb836:	bf00      	nop
 23fb838:	023ff638 	.word	0x023ff638
 23fb83c:	0007a120 	.word	0x0007a120

023fb840 <_ZN15Adafruit_BME28011setSamplingENS_11sensor_modeENS_15sensor_samplingES1_S1_NS_13sensor_filterENS_16standby_durationE>:
		 standby_duration  duration) {
 23fb840:	b5f8      	push	{r3, r4, r5, r6, r7, lr}
 23fb842:	4604      	mov	r4, r0
    _measReg.osrs_t   = tempSampling;
 23fb844:	00db      	lsls	r3, r3, #3
 23fb846:	f002 0207 	and.w	r2, r2, #7
 23fb84a:	f003 0338 	and.w	r3, r3, #56	; 0x38
 23fb84e:	4313      	orrs	r3, r2
 23fb850:	ea43 1381 	orr.w	r3, r3, r1, lsl #6
		 standby_duration  duration) {
 23fb854:	f89d 6018 	ldrb.w	r6, [sp, #24]
    _measReg.osrs_t   = tempSampling;
 23fb858:	f880 303c 	strb.w	r3, [r0, #60]	; 0x3c
    _humReg.osrs_h    = humSampling;
 23fb85c:	f890 3040 	ldrb.w	r3, [r0, #64]	; 0x40
		 standby_duration  duration) {
 23fb860:	f89d 501c 	ldrb.w	r5, [sp, #28]
 23fb864:	f89d 7020 	ldrb.w	r7, [sp, #32]
    _humReg.osrs_h    = humSampling;
 23fb868:	f366 1347 	bfi	r3, r6, #5, #3
 23fb86c:	f880 3040 	strb.w	r3, [r0, #64]	; 0x40
    _configReg.t_sb   = duration;
 23fb870:	00ed      	lsls	r5, r5, #3
 23fb872:	f890 3038 	ldrb.w	r3, [r0, #56]	; 0x38
 23fb876:	f007 0707 	and.w	r7, r7, #7
 23fb87a:	f005 0538 	and.w	r5, r5, #56	; 0x38
 23fb87e:	f023 033f 	bic.w	r3, r3, #63	; 0x3f
 23fb882:	433d      	orrs	r5, r7
 23fb884:	431d      	orrs	r5, r3
 23fb886:	f880 5038 	strb.w	r5, [r0, #56]	; 0x38
    write8(BME280_REGISTER_CONTROLHUMID, _humReg.get());
 23fb88a:	f006 0207 	and.w	r2, r6, #7
 23fb88e:	21f2      	movs	r1, #242	; 0xf2
 23fb890:	f7ff ff84 	bl	23fb79c <_ZN15Adafruit_BME2806write8Ehh>
            unsigned int none : 1;  ///< unused - don't set
            unsigned int spi3w_en : 1; ///< unused - don't set

            /// @return combined config register
            unsigned int get() {
                return (t_sb << 5) | (filter << 2) | spi3w_en;
 23fb894:	f894 2038 	ldrb.w	r2, [r4, #56]	; 0x38
    write8(BME280_REGISTER_CONFIG, _configReg.get());
 23fb898:	4620      	mov	r0, r4
 23fb89a:	f3c2 03c2 	ubfx	r3, r2, #3, #3
 23fb89e:	f002 0107 	and.w	r1, r2, #7
 23fb8a2:	009b      	lsls	r3, r3, #2
 23fb8a4:	ea43 1341 	orr.w	r3, r3, r1, lsl #5
 23fb8a8:	ea43 12d2 	orr.w	r2, r3, r2, lsr #7
 23fb8ac:	21f5      	movs	r1, #245	; 0xf5
 23fb8ae:	f7ff ff75 	bl	23fb79c <_ZN15Adafruit_BME2806write8Ehh>
            // 11       = normal
            unsigned int mode : 2; ///< device mode

            /// @return combined ctrl register
            unsigned int get() {
                return (osrs_t << 5) | (osrs_p << 2) | mode;
 23fb8b2:	f894 203c 	ldrb.w	r2, [r4, #60]	; 0x3c
    write8(BME280_REGISTER_CONTROL, _measReg.get());
 23fb8b6:	4620      	mov	r0, r4
 23fb8b8:	f3c2 03c2 	ubfx	r3, r2, #3, #3
 23fb8bc:	f002 0107 	and.w	r1, r2, #7
 23fb8c0:	009b      	lsls	r3, r3, #2
 23fb8c2:	ea43 1341 	orr.w	r3, r3, r1, lsl #5
 23fb8c6:	ea43 1292 	orr.w	r2, r3, r2, lsr #6
 23fb8ca:	21f4      	movs	r1, #244	; 0xf4
}
 23fb8cc:	e8bd 40f8 	ldmia.w	sp!, {r3, r4, r5, r6, r7, lr}
    write8(BME280_REGISTER_CONTROL, _measReg.get());
 23fb8d0:	f7ff bf64 	b.w	23fb79c <_ZN15Adafruit_BME2806write8Ehh>

023fb8d4 <_ZN15Adafruit_BME2805read8Eh>:
    @brief  Reads an 8 bit value over I2C or SPI
    @param reg the register address to read from
    @returns the data byte read from the device
*/
/**************************************************************************/
uint8_t Adafruit_BME280::read8(byte reg) {
 23fb8d4:	b530      	push	{r4, r5, lr}
    uint8_t value;
    
    if (_cs == -1) {
 23fb8d6:	f990 3010 	ldrsb.w	r3, [r0, #16]
uint8_t Adafruit_BME280::read8(byte reg) {
 23fb8da:	4604      	mov	r4, r0
    if (_cs == -1) {
 23fb8dc:	3301      	adds	r3, #1
uint8_t Adafruit_BME280::read8(byte reg) {
 23fb8de:	460d      	mov	r5, r1
 23fb8e0:	b085      	sub	sp, #20
    if (_cs == -1) {
 23fb8e2:	d118      	bne.n	23fb916 <_ZN15Adafruit_BME2805read8Eh+0x42>
        _wire -> beginTransmission((uint8_t)_i2caddr);
 23fb8e4:	7901      	ldrb	r1, [r0, #4]
 23fb8e6:	6800      	ldr	r0, [r0, #0]
 23fb8e8:	f002 fd36 	bl	23fe358 <_ZN7TwoWire17beginTransmissionEh>
        _wire -> write((uint8_t)reg);
 23fb8ec:	6820      	ldr	r0, [r4, #0]
 23fb8ee:	4629      	mov	r1, r5
 23fb8f0:	6803      	ldr	r3, [r0, #0]
 23fb8f2:	689b      	ldr	r3, [r3, #8]
 23fb8f4:	4798      	blx	r3
        _wire -> endTransmission();
 23fb8f6:	6820      	ldr	r0, [r4, #0]
 23fb8f8:	f002 fd39 	bl	23fe36e <_ZN7TwoWire15endTransmissionEv>
        _wire -> requestFrom((uint8_t)_i2caddr, (byte)1);
 23fb8fc:	2201      	movs	r2, #1
 23fb8fe:	7921      	ldrb	r1, [r4, #4]
 23fb900:	6820      	ldr	r0, [r4, #0]
 23fb902:	f002 fd26 	bl	23fe352 <_ZN7TwoWire11requestFromEhj>
        value = _wire -> read();
 23fb906:	6820      	ldr	r0, [r4, #0]
 23fb908:	6803      	ldr	r3, [r0, #0]
 23fb90a:	695b      	ldr	r3, [r3, #20]
 23fb90c:	4798      	blx	r3
 23fb90e:	b2c5      	uxtb	r5, r0
        digitalWrite(_cs, HIGH);
        if (_sck == -1)
            SPI.endTransaction(); // release the SPI bus
    }
    return value;
}
 23fb910:	4628      	mov	r0, r5
 23fb912:	b005      	add	sp, #20
 23fb914:	bd30      	pop	{r4, r5, pc}
        if (_sck == -1)
 23fb916:	f990 3013 	ldrsb.w	r3, [r0, #19]
 23fb91a:	3301      	adds	r3, #1
 23fb91c:	d10c      	bne.n	23fb938 <_ZN15Adafruit_BME2805read8Eh+0x64>
 23fb91e:	4b15      	ldr	r3, [pc, #84]	; (23fb974 <_ZN15Adafruit_BME2805read8Eh+0xa0>)
            SPI.beginTransaction(SPISettings(500000, MSBFIRST, SPI_MODE0));
 23fb920:	4668      	mov	r0, sp
 23fb922:	9300      	str	r3, [sp, #0]
 23fb924:	2300      	movs	r3, #0
 23fb926:	f88d 3004 	strb.w	r3, [sp, #4]
 23fb92a:	4b13      	ldr	r3, [pc, #76]	; (23fb978 <_ZN15Adafruit_BME2805read8Eh+0xa4>)
 23fb92c:	9302      	str	r3, [sp, #8]
 23fb92e:	2301      	movs	r3, #1
 23fb930:	f8ad 300c 	strh.w	r3, [sp, #12]
 23fb934:	f7ff fef1 	bl	23fb71a <_ZN8particle8SpiProxyIL19hal_spi_interface_t0EE16beginTransactionERKNS_11SPISettingsE.isra.0>
        digitalWrite(_cs, LOW);
 23fb938:	f994 0010 	ldrsb.w	r0, [r4, #16]
 23fb93c:	2100      	movs	r1, #0
 23fb93e:	b280      	uxth	r0, r0
 23fb940:	f003 f949 	bl	23febd6 <digitalWrite>
        spixfer(reg | 0x80); // read, bit 7 high
 23fb944:	f045 0180 	orr.w	r1, r5, #128	; 0x80
 23fb948:	4620      	mov	r0, r4
 23fb94a:	f7ff fef0 	bl	23fb72e <_ZN15Adafruit_BME2807spixferEh>
        value = spixfer(0);
 23fb94e:	2100      	movs	r1, #0
 23fb950:	4620      	mov	r0, r4
 23fb952:	f7ff feec 	bl	23fb72e <_ZN15Adafruit_BME2807spixferEh>
 23fb956:	4605      	mov	r5, r0
        digitalWrite(_cs, HIGH);
 23fb958:	f994 0010 	ldrsb.w	r0, [r4, #16]
 23fb95c:	2101      	movs	r1, #1
 23fb95e:	b280      	uxth	r0, r0
 23fb960:	f003 f939 	bl	23febd6 <digitalWrite>
        if (_sck == -1)
 23fb964:	f994 3013 	ldrsb.w	r3, [r4, #19]
 23fb968:	3301      	adds	r3, #1
 23fb96a:	d1d1      	bne.n	23fb910 <_ZN15Adafruit_BME2805read8Eh+0x3c>
            SPI.endTransaction(); // release the SPI bus
 23fb96c:	f7ff fece 	bl	23fb70c <_ZN8particle8SpiProxyIL19hal_spi_interface_t0EE14endTransactionEv.isra.0>
 23fb970:	e7ce      	b.n	23fb910 <_ZN15Adafruit_BME2805read8Eh+0x3c>
 23fb972:	bf00      	nop
 23fb974:	023ff638 	.word	0x023ff638
 23fb978:	0007a120 	.word	0x0007a120

023fb97c <_ZN15Adafruit_BME28020isReadingCalibrationEv>:
    @returns true if reading calibration, false otherwise
*/
/**************************************************************************/
bool Adafruit_BME280::isReadingCalibration(void)
{
  uint8_t const rStatus = read8(BME280_REGISTER_STATUS);
 23fb97c:	21f3      	movs	r1, #243	; 0xf3
{
 23fb97e:	b508      	push	{r3, lr}
  uint8_t const rStatus = read8(BME280_REGISTER_STATUS);
 23fb980:	f7ff ffa8 	bl	23fb8d4 <_ZN15Adafruit_BME2805read8Eh>

  return (rStatus & (1 << 0)) != 0;
}
 23fb984:	f000 0001 	and.w	r0, r0, #1
 23fb988:	bd08      	pop	{r3, pc}
	...

023fb98c <_ZN15Adafruit_BME2806read16Eh>:
{
 23fb98c:	b530      	push	{r4, r5, lr}
    if (_cs == -1) {
 23fb98e:	f990 3010 	ldrsb.w	r3, [r0, #16]
{
 23fb992:	4604      	mov	r4, r0
    if (_cs == -1) {
 23fb994:	3301      	adds	r3, #1
{
 23fb996:	460d      	mov	r5, r1
 23fb998:	b085      	sub	sp, #20
    if (_cs == -1) {
 23fb99a:	d11f      	bne.n	23fb9dc <_ZN15Adafruit_BME2806read16Eh+0x50>
        _wire -> beginTransmission((uint8_t)_i2caddr);
 23fb99c:	7901      	ldrb	r1, [r0, #4]
 23fb99e:	6800      	ldr	r0, [r0, #0]
 23fb9a0:	f002 fcda 	bl	23fe358 <_ZN7TwoWire17beginTransmissionEh>
        _wire -> write((uint8_t)reg);
 23fb9a4:	6820      	ldr	r0, [r4, #0]
 23fb9a6:	4629      	mov	r1, r5
 23fb9a8:	6803      	ldr	r3, [r0, #0]
 23fb9aa:	689b      	ldr	r3, [r3, #8]
 23fb9ac:	4798      	blx	r3
        _wire -> endTransmission();
 23fb9ae:	6820      	ldr	r0, [r4, #0]
 23fb9b0:	f002 fcdd 	bl	23fe36e <_ZN7TwoWire15endTransmissionEv>
        _wire -> requestFrom((uint8_t)_i2caddr, (byte)2);
 23fb9b4:	2202      	movs	r2, #2
 23fb9b6:	7921      	ldrb	r1, [r4, #4]
 23fb9b8:	6820      	ldr	r0, [r4, #0]
 23fb9ba:	f002 fcca 	bl	23fe352 <_ZN7TwoWire11requestFromEhj>
        value = (_wire -> read() << 8) | _wire -> read();
 23fb9be:	6820      	ldr	r0, [r4, #0]
 23fb9c0:	6803      	ldr	r3, [r0, #0]
 23fb9c2:	695b      	ldr	r3, [r3, #20]
 23fb9c4:	4798      	blx	r3
 23fb9c6:	4605      	mov	r5, r0
 23fb9c8:	6820      	ldr	r0, [r4, #0]
 23fb9ca:	6803      	ldr	r3, [r0, #0]
 23fb9cc:	695b      	ldr	r3, [r3, #20]
 23fb9ce:	4798      	blx	r3
 23fb9d0:	ea40 2005 	orr.w	r0, r0, r5, lsl #8
 23fb9d4:	b285      	uxth	r5, r0
}
 23fb9d6:	4628      	mov	r0, r5
 23fb9d8:	b005      	add	sp, #20
 23fb9da:	bd30      	pop	{r4, r5, pc}
        if (_sck == -1)
 23fb9dc:	f990 3013 	ldrsb.w	r3, [r0, #19]
 23fb9e0:	3301      	adds	r3, #1
 23fb9e2:	d10c      	bne.n	23fb9fe <_ZN15Adafruit_BME2806read16Eh+0x72>
 23fb9e4:	4b18      	ldr	r3, [pc, #96]	; (23fba48 <_ZN15Adafruit_BME2806read16Eh+0xbc>)
            SPI.beginTransaction(SPISettings(500000, MSBFIRST, SPI_MODE0));
 23fb9e6:	4668      	mov	r0, sp
 23fb9e8:	9300      	str	r3, [sp, #0]
 23fb9ea:	2300      	movs	r3, #0
 23fb9ec:	f88d 3004 	strb.w	r3, [sp, #4]
 23fb9f0:	4b16      	ldr	r3, [pc, #88]	; (23fba4c <_ZN15Adafruit_BME2806read16Eh+0xc0>)
 23fb9f2:	9302      	str	r3, [sp, #8]
 23fb9f4:	2301      	movs	r3, #1
 23fb9f6:	f8ad 300c 	strh.w	r3, [sp, #12]
 23fb9fa:	f7ff fe8e 	bl	23fb71a <_ZN8particle8SpiProxyIL19hal_spi_interface_t0EE16beginTransactionERKNS_11SPISettingsE.isra.0>
        digitalWrite(_cs, LOW);
 23fb9fe:	f994 0010 	ldrsb.w	r0, [r4, #16]
 23fba02:	2100      	movs	r1, #0
 23fba04:	b280      	uxth	r0, r0
 23fba06:	f003 f8e6 	bl	23febd6 <digitalWrite>
        spixfer(reg | 0x80); // read, bit 7 high
 23fba0a:	f045 0180 	orr.w	r1, r5, #128	; 0x80
 23fba0e:	4620      	mov	r0, r4
 23fba10:	f7ff fe8d 	bl	23fb72e <_ZN15Adafruit_BME2807spixferEh>
        value = (spixfer(0) << 8) | spixfer(0);
 23fba14:	2100      	movs	r1, #0
 23fba16:	4620      	mov	r0, r4
 23fba18:	f7ff fe89 	bl	23fb72e <_ZN15Adafruit_BME2807spixferEh>
 23fba1c:	2100      	movs	r1, #0
 23fba1e:	4605      	mov	r5, r0
 23fba20:	4620      	mov	r0, r4
 23fba22:	f7ff fe84 	bl	23fb72e <_ZN15Adafruit_BME2807spixferEh>
 23fba26:	ea40 2005 	orr.w	r0, r0, r5, lsl #8
 23fba2a:	b285      	uxth	r5, r0
        digitalWrite(_cs, HIGH);
 23fba2c:	f994 0010 	ldrsb.w	r0, [r4, #16]
 23fba30:	2101      	movs	r1, #1
 23fba32:	b280      	uxth	r0, r0
 23fba34:	f003 f8cf 	bl	23febd6 <digitalWrite>
        if (_sck == -1)
 23fba38:	f994 3013 	ldrsb.w	r3, [r4, #19]
 23fba3c:	3301      	adds	r3, #1
 23fba3e:	d1ca      	bne.n	23fb9d6 <_ZN15Adafruit_BME2806read16Eh+0x4a>
            SPI.endTransaction(); // release the SPI bus
 23fba40:	f7ff fe64 	bl	23fb70c <_ZN8particle8SpiProxyIL19hal_spi_interface_t0EE14endTransactionEv.isra.0>
 23fba44:	e7c7      	b.n	23fb9d6 <_ZN15Adafruit_BME2806read16Eh+0x4a>
 23fba46:	bf00      	nop
 23fba48:	023ff638 	.word	0x023ff638
 23fba4c:	0007a120 	.word	0x0007a120

023fba50 <_ZN15Adafruit_BME2809read16_LEEh>:
uint16_t Adafruit_BME280::read16_LE(byte reg) {
 23fba50:	b508      	push	{r3, lr}
    uint16_t temp = read16(reg);
 23fba52:	f7ff ff9b 	bl	23fb98c <_ZN15Adafruit_BME2806read16Eh>
    return (temp >> 8) | (temp << 8);
 23fba56:	ba40      	rev16	r0, r0
}
 23fba58:	b280      	uxth	r0, r0
 23fba5a:	bd08      	pop	{r3, pc}

023fba5c <_ZN15Adafruit_BME28016readCoefficientsEv>:
{
 23fba5c:	b538      	push	{r3, r4, r5, lr}
    _bme280_calib.dig_T1 = read16_LE(BME280_REGISTER_DIG_T1);
 23fba5e:	2188      	movs	r1, #136	; 0x88
{
 23fba60:	4604      	mov	r4, r0
    _bme280_calib.dig_T1 = read16_LE(BME280_REGISTER_DIG_T1);
 23fba62:	f7ff fff5 	bl	23fba50 <_ZN15Adafruit_BME2809read16_LEEh>
    return (int16_t)read16_LE(reg);
 23fba66:	218a      	movs	r1, #138	; 0x8a
    _bme280_calib.dig_T1 = read16_LE(BME280_REGISTER_DIG_T1);
 23fba68:	82a0      	strh	r0, [r4, #20]
    return (int16_t)read16_LE(reg);
 23fba6a:	4620      	mov	r0, r4
 23fba6c:	f7ff fff0 	bl	23fba50 <_ZN15Adafruit_BME2809read16_LEEh>
 23fba70:	218c      	movs	r1, #140	; 0x8c
    _bme280_calib.dig_T2 = readS16_LE(BME280_REGISTER_DIG_T2);
 23fba72:	82e0      	strh	r0, [r4, #22]
    return (int16_t)read16_LE(reg);
 23fba74:	4620      	mov	r0, r4
 23fba76:	f7ff ffeb 	bl	23fba50 <_ZN15Adafruit_BME2809read16_LEEh>
    _bme280_calib.dig_P1 = read16_LE(BME280_REGISTER_DIG_P1);
 23fba7a:	218e      	movs	r1, #142	; 0x8e
    _bme280_calib.dig_T3 = readS16_LE(BME280_REGISTER_DIG_T3);
 23fba7c:	8320      	strh	r0, [r4, #24]
    _bme280_calib.dig_P1 = read16_LE(BME280_REGISTER_DIG_P1);
 23fba7e:	4620      	mov	r0, r4
 23fba80:	f7ff ffe6 	bl	23fba50 <_ZN15Adafruit_BME2809read16_LEEh>
    return (int16_t)read16_LE(reg);
 23fba84:	2190      	movs	r1, #144	; 0x90
    _bme280_calib.dig_P1 = read16_LE(BME280_REGISTER_DIG_P1);
 23fba86:	8360      	strh	r0, [r4, #26]
    return (int16_t)read16_LE(reg);
 23fba88:	4620      	mov	r0, r4
 23fba8a:	f7ff ffe1 	bl	23fba50 <_ZN15Adafruit_BME2809read16_LEEh>
 23fba8e:	2192      	movs	r1, #146	; 0x92
    _bme280_calib.dig_P2 = readS16_LE(BME280_REGISTER_DIG_P2);
 23fba90:	83a0      	strh	r0, [r4, #28]
    return (int16_t)read16_LE(reg);
 23fba92:	4620      	mov	r0, r4
 23fba94:	f7ff ffdc 	bl	23fba50 <_ZN15Adafruit_BME2809read16_LEEh>
 23fba98:	2194      	movs	r1, #148	; 0x94
    _bme280_calib.dig_P3 = readS16_LE(BME280_REGISTER_DIG_P3);
 23fba9a:	83e0      	strh	r0, [r4, #30]
    return (int16_t)read16_LE(reg);
 23fba9c:	4620      	mov	r0, r4
 23fba9e:	f7ff ffd7 	bl	23fba50 <_ZN15Adafruit_BME2809read16_LEEh>
 23fbaa2:	2196      	movs	r1, #150	; 0x96
    _bme280_calib.dig_P4 = readS16_LE(BME280_REGISTER_DIG_P4);
 23fbaa4:	8420      	strh	r0, [r4, #32]
    return (int16_t)read16_LE(reg);
 23fbaa6:	4620      	mov	r0, r4
 23fbaa8:	f7ff ffd2 	bl	23fba50 <_ZN15Adafruit_BME2809read16_LEEh>
 23fbaac:	2198      	movs	r1, #152	; 0x98
    _bme280_calib.dig_P5 = readS16_LE(BME280_REGISTER_DIG_P5);
 23fbaae:	8460      	strh	r0, [r4, #34]	; 0x22
    return (int16_t)read16_LE(reg);
 23fbab0:	4620      	mov	r0, r4
 23fbab2:	f7ff ffcd 	bl	23fba50 <_ZN15Adafruit_BME2809read16_LEEh>
 23fbab6:	219a      	movs	r1, #154	; 0x9a
    _bme280_calib.dig_P6 = readS16_LE(BME280_REGISTER_DIG_P6);
 23fbab8:	84a0      	strh	r0, [r4, #36]	; 0x24
    return (int16_t)read16_LE(reg);
 23fbaba:	4620      	mov	r0, r4
 23fbabc:	f7ff ffc8 	bl	23fba50 <_ZN15Adafruit_BME2809read16_LEEh>
 23fbac0:	219c      	movs	r1, #156	; 0x9c
    _bme280_calib.dig_P7 = readS16_LE(BME280_REGISTER_DIG_P7);
 23fbac2:	84e0      	strh	r0, [r4, #38]	; 0x26
    return (int16_t)read16_LE(reg);
 23fbac4:	4620      	mov	r0, r4
 23fbac6:	f7ff ffc3 	bl	23fba50 <_ZN15Adafruit_BME2809read16_LEEh>
 23fbaca:	219e      	movs	r1, #158	; 0x9e
    _bme280_calib.dig_P8 = readS16_LE(BME280_REGISTER_DIG_P8);
 23fbacc:	8520      	strh	r0, [r4, #40]	; 0x28
    return (int16_t)read16_LE(reg);
 23fbace:	4620      	mov	r0, r4
 23fbad0:	f7ff ffbe 	bl	23fba50 <_ZN15Adafruit_BME2809read16_LEEh>
    _bme280_calib.dig_H1 = read8(BME280_REGISTER_DIG_H1);
 23fbad4:	21a1      	movs	r1, #161	; 0xa1
    _bme280_calib.dig_P9 = readS16_LE(BME280_REGISTER_DIG_P9);
 23fbad6:	8560      	strh	r0, [r4, #42]	; 0x2a
    _bme280_calib.dig_H1 = read8(BME280_REGISTER_DIG_H1);
 23fbad8:	4620      	mov	r0, r4
 23fbada:	f7ff fefb 	bl	23fb8d4 <_ZN15Adafruit_BME2805read8Eh>
    return (int16_t)read16_LE(reg);
 23fbade:	21e1      	movs	r1, #225	; 0xe1
    _bme280_calib.dig_H1 = read8(BME280_REGISTER_DIG_H1);
 23fbae0:	f884 002c 	strb.w	r0, [r4, #44]	; 0x2c
    return (int16_t)read16_LE(reg);
 23fbae4:	4620      	mov	r0, r4
 23fbae6:	f7ff ffb3 	bl	23fba50 <_ZN15Adafruit_BME2809read16_LEEh>
    _bme280_calib.dig_H3 = read8(BME280_REGISTER_DIG_H3);
 23fbaea:	21e3      	movs	r1, #227	; 0xe3
    _bme280_calib.dig_H2 = readS16_LE(BME280_REGISTER_DIG_H2);
 23fbaec:	85e0      	strh	r0, [r4, #46]	; 0x2e
    _bme280_calib.dig_H3 = read8(BME280_REGISTER_DIG_H3);
 23fbaee:	4620      	mov	r0, r4
 23fbaf0:	f7ff fef0 	bl	23fb8d4 <_ZN15Adafruit_BME2805read8Eh>
    _bme280_calib.dig_H4 = (read8(BME280_REGISTER_DIG_H4) << 4) | (read8(BME280_REGISTER_DIG_H4+1) & 0xF);
 23fbaf4:	21e4      	movs	r1, #228	; 0xe4
    _bme280_calib.dig_H3 = read8(BME280_REGISTER_DIG_H3);
 23fbaf6:	f884 0030 	strb.w	r0, [r4, #48]	; 0x30
    _bme280_calib.dig_H4 = (read8(BME280_REGISTER_DIG_H4) << 4) | (read8(BME280_REGISTER_DIG_H4+1) & 0xF);
 23fbafa:	4620      	mov	r0, r4
 23fbafc:	f7ff feea 	bl	23fb8d4 <_ZN15Adafruit_BME2805read8Eh>
 23fbb00:	21e5      	movs	r1, #229	; 0xe5
 23fbb02:	4605      	mov	r5, r0
 23fbb04:	4620      	mov	r0, r4
 23fbb06:	f7ff fee5 	bl	23fb8d4 <_ZN15Adafruit_BME2805read8Eh>
 23fbb0a:	f000 030f 	and.w	r3, r0, #15
 23fbb0e:	ea43 1005 	orr.w	r0, r3, r5, lsl #4
    _bme280_calib.dig_H5 = (read8(BME280_REGISTER_DIG_H5+1) << 4) | (read8(BME280_REGISTER_DIG_H5) >> 4);
 23fbb12:	21e6      	movs	r1, #230	; 0xe6
    _bme280_calib.dig_H4 = (read8(BME280_REGISTER_DIG_H4) << 4) | (read8(BME280_REGISTER_DIG_H4+1) & 0xF);
 23fbb14:	8660      	strh	r0, [r4, #50]	; 0x32
    _bme280_calib.dig_H5 = (read8(BME280_REGISTER_DIG_H5+1) << 4) | (read8(BME280_REGISTER_DIG_H5) >> 4);
 23fbb16:	4620      	mov	r0, r4
 23fbb18:	f7ff fedc 	bl	23fb8d4 <_ZN15Adafruit_BME2805read8Eh>
 23fbb1c:	21e5      	movs	r1, #229	; 0xe5
 23fbb1e:	4605      	mov	r5, r0
 23fbb20:	4620      	mov	r0, r4
 23fbb22:	f7ff fed7 	bl	23fb8d4 <_ZN15Adafruit_BME2805read8Eh>
 23fbb26:	f3c0 1307 	ubfx	r3, r0, #4, #8
 23fbb2a:	ea43 1005 	orr.w	r0, r3, r5, lsl #4
 23fbb2e:	86a0      	strh	r0, [r4, #52]	; 0x34
    _bme280_calib.dig_H6 = (int8_t)read8(BME280_REGISTER_DIG_H6);
 23fbb30:	21e7      	movs	r1, #231	; 0xe7
 23fbb32:	4620      	mov	r0, r4
 23fbb34:	f7ff fece 	bl	23fb8d4 <_ZN15Adafruit_BME2805read8Eh>
 23fbb38:	f884 0036 	strb.w	r0, [r4, #54]	; 0x36
}
 23fbb3c:	bd38      	pop	{r3, r4, r5, pc}
	...

023fbb40 <_ZN15Adafruit_BME2806read24Eh>:
{
 23fbb40:	b530      	push	{r4, r5, lr}
    if (_cs == -1) {
 23fbb42:	f990 3010 	ldrsb.w	r3, [r0, #16]
{
 23fbb46:	4604      	mov	r4, r0
    if (_cs == -1) {
 23fbb48:	3301      	adds	r3, #1
{
 23fbb4a:	460d      	mov	r5, r1
 23fbb4c:	b085      	sub	sp, #20
    if (_cs == -1) {
 23fbb4e:	d123      	bne.n	23fbb98 <_ZN15Adafruit_BME2806read24Eh+0x58>
        _wire -> beginTransmission((uint8_t)_i2caddr);
 23fbb50:	7901      	ldrb	r1, [r0, #4]
 23fbb52:	6800      	ldr	r0, [r0, #0]
 23fbb54:	f002 fc00 	bl	23fe358 <_ZN7TwoWire17beginTransmissionEh>
        _wire -> write((uint8_t)reg);
 23fbb58:	6820      	ldr	r0, [r4, #0]
 23fbb5a:	4629      	mov	r1, r5
 23fbb5c:	6803      	ldr	r3, [r0, #0]
 23fbb5e:	689b      	ldr	r3, [r3, #8]
 23fbb60:	4798      	blx	r3
        _wire -> endTransmission();
 23fbb62:	6820      	ldr	r0, [r4, #0]
 23fbb64:	f002 fc03 	bl	23fe36e <_ZN7TwoWire15endTransmissionEv>
        _wire -> requestFrom((uint8_t)_i2caddr, (byte)3);
 23fbb68:	2203      	movs	r2, #3
 23fbb6a:	7921      	ldrb	r1, [r4, #4]
 23fbb6c:	6820      	ldr	r0, [r4, #0]
 23fbb6e:	f002 fbf0 	bl	23fe352 <_ZN7TwoWire11requestFromEhj>
        value = _wire -> read();
 23fbb72:	6820      	ldr	r0, [r4, #0]
 23fbb74:	6803      	ldr	r3, [r0, #0]
 23fbb76:	695b      	ldr	r3, [r3, #20]
 23fbb78:	4798      	blx	r3
        value <<= 8;
 23fbb7a:	0205      	lsls	r5, r0, #8
        value |= _wire -> read();
 23fbb7c:	6820      	ldr	r0, [r4, #0]
 23fbb7e:	6803      	ldr	r3, [r0, #0]
 23fbb80:	695b      	ldr	r3, [r3, #20]
 23fbb82:	4798      	blx	r3
 23fbb84:	4328      	orrs	r0, r5
        value <<= 8;
 23fbb86:	0205      	lsls	r5, r0, #8
        value |= _wire -> read();
 23fbb88:	6820      	ldr	r0, [r4, #0]
 23fbb8a:	6803      	ldr	r3, [r0, #0]
 23fbb8c:	695b      	ldr	r3, [r3, #20]
 23fbb8e:	4798      	blx	r3
 23fbb90:	4305      	orrs	r5, r0
}
 23fbb92:	4628      	mov	r0, r5
 23fbb94:	b005      	add	sp, #20
 23fbb96:	bd30      	pop	{r4, r5, pc}
        if (_sck == -1)
 23fbb98:	f990 3013 	ldrsb.w	r3, [r0, #19]
 23fbb9c:	3301      	adds	r3, #1
 23fbb9e:	d10c      	bne.n	23fbbba <_ZN15Adafruit_BME2806read24Eh+0x7a>
 23fbba0:	4b1a      	ldr	r3, [pc, #104]	; (23fbc0c <_ZN15Adafruit_BME2806read24Eh+0xcc>)
            SPI.beginTransaction(SPISettings(500000, MSBFIRST, SPI_MODE0));
 23fbba2:	4668      	mov	r0, sp
 23fbba4:	9300      	str	r3, [sp, #0]
 23fbba6:	2300      	movs	r3, #0
 23fbba8:	f88d 3004 	strb.w	r3, [sp, #4]
 23fbbac:	4b18      	ldr	r3, [pc, #96]	; (23fbc10 <_ZN15Adafruit_BME2806read24Eh+0xd0>)
 23fbbae:	9302      	str	r3, [sp, #8]
 23fbbb0:	2301      	movs	r3, #1
 23fbbb2:	f8ad 300c 	strh.w	r3, [sp, #12]
 23fbbb6:	f7ff fdb0 	bl	23fb71a <_ZN8particle8SpiProxyIL19hal_spi_interface_t0EE16beginTransactionERKNS_11SPISettingsE.isra.0>
        digitalWrite(_cs, LOW);
 23fbbba:	f994 0010 	ldrsb.w	r0, [r4, #16]
 23fbbbe:	2100      	movs	r1, #0
 23fbbc0:	b280      	uxth	r0, r0
 23fbbc2:	f003 f808 	bl	23febd6 <digitalWrite>
        spixfer(reg | 0x80); // read, bit 7 high
 23fbbc6:	f045 0180 	orr.w	r1, r5, #128	; 0x80
 23fbbca:	4620      	mov	r0, r4
 23fbbcc:	f7ff fdaf 	bl	23fb72e <_ZN15Adafruit_BME2807spixferEh>
        value = spixfer(0);
 23fbbd0:	2100      	movs	r1, #0
 23fbbd2:	4620      	mov	r0, r4
 23fbbd4:	f7ff fdab 	bl	23fb72e <_ZN15Adafruit_BME2807spixferEh>
        value |= spixfer(0);
 23fbbd8:	2100      	movs	r1, #0
        value <<= 8;
 23fbbda:	0205      	lsls	r5, r0, #8
        value |= spixfer(0);
 23fbbdc:	4620      	mov	r0, r4
 23fbbde:	f7ff fda6 	bl	23fb72e <_ZN15Adafruit_BME2807spixferEh>
 23fbbe2:	4328      	orrs	r0, r5
        value |= spixfer(0);
 23fbbe4:	2100      	movs	r1, #0
        value <<= 8;
 23fbbe6:	0205      	lsls	r5, r0, #8
        value |= spixfer(0);
 23fbbe8:	4620      	mov	r0, r4
 23fbbea:	f7ff fda0 	bl	23fb72e <_ZN15Adafruit_BME2807spixferEh>
 23fbbee:	4305      	orrs	r5, r0
        digitalWrite(_cs, HIGH);
 23fbbf0:	f994 0010 	ldrsb.w	r0, [r4, #16]
 23fbbf4:	2101      	movs	r1, #1
 23fbbf6:	b280      	uxth	r0, r0
 23fbbf8:	f002 ffed 	bl	23febd6 <digitalWrite>
        if (_sck == -1)
 23fbbfc:	f994 3013 	ldrsb.w	r3, [r4, #19]
 23fbc00:	3301      	adds	r3, #1
 23fbc02:	d1c6      	bne.n	23fbb92 <_ZN15Adafruit_BME2806read24Eh+0x52>
            SPI.endTransaction(); // release the SPI bus
 23fbc04:	f7ff fd82 	bl	23fb70c <_ZN8particle8SpiProxyIL19hal_spi_interface_t0EE14endTransactionEv.isra.0>
    return value;
 23fbc08:	e7c3      	b.n	23fbb92 <_ZN15Adafruit_BME2806read24Eh+0x52>
 23fbc0a:	bf00      	nop
 23fbc0c:	023ff638 	.word	0x023ff638
 23fbc10:	0007a120 	.word	0x0007a120

023fbc14 <_ZN15Adafruit_BME28015readTemperatureEv>:
    @brief  Returns the temperature from the sensor
    @returns the temperature read from the device
*/
/**************************************************************************/
float Adafruit_BME280::readTemperature(void)
{
 23fbc14:	b510      	push	{r4, lr}
    int32_t var1, var2;

    int32_t adc_T = read24(BME280_REGISTER_TEMPDATA);
 23fbc16:	21fa      	movs	r1, #250	; 0xfa
{
 23fbc18:	4604      	mov	r4, r0
    int32_t adc_T = read24(BME280_REGISTER_TEMPDATA);
 23fbc1a:	f7ff ff91 	bl	23fbb40 <_ZN15Adafruit_BME2806read24Eh>
    if (adc_T == 0x800000) // value in case temp measurement was disabled
 23fbc1e:	f5b0 0f00 	cmp.w	r0, #8388608	; 0x800000
 23fbc22:	d01f      	beq.n	23fbc64 <_ZN15Adafruit_BME28015readTemperatureEv+0x50>
        return NAN;
    adc_T >>= 4;

    var1 = ((((adc_T>>3) - ((int32_t)_bme280_calib.dig_T1 <<1))) *
 23fbc24:	8aa1      	ldrh	r1, [r4, #20]
            ((int32_t)_bme280_calib.dig_T3)) >> 14;

    t_fine = var1 + var2;

    float T = (t_fine * 5 + 128) >> 8;
    return T/100;
 23fbc26:	ed9f 7a11 	vldr	s14, [pc, #68]	; 23fbc6c <_ZN15Adafruit_BME28015readTemperatureEv+0x58>
    var1 = ((((adc_T>>3) - ((int32_t)_bme280_calib.dig_T1 <<1))) *
 23fbc2a:	004b      	lsls	r3, r1, #1
    var2 = (((((adc_T>>4) - ((int32_t)_bme280_calib.dig_T1)) *
 23fbc2c:	ebc1 2220 	rsb	r2, r1, r0, asr #8
    var1 = ((((adc_T>>3) - ((int32_t)_bme280_calib.dig_T1 <<1))) *
 23fbc30:	ebc3 11e0 	rsb	r1, r3, r0, asr #7
            ((int32_t)_bme280_calib.dig_T2)) >> 11;
 23fbc34:	f9b4 3016 	ldrsh.w	r3, [r4, #22]
    var1 = ((((adc_T>>3) - ((int32_t)_bme280_calib.dig_T1 <<1))) *
 23fbc38:	4359      	muls	r1, r3
    var2 = (((((adc_T>>4) - ((int32_t)_bme280_calib.dig_T1)) *
 23fbc3a:	fb02 f302 	mul.w	r3, r2, r2
            ((int32_t)_bme280_calib.dig_T3)) >> 14;
 23fbc3e:	f9b4 2018 	ldrsh.w	r2, [r4, #24]
              ((adc_T>>4) - ((int32_t)_bme280_calib.dig_T1))) >> 12) *
 23fbc42:	131b      	asrs	r3, r3, #12
 23fbc44:	4353      	muls	r3, r2
    var2 = (((((adc_T>>4) - ((int32_t)_bme280_calib.dig_T1)) *
 23fbc46:	139b      	asrs	r3, r3, #14
    t_fine = var1 + var2;
 23fbc48:	eb03 23e1 	add.w	r3, r3, r1, asr #11
 23fbc4c:	60e3      	str	r3, [r4, #12]
    float T = (t_fine * 5 + 128) >> 8;
 23fbc4e:	eb03 0383 	add.w	r3, r3, r3, lsl #2
 23fbc52:	3380      	adds	r3, #128	; 0x80
 23fbc54:	121b      	asrs	r3, r3, #8
 23fbc56:	ee07 3a90 	vmov	s15, r3
 23fbc5a:	eef8 7ae7 	vcvt.f32.s32	s15, s15
    return T/100;
 23fbc5e:	ee87 0a87 	vdiv.f32	s0, s15, s14
}
 23fbc62:	bd10      	pop	{r4, pc}
        return NAN;
 23fbc64:	ed9f 0a02 	vldr	s0, [pc, #8]	; 23fbc70 <_ZN15Adafruit_BME28015readTemperatureEv+0x5c>
 23fbc68:	e7fb      	b.n	23fbc62 <_ZN15Adafruit_BME28015readTemperatureEv+0x4e>
 23fbc6a:	bf00      	nop
 23fbc6c:	42c80000 	.word	0x42c80000
 23fbc70:	7fc00000 	.word	0x7fc00000

023fbc74 <_ZN15Adafruit_BME2804initEv>:
{
 23fbc74:	b530      	push	{r4, r5, lr}
 23fbc76:	4604      	mov	r4, r0
    if (_cs == -1) {
 23fbc78:	f990 0010 	ldrsb.w	r0, [r0, #16]
{
 23fbc7c:	b085      	sub	sp, #20
    if (_cs == -1) {
 23fbc7e:	1c42      	adds	r2, r0, #1
 23fbc80:	d119      	bne.n	23fbcb6 <_ZN15Adafruit_BME2804initEv+0x42>
        _wire -> begin();
 23fbc82:	6820      	ldr	r0, [r4, #0]
 23fbc84:	f002 fb3e 	bl	23fe304 <_ZN7TwoWire5beginEv>
    _sensorID = read8(BME280_REGISTER_CHIPID);
 23fbc88:	21d0      	movs	r1, #208	; 0xd0
 23fbc8a:	4620      	mov	r0, r4
 23fbc8c:	f7ff fe22 	bl	23fb8d4 <_ZN15Adafruit_BME2805read8Eh>
    if (_sensorID != 0x60)
 23fbc90:	2860      	cmp	r0, #96	; 0x60
    _sensorID = read8(BME280_REGISTER_CHIPID);
 23fbc92:	60a0      	str	r0, [r4, #8]
    if (_sensorID != 0x60)
 23fbc94:	d145      	bne.n	23fbd22 <_ZN15Adafruit_BME2804initEv+0xae>
    write8(BME280_REGISTER_SOFTRESET, 0xB6);
 23fbc96:	4620      	mov	r0, r4
 23fbc98:	22b6      	movs	r2, #182	; 0xb6
 23fbc9a:	21e0      	movs	r1, #224	; 0xe0
 23fbc9c:	f7ff fd7e 	bl	23fb79c <_ZN15Adafruit_BME2806write8Ehh>
    delay(300);
 23fbca0:	f44f 7096 	mov.w	r0, #300	; 0x12c
 23fbca4:	f002 f850 	bl	23fdd48 <delay>
    while (isReadingCalibration())
 23fbca8:	4620      	mov	r0, r4
 23fbcaa:	f7ff fe67 	bl	23fb97c <_ZN15Adafruit_BME28020isReadingCalibrationEv>
 23fbcae:	4605      	mov	r5, r0
 23fbcb0:	b328      	cbz	r0, 23fbcfe <_ZN15Adafruit_BME2804initEv+0x8a>
          delay(100);
 23fbcb2:	2064      	movs	r0, #100	; 0x64
 23fbcb4:	e7f6      	b.n	23fbca4 <_ZN15Adafruit_BME2804initEv+0x30>
        digitalWrite(_cs, HIGH);
 23fbcb6:	2101      	movs	r1, #1
 23fbcb8:	b280      	uxth	r0, r0
 23fbcba:	f002 ff8c 	bl	23febd6 <digitalWrite>
        pinMode(_cs, OUTPUT);
 23fbcbe:	f994 0010 	ldrsb.w	r0, [r4, #16]
 23fbcc2:	2101      	movs	r1, #1
 23fbcc4:	b280      	uxth	r0, r0
 23fbcc6:	f002 ff75 	bl	23febb4 <pinMode>
        if (_sck == -1) {
 23fbcca:	f994 0013 	ldrsb.w	r0, [r4, #19]
 23fbcce:	1c43      	adds	r3, r0, #1
 23fbcd0:	d104      	bne.n	23fbcdc <_ZN15Adafruit_BME2804initEv+0x68>
        instance().begin();
 23fbcd2:	f7ff fd01 	bl	23fb6d8 <_ZN8particle8SpiProxyIL19hal_spi_interface_t0EE8instanceEv>
 23fbcd6:	f001 fdb5 	bl	23fd844 <_ZN8SPIClass5beginEv>
    }
 23fbcda:	e7d5      	b.n	23fbc88 <_ZN15Adafruit_BME2804initEv+0x14>
            pinMode(_sck, OUTPUT);
 23fbcdc:	2101      	movs	r1, #1
 23fbcde:	b280      	uxth	r0, r0
 23fbce0:	f002 ff68 	bl	23febb4 <pinMode>
            pinMode(_mosi, OUTPUT);
 23fbce4:	f994 0011 	ldrsb.w	r0, [r4, #17]
 23fbce8:	2101      	movs	r1, #1
 23fbcea:	b280      	uxth	r0, r0
 23fbcec:	f002 ff62 	bl	23febb4 <pinMode>
            pinMode(_miso, INPUT);
 23fbcf0:	f994 0012 	ldrsb.w	r0, [r4, #18]
 23fbcf4:	2100      	movs	r1, #0
 23fbcf6:	b280      	uxth	r0, r0
 23fbcf8:	f002 ff5c 	bl	23febb4 <pinMode>
 23fbcfc:	e7c4      	b.n	23fbc88 <_ZN15Adafruit_BME2804initEv+0x14>
    readCoefficients(); // read trimming parameters, see DS 4.2.2
 23fbcfe:	4620      	mov	r0, r4
 23fbd00:	f7ff feac 	bl	23fba5c <_ZN15Adafruit_BME28016readCoefficientsEv>
    setSampling(); // use defaults
 23fbd04:	2305      	movs	r3, #5
 23fbd06:	2103      	movs	r1, #3
 23fbd08:	461a      	mov	r2, r3
 23fbd0a:	4620      	mov	r0, r4
 23fbd0c:	9300      	str	r3, [sp, #0]
 23fbd0e:	e9cd 5501 	strd	r5, r5, [sp, #4]
 23fbd12:	f7ff fd95 	bl	23fb840 <_ZN15Adafruit_BME28011setSamplingENS_11sensor_modeENS_15sensor_samplingES1_S1_NS_13sensor_filterENS_16standby_durationE>
    delay(100);
 23fbd16:	2064      	movs	r0, #100	; 0x64
 23fbd18:	f002 f816 	bl	23fdd48 <delay>
    return true;
 23fbd1c:	2001      	movs	r0, #1
}
 23fbd1e:	b005      	add	sp, #20
 23fbd20:	bd30      	pop	{r4, r5, pc}
        return false;
 23fbd22:	2000      	movs	r0, #0
 23fbd24:	e7fb      	b.n	23fbd1e <_ZN15Adafruit_BME2804initEv+0xaa>

023fbd26 <_ZN15Adafruit_BME2805beginEh>:
{
 23fbd26:	b510      	push	{r4, lr}
	_i2caddr = addr;
 23fbd28:	7101      	strb	r1, [r0, #4]
{
 23fbd2a:	4604      	mov	r4, r0
	_wire = &Wire;
 23fbd2c:	f003 f87c 	bl	23fee28 <_Z19__fetch_global_Wirev>
 23fbd30:	6020      	str	r0, [r4, #0]
	return init();
 23fbd32:	4620      	mov	r0, r4
}
 23fbd34:	e8bd 4010 	ldmia.w	sp!, {r4, lr}
	return init();
 23fbd38:	f7ff bf9c 	b.w	23fbc74 <_ZN15Adafruit_BME2804initEv>

023fbd3c <_ZNK5spark6Logger5errorEPKcz>:
    va_start(args, fmt);
    log(LOG_LEVEL_WARN, fmt, args);
    va_end(args);
}

inline void spark::Logger::error(const char *fmt, ...) const {
 23fbd3c:	b40e      	push	{r1, r2, r3}
}

inline void spark::Logger::log(LogLevel level, const char *fmt, va_list args) const {
    LogAttributes attr;
    attr.size = sizeof(LogAttributes);
    attr.flags = 0;
 23fbd3e:	f04f 0c20 	mov.w	ip, #32
 23fbd42:	2300      	movs	r3, #0
inline void spark::Logger::error(const char *fmt, ...) const {
 23fbd44:	b500      	push	{lr}
 23fbd46:	b08c      	sub	sp, #48	; 0x30
 23fbd48:	aa0d      	add	r2, sp, #52	; 0x34
 23fbd4a:	f852 1b04 	ldr.w	r1, [r2], #4
    attr.flags = 0;
 23fbd4e:	e9cd c304 	strd	ip, r3, [sp, #16]
    log_message_v(level, name_, &attr, nullptr, fmt, args);
 23fbd52:	e9cd 1200 	strd	r1, r2, [sp]
    va_start(args, fmt);
 23fbd56:	9203      	str	r2, [sp, #12]
    log_message_v(level, name_, &attr, nullptr, fmt, args);
 23fbd58:	6801      	ldr	r1, [r0, #0]
 23fbd5a:	aa04      	add	r2, sp, #16
 23fbd5c:	2032      	movs	r0, #50	; 0x32
 23fbd5e:	f001 fb71 	bl	23fd444 <log_message_v>
}
 23fbd62:	b00c      	add	sp, #48	; 0x30
 23fbd64:	f85d eb04 	ldr.w	lr, [sp], #4
 23fbd68:	b003      	add	sp, #12
 23fbd6a:	4770      	bx	lr

023fbd6c <_ZN17Adafruit_NeoPixel12updateLengthEt>:

uint8_t Adafruit_NeoPixel::getType() const {
    return type;
}

void Adafruit_NeoPixel::updateLength(uint16_t n) {
 23fbd6c:	b538      	push	{r3, r4, r5, lr}
 23fbd6e:	4604      	mov	r4, r0
  if (pixels) free(pixels); // Free existing data (if any)
 23fbd70:	68c0      	ldr	r0, [r0, #12]
void Adafruit_NeoPixel::updateLength(uint16_t n) {
 23fbd72:	460d      	mov	r5, r1
  if (pixels) free(pixels); // Free existing data (if any)
 23fbd74:	b108      	cbz	r0, 23fbd7a <_ZN17Adafruit_NeoPixel12updateLengthEt+0xe>
 23fbd76:	f001 fcb5 	bl	23fd6e4 <free>

  // Allocate new data -- note: ALL PIXELS ARE CLEARED
  numBytes = n * ((type == SK6812RGBW) ? 4 : 3);
 23fbd7a:	79a3      	ldrb	r3, [r4, #6]
 23fbd7c:	2b06      	cmp	r3, #6
 23fbd7e:	bf0c      	ite	eq
 23fbd80:	2004      	moveq	r0, #4
 23fbd82:	2003      	movne	r0, #3
 23fbd84:	fb10 f005 	smulbb	r0, r0, r5
 23fbd88:	b280      	uxth	r0, r0
 23fbd8a:	80a0      	strh	r0, [r4, #4]
  if ((pixels = (uint8_t *)malloc(numBytes))) {
 23fbd8c:	f001 fc9c 	bl	23fd6c8 <malloc>
 23fbd90:	60e0      	str	r0, [r4, #12]
 23fbd92:	b128      	cbz	r0, 23fbda0 <_ZN17Adafruit_NeoPixel12updateLengthEt+0x34>
    memset(pixels, 0, numBytes);
 23fbd94:	2100      	movs	r1, #0
 23fbd96:	88a2      	ldrh	r2, [r4, #4]
 23fbd98:	f003 f995 	bl	23ff0c6 <memset>
    numLEDs = n;
 23fbd9c:	8065      	strh	r5, [r4, #2]
  } else {
    numLEDs = numBytes = 0;
  }
}
 23fbd9e:	bd38      	pop	{r3, r4, r5, pc}
    numLEDs = numBytes = 0;
 23fbda0:	80a0      	strh	r0, [r4, #4]
 23fbda2:	8060      	strh	r0, [r4, #2]
}
 23fbda4:	e7fb      	b.n	23fbd9e <_ZN17Adafruit_NeoPixel12updateLengthEt+0x32>

023fbda6 <_ZN17Adafruit_NeoPixelC1EtR8SPIClassh>:
Adafruit_NeoPixel::Adafruit_NeoPixel(uint16_t n, SPIClass& spi, uint8_t t) :
 23fbda6:	b570      	push	{r4, r5, r6, lr}
  begun(false), type(t), brightness(0), pixels(NULL), endTime(0)
 23fbda8:	2500      	movs	r5, #0
Adafruit_NeoPixel::Adafruit_NeoPixel(uint16_t n, SPIClass& spi, uint8_t t) :
 23fbdaa:	4604      	mov	r4, r0
 23fbdac:	4616      	mov	r6, r2
  begun(false), type(t), brightness(0), pixels(NULL), endTime(0)
 23fbdae:	e9c0 5503 	strd	r5, r5, [r0, #12]
 23fbdb2:	7005      	strb	r5, [r0, #0]
 23fbdb4:	7183      	strb	r3, [r0, #6]
 23fbdb6:	7205      	strb	r5, [r0, #8]
  updateLength(n);
 23fbdb8:	f7ff ffd8 	bl	23fbd6c <_ZN17Adafruit_NeoPixel12updateLengthEt>
}
 23fbdbc:	4620      	mov	r0, r4
  spi_ = &spi;
 23fbdbe:	6166      	str	r6, [r4, #20]
}
 23fbdc0:	bd70      	pop	{r4, r5, r6, pc}
	...

023fbdc4 <_ZN17Adafruit_NeoPixel5beginEv>:

void Adafruit_NeoPixel::begin(void) {
 23fbdc4:	e92d 4ff7 	stmdb	sp!, {r0, r1, r2, r4, r5, r6, r7, r8, r9, sl, fp, lr}
#if (PLATFORM_ID == 32)
  if (getType() == WS2812B) {
 23fbdc8:	7983      	ldrb	r3, [r0, #6]
void Adafruit_NeoPixel::begin(void) {
 23fbdca:	4604      	mov	r4, r0
  if (getType() == WS2812B) {
 23fbdcc:	2b02      	cmp	r3, #2
 23fbdce:	d14e      	bne.n	23fbe6e <_ZN17Adafruit_NeoPixel5beginEv+0xaa>
  // Prevent copying
  SPIClass(const SPIClass&) = delete;
  SPIClass& operator=(const SPIClass&) = delete;

  hal_spi_interface_t interface() const {
    return _spi;
 23fbdd0:	6943      	ldr	r3, [r0, #20]
 23fbdd2:	781b      	ldrb	r3, [r3, #0]
    if (spi_->interface() >= HAL_PLATFORM_SPI_NUM) {
 23fbdd4:	2b01      	cmp	r3, #1
 23fbdd6:	d906      	bls.n	23fbde6 <_ZN17Adafruit_NeoPixel5beginEv+0x22>
      Log.error("SPI/SPI1 interface not defined!");
 23fbdd8:	4929      	ldr	r1, [pc, #164]	; (23fbe80 <_ZN17Adafruit_NeoPixel5beginEv+0xbc>)
 23fbdda:	482a      	ldr	r0, [pc, #168]	; (23fbe84 <_ZN17Adafruit_NeoPixel5beginEv+0xc0>)
 23fbddc:	f7ff ffae 	bl	23fbd3c <_ZNK5spark6Logger5errorEPKcz>
#else
  pinMode(pin, OUTPUT);
  digitalWrite(pin, LOW);
#endif // #if (PLATFORM_ID == 32)
  begun = true;
}
 23fbde0:	b003      	add	sp, #12
 23fbde2:	e8bd 8ff0 	ldmia.w	sp!, {r4, r5, r6, r7, r8, r9, sl, fp, pc}
      misoPin = MISO1;
 23fbde6:	2b00      	cmp	r3, #0
 23fbde8:	bf0c      	ite	eq
 23fbdea:	f04f 0911 	moveq.w	r9, #17
 23fbdee:	f04f 0904 	movne.w	r9, #4
    PinMode sckPinMode = getPinMode(sckPin);
 23fbdf2:	4648      	mov	r0, r9
      misoPin = MISO1;
 23fbdf4:	bf0c      	ite	eq
 23fbdf6:	2710      	moveq	r7, #16
 23fbdf8:	2703      	movne	r7, #3
    PinMode sckPinMode = getPinMode(sckPin);
 23fbdfa:	f002 fe9b 	bl	23feb34 <getPinMode>
 23fbdfe:	4606      	mov	r6, r0
    PinMode misoPinMode = getPinMode(misoPin);
 23fbe00:	4638      	mov	r0, r7
 23fbe02:	f002 fe97 	bl	23feb34 <getPinMode>
    int sckValue = (sckPinMode == OUTPUT) ? digitalRead(sckPin) : 0;
 23fbe06:	2e01      	cmp	r6, #1
    PinMode misoPinMode = getPinMode(misoPin);
 23fbe08:	4605      	mov	r5, r0
    int sckValue = (sckPinMode == OUTPUT) ? digitalRead(sckPin) : 0;
 23fbe0a:	d133      	bne.n	23fbe74 <_ZN17Adafruit_NeoPixel5beginEv+0xb0>
 23fbe0c:	4648      	mov	r0, r9
 23fbe0e:	f002 fefb 	bl	23fec08 <digitalRead>
 23fbe12:	4682      	mov	sl, r0
    int misoValue = (misoPinMode == OUTPUT) ? digitalRead(misoPin) : 0;
 23fbe14:	2d01      	cmp	r5, #1
 23fbe16:	d130      	bne.n	23fbe7a <_ZN17Adafruit_NeoPixel5beginEv+0xb6>
 23fbe18:	4638      	mov	r0, r7
 23fbe1a:	f002 fef5 	bl	23fec08 <digitalRead>
 23fbe1e:	4680      	mov	r8, r0
    spi_config.flags = (uint32_t)HAL_SPI_CONFIG_FLAG_MOSI_ONLY;
 23fbe20:	f04f 0b01 	mov.w	fp, #1
 23fbe24:	4b18      	ldr	r3, [pc, #96]	; (23fbe88 <_ZN17Adafruit_NeoPixel5beginEv+0xc4>)
 23fbe26:	6960      	ldr	r0, [r4, #20]
 23fbe28:	e9cd 3b00 	strd	r3, fp, [sp]
    hal_spi_begin_ext(spi_->interface(), SPI_MODE_MASTER, PIN_INVALID, &spi_config);
 23fbe2c:	22ff      	movs	r2, #255	; 0xff
 23fbe2e:	466b      	mov	r3, sp
 23fbe30:	2100      	movs	r1, #0
 23fbe32:	7800      	ldrb	r0, [r0, #0]
 23fbe34:	f001 fa34 	bl	23fd2a0 <hal_spi_begin_ext>
    spi_->setClockSpeed(3125000); // DVOS 5.7.0 requires setClockSpeed() to be set after begin()
 23fbe38:	465a      	mov	r2, fp
 23fbe3a:	4914      	ldr	r1, [pc, #80]	; (23fbe8c <_ZN17Adafruit_NeoPixel5beginEv+0xc8>)
 23fbe3c:	6960      	ldr	r0, [r4, #20]
 23fbe3e:	f001 fdc7 	bl	23fd9d0 <_ZN8SPIClass13setClockSpeedEjj>
    pinMode(sckPin, sckPinMode);
 23fbe42:	4631      	mov	r1, r6
 23fbe44:	4648      	mov	r0, r9
 23fbe46:	f002 feb5 	bl	23febb4 <pinMode>
    pinMode(misoPin, misoPinMode);
 23fbe4a:	4629      	mov	r1, r5
 23fbe4c:	4638      	mov	r0, r7
 23fbe4e:	f002 feb1 	bl	23febb4 <pinMode>
    if (sckPinMode == OUTPUT) {
 23fbe52:	455e      	cmp	r6, fp
 23fbe54:	d104      	bne.n	23fbe60 <_ZN17Adafruit_NeoPixel5beginEv+0x9c>
      digitalWrite(sckPin, sckValue);
 23fbe56:	4648      	mov	r0, r9
 23fbe58:	fa5f f18a 	uxtb.w	r1, sl
 23fbe5c:	f002 febb 	bl	23febd6 <digitalWrite>
    if (misoPinMode == OUTPUT) {
 23fbe60:	2d01      	cmp	r5, #1
 23fbe62:	d104      	bne.n	23fbe6e <_ZN17Adafruit_NeoPixel5beginEv+0xaa>
      digitalWrite(misoPin, misoValue);
 23fbe64:	4638      	mov	r0, r7
 23fbe66:	fa5f f188 	uxtb.w	r1, r8
 23fbe6a:	f002 feb4 	bl	23febd6 <digitalWrite>
  begun = true;
 23fbe6e:	2301      	movs	r3, #1
 23fbe70:	7023      	strb	r3, [r4, #0]
 23fbe72:	e7b5      	b.n	23fbde0 <_ZN17Adafruit_NeoPixel5beginEv+0x1c>
    int sckValue = (sckPinMode == OUTPUT) ? digitalRead(sckPin) : 0;
 23fbe74:	f04f 0a00 	mov.w	sl, #0
 23fbe78:	e7cc      	b.n	23fbe14 <_ZN17Adafruit_NeoPixel5beginEv+0x50>
    int misoValue = (misoPinMode == OUTPUT) ? digitalRead(misoPin) : 0;
 23fbe7a:	f04f 0800 	mov.w	r8, #0
 23fbe7e:	e7cf      	b.n	23fbe20 <_ZN17Adafruit_NeoPixel5beginEv+0x5c>
 23fbe80:	023ff644 	.word	0x023ff644
 23fbe84:	1007ae38 	.word	0x1007ae38
 23fbe88:	000a0008 	.word	0x000a0008
 23fbe8c:	002faf08 	.word	0x002faf08

023fbe90 <_ZN17Adafruit_NeoPixel4showEv>:
        digitalWrite(p, LOW);
    }
}

void Adafruit_NeoPixel::show(void) {
  if(!pixels) return;
 23fbe90:	68c3      	ldr	r3, [r0, #12]
 23fbe92:	2b00      	cmp	r3, #0
 23fbe94:	f000 80fc 	beq.w	23fc090 <_ZN17Adafruit_NeoPixel4showEv+0x200>
void Adafruit_NeoPixel::show(void) {
 23fbe98:	b570      	push	{r4, r5, r6, lr}
    return type;
 23fbe9a:	7983      	ldrb	r3, [r0, #6]
 23fbe9c:	4604      	mov	r4, r0
  }

  __enable_irq();

#elif (PLATFORM_ID == 32)
  if (getType() != WS2812B) { // WS2812 WS2812B and WS2813 supported for P2
 23fbe9e:	2b02      	cmp	r3, #2
void Adafruit_NeoPixel::show(void) {
 23fbea0:	b082      	sub	sp, #8
  if (getType() != WS2812B) { // WS2812 WS2812B and WS2813 supported for P2
 23fbea2:	f040 80ef 	bne.w	23fc084 <_ZN17Adafruit_NeoPixel4showEv+0x1f4>
        resetOff = 20;
      } break;
  }

  constexpr uint8_t numBitsPerBit = 3; // How many SPI bits represent one neopixel bit
  uint32_t spiArraySize = (numBytes * numBitsPerBit) + resetOff + resetOff;
 23fbea6:	8886      	ldrh	r6, [r0, #4]
 23fbea8:	eb06 0646 	add.w	r6, r6, r6, lsl #1
 23fbeac:	36f0      	adds	r6, #240	; 0xf0
  uint8_t* spiArray = NULL;
  spiArray = (uint8_t*) malloc(spiArraySize);
 23fbeae:	4630      	mov	r0, r6
 23fbeb0:	f001 fc0a 	bl	23fd6c8 <malloc>

  if (spiArray == NULL) {
 23fbeb4:	4605      	mov	r5, r0
 23fbeb6:	2800      	cmp	r0, #0
 23fbeb8:	f000 80eb 	beq.w	23fc092 <_ZN17Adafruit_NeoPixel4showEv+0x202>
    Log.error("Not enough memory available!");
    return;
  }

  memset(spiArray, 0, spiArraySize);
 23fbebc:	4632      	mov	r2, r6
 23fbebe:	2100      	movs	r1, #0
 23fbec0:	f003 f901 	bl	23ff0c6 <memset>
uint8_t *Adafruit_NeoPixel::getPixels(void) const {
  return pixels;
}

uint16_t Adafruit_NeoPixel::numPixels(void) const {
  return numLEDs;
 23fbec4:	8862      	ldrh	r2, [r4, #2]
  for (int x = 0; x < numPixels(); x++) {
 23fbec6:	2a00      	cmp	r2, #0
 23fbec8:	f000 80c7 	beq.w	23fc05a <_ZN17Adafruit_NeoPixel4showEv+0x1ca>
 23fbecc:	46ac      	mov	ip, r5
 23fbece:	eb02 02c2 	add.w	r2, r2, r2, lsl #3
 23fbed2:	68e1      	ldr	r1, [r4, #12]
 23fbed4:	442a      	add	r2, r5
      spiArray[(x*9)+(s*3)+0+resetOff] = ((0x80 & pixels[(x*3)+s])?(PIX_HI << 5):(PIX_LO << 5)) + ((0x40 & pixels[(x*3)+s])?(PIX_HI << 2):(PIX_LO << 2)) + ((0x20 & pixels[(x*3)+s])?(0b11):(0b10));
 23fbed6:	f991 3000 	ldrsb.w	r3, [r1]
 23fbeda:	7808      	ldrb	r0, [r1, #0]
 23fbedc:	2b00      	cmp	r3, #0
 23fbede:	bfb5      	itete	lt
 23fbee0:	f04f 0ed0 	movlt.w	lr, #208	; 0xd0
 23fbee4:	f04f 0e90 	movge.w	lr, #144	; 0x90
 23fbee8:	23d8      	movlt	r3, #216	; 0xd8
 23fbeea:	2398      	movge	r3, #152	; 0x98
 23fbeec:	f010 0f40 	tst.w	r0, #64	; 0x40
 23fbef0:	bf08      	it	eq
 23fbef2:	4673      	moveq	r3, lr
 23fbef4:	f010 0f20 	tst.w	r0, #32
 23fbef8:	bf14      	ite	ne
 23fbefa:	2003      	movne	r0, #3
 23fbefc:	2002      	moveq	r0, #2
 23fbefe:	4403      	add	r3, r0
 23fbf00:	f88c 3078 	strb.w	r3, [ip, #120]	; 0x78
      spiArray[(x*9)+(s*3)+1+resetOff] = 0 /* bit 7 always 0 */ + ((0x10 & pixels[(x*3)+s])?(PIX_HI << 4):(PIX_LO << 4)) + ((0x08 & pixels[(x*3)+s])?(PIX_HI << 1):(PIX_LO << 1)) + 1 /* bit 0 always 1 */;
 23fbf04:	7808      	ldrb	r0, [r1, #0]
  for (int x = 0; x < numPixels(); x++) {
 23fbf06:	f10c 0c09 	add.w	ip, ip, #9
      spiArray[(x*9)+(s*3)+1+resetOff] = 0 /* bit 7 always 0 */ + ((0x10 & pixels[(x*3)+s])?(PIX_HI << 4):(PIX_LO << 4)) + ((0x08 & pixels[(x*3)+s])?(PIX_HI << 1):(PIX_LO << 1)) + 1 /* bit 0 always 1 */;
 23fbf0a:	f000 0310 	and.w	r3, r0, #16
 23fbf0e:	2b00      	cmp	r3, #0
 23fbf10:	bf15      	itete	ne
 23fbf12:	f04f 0e69 	movne.w	lr, #105	; 0x69
 23fbf16:	f04f 0e49 	moveq.w	lr, #73	; 0x49
 23fbf1a:	236d      	movne	r3, #109	; 0x6d
 23fbf1c:	234d      	moveq	r3, #77	; 0x4d
 23fbf1e:	f010 0f08 	tst.w	r0, #8
 23fbf22:	bf08      	it	eq
 23fbf24:	4673      	moveq	r3, lr
 23fbf26:	f88c 3070 	strb.w	r3, [ip, #112]	; 0x70
      spiArray[(x*9)+(s*3)+2+resetOff] = ((0x04 & pixels[(x*3)+s])?(0b10 << 6):(0b00 << 6)) + ((0x02 & pixels[(x*3)+s])?(PIX_HI << 3):(PIX_LO << 3)) + ((0x01 & pixels[(x*3)+s])?(PIX_HI):(PIX_LO));
 23fbf2a:	780b      	ldrb	r3, [r1, #0]
  for (int x = 0; x < numPixels(); x++) {
 23fbf2c:	3103      	adds	r1, #3
      spiArray[(x*9)+(s*3)+2+resetOff] = ((0x04 & pixels[(x*3)+s])?(0b10 << 6):(0b00 << 6)) + ((0x02 & pixels[(x*3)+s])?(PIX_HI << 3):(PIX_LO << 3)) + ((0x01 & pixels[(x*3)+s])?(PIX_HI):(PIX_LO));
 23fbf2e:	f013 0f02 	tst.w	r3, #2
 23fbf32:	bf14      	ite	ne
 23fbf34:	2030      	movne	r0, #48	; 0x30
 23fbf36:	2020      	moveq	r0, #32
 23fbf38:	f013 0f01 	tst.w	r3, #1
 23fbf3c:	bf0c      	ite	eq
 23fbf3e:	f04f 0e04 	moveq.w	lr, #4
 23fbf42:	f04f 0e06 	movne.w	lr, #6
 23fbf46:	015b      	lsls	r3, r3, #5
 23fbf48:	f003 0380 	and.w	r3, r3, #128	; 0x80
 23fbf4c:	4403      	add	r3, r0
 23fbf4e:	4473      	add	r3, lr
 23fbf50:	f88c 3071 	strb.w	r3, [ip, #113]	; 0x71
      spiArray[(x*9)+(s*3)+0+resetOff] = ((0x80 & pixels[(x*3)+s])?(PIX_HI << 5):(PIX_LO << 5)) + ((0x40 & pixels[(x*3)+s])?(PIX_HI << 2):(PIX_LO << 2)) + ((0x20 & pixels[(x*3)+s])?(0b11):(0b10));
 23fbf54:	f911 0c02 	ldrsb.w	r0, [r1, #-2]
 23fbf58:	f811 3c02 	ldrb.w	r3, [r1, #-2]
 23fbf5c:	2800      	cmp	r0, #0
 23fbf5e:	bfb5      	itete	lt
 23fbf60:	f04f 0ed0 	movlt.w	lr, #208	; 0xd0
 23fbf64:	f04f 0e90 	movge.w	lr, #144	; 0x90
 23fbf68:	20d8      	movlt	r0, #216	; 0xd8
 23fbf6a:	2098      	movge	r0, #152	; 0x98
 23fbf6c:	f013 0f40 	tst.w	r3, #64	; 0x40
 23fbf70:	bf08      	it	eq
 23fbf72:	4670      	moveq	r0, lr
 23fbf74:	f013 0f20 	tst.w	r3, #32
 23fbf78:	bf14      	ite	ne
 23fbf7a:	2303      	movne	r3, #3
 23fbf7c:	2302      	moveq	r3, #2
 23fbf7e:	4403      	add	r3, r0
 23fbf80:	f88c 3072 	strb.w	r3, [ip, #114]	; 0x72
      spiArray[(x*9)+(s*3)+1+resetOff] = 0 /* bit 7 always 0 */ + ((0x10 & pixels[(x*3)+s])?(PIX_HI << 4):(PIX_LO << 4)) + ((0x08 & pixels[(x*3)+s])?(PIX_HI << 1):(PIX_LO << 1)) + 1 /* bit 0 always 1 */;
 23fbf84:	f811 0c02 	ldrb.w	r0, [r1, #-2]
 23fbf88:	f000 0310 	and.w	r3, r0, #16
 23fbf8c:	2b00      	cmp	r3, #0
 23fbf8e:	bf15      	itete	ne
 23fbf90:	f04f 0e69 	movne.w	lr, #105	; 0x69
 23fbf94:	f04f 0e49 	moveq.w	lr, #73	; 0x49
 23fbf98:	236d      	movne	r3, #109	; 0x6d
 23fbf9a:	234d      	moveq	r3, #77	; 0x4d
 23fbf9c:	f010 0f08 	tst.w	r0, #8
 23fbfa0:	bf08      	it	eq
 23fbfa2:	4673      	moveq	r3, lr
 23fbfa4:	f88c 3073 	strb.w	r3, [ip, #115]	; 0x73
      spiArray[(x*9)+(s*3)+2+resetOff] = ((0x04 & pixels[(x*3)+s])?(0b10 << 6):(0b00 << 6)) + ((0x02 & pixels[(x*3)+s])?(PIX_HI << 3):(PIX_LO << 3)) + ((0x01 & pixels[(x*3)+s])?(PIX_HI):(PIX_LO));
 23fbfa8:	f811 ec02 	ldrb.w	lr, [r1, #-2]
 23fbfac:	f01e 0f02 	tst.w	lr, #2
 23fbfb0:	bf14      	ite	ne
 23fbfb2:	2030      	movne	r0, #48	; 0x30
 23fbfb4:	2020      	moveq	r0, #32
 23fbfb6:	f01e 0f01 	tst.w	lr, #1
 23fbfba:	bf14      	ite	ne
 23fbfbc:	2306      	movne	r3, #6
 23fbfbe:	2304      	moveq	r3, #4
 23fbfc0:	ea4f 1e4e 	mov.w	lr, lr, lsl #5
 23fbfc4:	f00e 0e80 	and.w	lr, lr, #128	; 0x80
 23fbfc8:	4486      	add	lr, r0
 23fbfca:	449e      	add	lr, r3
 23fbfcc:	f88c e074 	strb.w	lr, [ip, #116]	; 0x74
      spiArray[(x*9)+(s*3)+0+resetOff] = ((0x80 & pixels[(x*3)+s])?(PIX_HI << 5):(PIX_LO << 5)) + ((0x40 & pixels[(x*3)+s])?(PIX_HI << 2):(PIX_LO << 2)) + ((0x20 & pixels[(x*3)+s])?(0b11):(0b10));
 23fbfd0:	f911 3c01 	ldrsb.w	r3, [r1, #-1]
 23fbfd4:	f811 0c01 	ldrb.w	r0, [r1, #-1]
 23fbfd8:	2b00      	cmp	r3, #0
 23fbfda:	bfb5      	itete	lt
 23fbfdc:	f04f 0ed0 	movlt.w	lr, #208	; 0xd0
 23fbfe0:	f04f 0e90 	movge.w	lr, #144	; 0x90
 23fbfe4:	23d8      	movlt	r3, #216	; 0xd8
 23fbfe6:	2398      	movge	r3, #152	; 0x98
 23fbfe8:	f010 0f40 	tst.w	r0, #64	; 0x40
 23fbfec:	bf08      	it	eq
 23fbfee:	4673      	moveq	r3, lr
 23fbff0:	f010 0f20 	tst.w	r0, #32
 23fbff4:	bf14      	ite	ne
 23fbff6:	2003      	movne	r0, #3
 23fbff8:	2002      	moveq	r0, #2
 23fbffa:	4403      	add	r3, r0
 23fbffc:	f88c 3075 	strb.w	r3, [ip, #117]	; 0x75
      spiArray[(x*9)+(s*3)+1+resetOff] = 0 /* bit 7 always 0 */ + ((0x10 & pixels[(x*3)+s])?(PIX_HI << 4):(PIX_LO << 4)) + ((0x08 & pixels[(x*3)+s])?(PIX_HI << 1):(PIX_LO << 1)) + 1 /* bit 0 always 1 */;
 23fc000:	f811 0c01 	ldrb.w	r0, [r1, #-1]
 23fc004:	f000 0310 	and.w	r3, r0, #16
 23fc008:	2b00      	cmp	r3, #0
 23fc00a:	bf15      	itete	ne
 23fc00c:	f04f 0e69 	movne.w	lr, #105	; 0x69
 23fc010:	f04f 0e49 	moveq.w	lr, #73	; 0x49
 23fc014:	236d      	movne	r3, #109	; 0x6d
 23fc016:	234d      	moveq	r3, #77	; 0x4d
 23fc018:	f010 0f08 	tst.w	r0, #8
 23fc01c:	bf08      	it	eq
 23fc01e:	4673      	moveq	r3, lr
 23fc020:	f88c 3076 	strb.w	r3, [ip, #118]	; 0x76
      spiArray[(x*9)+(s*3)+2+resetOff] = ((0x04 & pixels[(x*3)+s])?(0b10 << 6):(0b00 << 6)) + ((0x02 & pixels[(x*3)+s])?(PIX_HI << 3):(PIX_LO << 3)) + ((0x01 & pixels[(x*3)+s])?(PIX_HI):(PIX_LO));
 23fc024:	f811 0c01 	ldrb.w	r0, [r1, #-1]
 23fc028:	f010 0f02 	tst.w	r0, #2
 23fc02c:	bf14      	ite	ne
 23fc02e:	f04f 0e30 	movne.w	lr, #48	; 0x30
 23fc032:	f04f 0e20 	moveq.w	lr, #32
 23fc036:	0143      	lsls	r3, r0, #5
 23fc038:	f003 0380 	and.w	r3, r3, #128	; 0x80
 23fc03c:	4473      	add	r3, lr
 23fc03e:	b2db      	uxtb	r3, r3
 23fc040:	07c0      	lsls	r0, r0, #31
 23fc042:	f103 0e06 	add.w	lr, r3, #6
 23fc046:	f103 0304 	add.w	r3, r3, #4
 23fc04a:	bf4c      	ite	mi
 23fc04c:	f88c e077 	strbmi.w	lr, [ip, #119]	; 0x77
 23fc050:	f88c 3077 	strbpl.w	r3, [ip, #119]	; 0x77
  for (int x = 0; x < numPixels(); x++) {
 23fc054:	4594      	cmp	ip, r2
 23fc056:	f47f af3e 	bne.w	23fbed6 <_ZN17Adafruit_NeoPixel4showEv+0x46>
  spi_->beginTransaction();
 23fc05a:	6960      	ldr	r0, [r4, #20]
 23fc05c:	f001 fc2e 	bl	23fd8bc <_ZN8SPIClass16beginTransactionEv>
  spi_->transfer(spiArray, nullptr, spiArraySize, nullptr);
 23fc060:	2200      	movs	r2, #0
 23fc062:	4633      	mov	r3, r6
 23fc064:	4629      	mov	r1, r5
 23fc066:	6960      	ldr	r0, [r4, #20]
 23fc068:	9200      	str	r2, [sp, #0]
 23fc06a:	f001 fd0f 	bl	23fda8c <_ZN8SPIClass8transferEPKvPvjPFvvE>
  spi_->endTransaction();
 23fc06e:	6960      	ldr	r0, [r4, #20]
 23fc070:	f001 fc27 	bl	23fd8c2 <_ZN8SPIClass14endTransactionEv>
  free(spiArray);
 23fc074:	4628      	mov	r0, r5
 23fc076:	f001 fb35 	bl	23fd6e4 <free>
inline unsigned long micros(void) { return HAL_Timer_Get_Micro_Seconds(); }
 23fc07a:	f000 fec5 	bl	23fce08 <HAL_Timer_Get_Micro_Seconds>
  endTime = micros(); // Save EOD time for latch on next call
 23fc07e:	6120      	str	r0, [r4, #16]
}
 23fc080:	b002      	add	sp, #8
 23fc082:	bd70      	pop	{r4, r5, r6, pc}
    Log.error("Pixel type not supported!");
 23fc084:	4904      	ldr	r1, [pc, #16]	; (23fc098 <_ZN17Adafruit_NeoPixel4showEv+0x208>)
    Log.error("Not enough memory available!");
 23fc086:	4805      	ldr	r0, [pc, #20]	; (23fc09c <_ZN17Adafruit_NeoPixel4showEv+0x20c>)
 23fc088:	f7ff fe58 	bl	23fbd3c <_ZNK5spark6Logger5errorEPKcz>
}
 23fc08c:	b002      	add	sp, #8
 23fc08e:	bd70      	pop	{r4, r5, r6, pc}
 23fc090:	4770      	bx	lr
    Log.error("Not enough memory available!");
 23fc092:	4903      	ldr	r1, [pc, #12]	; (23fc0a0 <_ZN17Adafruit_NeoPixel4showEv+0x210>)
 23fc094:	e7f7      	b.n	23fc086 <_ZN17Adafruit_NeoPixel4showEv+0x1f6>
 23fc096:	bf00      	nop
 23fc098:	023ff664 	.word	0x023ff664
 23fc09c:	1007ae38 	.word	0x1007ae38
 23fc0a0:	023ff680 	.word	0x023ff680

023fc0a4 <_ZN17Adafruit_NeoPixel13setPixelColorEtm>:
  if(n < numLEDs) {
 23fc0a4:	8843      	ldrh	r3, [r0, #2]
void Adafruit_NeoPixel::setPixelColor(uint16_t n, uint32_t c) {
 23fc0a6:	b5f0      	push	{r4, r5, r6, r7, lr}
  if(n < numLEDs) {
 23fc0a8:	428b      	cmp	r3, r1
 23fc0aa:	d92d      	bls.n	23fc108 <_ZN17Adafruit_NeoPixel13setPixelColorEtm+0x64>
    if(brightness) { // See notes in setBrightness()
 23fc0ac:	7a06      	ldrb	r6, [r0, #8]
 23fc0ae:	f3c2 4307 	ubfx	r3, r2, #16, #8
 23fc0b2:	f3c2 2407 	ubfx	r4, r2, #8, #8
 23fc0b6:	b2d5      	uxtb	r5, r2
 23fc0b8:	b13e      	cbz	r6, 23fc0ca <_ZN17Adafruit_NeoPixel13setPixelColorEtm+0x26>
      r = (r * brightness) >> 8;
 23fc0ba:	4373      	muls	r3, r6
      g = (g * brightness) >> 8;
 23fc0bc:	4374      	muls	r4, r6
      b = (b * brightness) >> 8;
 23fc0be:	4375      	muls	r5, r6
      r = (r * brightness) >> 8;
 23fc0c0:	f3c3 2307 	ubfx	r3, r3, #8, #8
      g = (g * brightness) >> 8;
 23fc0c4:	f3c4 2407 	ubfx	r4, r4, #8, #8
      b = (b * brightness) >> 8;
 23fc0c8:	0a2d      	lsrs	r5, r5, #8
    uint8_t *p = &pixels[n * (type==SK6812RGBW?4:3)];
 23fc0ca:	f890 c006 	ldrb.w	ip, [r0, #6]
 23fc0ce:	68c7      	ldr	r7, [r0, #12]
 23fc0d0:	f1bc 0f06 	cmp.w	ip, #6
 23fc0d4:	bf0c      	ite	eq
 23fc0d6:	2604      	moveq	r6, #4
 23fc0d8:	2603      	movne	r6, #3
 23fc0da:	434e      	muls	r6, r1
 23fc0dc:	f1ac 0c02 	sub.w	ip, ip, #2
 23fc0e0:	19b9      	adds	r1, r7, r6
    switch(type) {
 23fc0e2:	f1bc 0f06 	cmp.w	ip, #6
 23fc0e6:	d81d      	bhi.n	23fc124 <_ZN17Adafruit_NeoPixel13setPixelColorEtm+0x80>
 23fc0e8:	e8df f00c 	tbb	[pc, ip]
 23fc0ec:	04081c04 	.word	0x04081c04
 23fc0f0:	040f      	.short	0x040f
 23fc0f2:	04          	.byte	0x04
 23fc0f3:	00          	.byte	0x00
          *p++ = g;
 23fc0f4:	55bc      	strb	r4, [r7, r6]
          *p++ = r;
 23fc0f6:	704b      	strb	r3, [r1, #1]
          *p = b;
 23fc0f8:	708d      	strb	r5, [r1, #2]
}
 23fc0fa:	e005      	b.n	23fc108 <_ZN17Adafruit_NeoPixel13setPixelColorEtm+0x64>
          *p++ = r;
 23fc0fc:	2bfe      	cmp	r3, #254	; 0xfe
 23fc0fe:	bf28      	it	cs
 23fc100:	23fe      	movcs	r3, #254	; 0xfe
 23fc102:	55bb      	strb	r3, [r7, r6]
          *p++ = b;
 23fc104:	704d      	strb	r5, [r1, #1]
          *p = g;
 23fc106:	708c      	strb	r4, [r1, #2]
}
 23fc108:	bdf0      	pop	{r4, r5, r6, r7, pc}
          *p++ = r;
 23fc10a:	55bb      	strb	r3, [r7, r6]
          *p++ = g;
 23fc10c:	704c      	strb	r4, [r1, #1]
          *p++ = b;
 23fc10e:	708d      	strb	r5, [r1, #2]
          *p = brightness ? ((w * brightness) >> 8) : w;
 23fc110:	7a03      	ldrb	r3, [r0, #8]
          uint8_t w = (uint8_t)(c >> 24);
 23fc112:	0e12      	lsrs	r2, r2, #24
          *p = brightness ? ((w * brightness) >> 8) : w;
 23fc114:	b913      	cbnz	r3, 23fc11c <_ZN17Adafruit_NeoPixel13setPixelColorEtm+0x78>
          uint8_t w = (uint8_t)(c >> 24);
 23fc116:	b2d2      	uxtb	r2, r2
          *p = brightness ? ((w * brightness) >> 8) : w;
 23fc118:	70ca      	strb	r2, [r1, #3]
        } break;
 23fc11a:	e7f5      	b.n	23fc108 <_ZN17Adafruit_NeoPixel13setPixelColorEtm+0x64>
          *p = brightness ? ((w * brightness) >> 8) : w;
 23fc11c:	435a      	muls	r2, r3
 23fc11e:	f3c2 2207 	ubfx	r2, r2, #8, #8
 23fc122:	e7f9      	b.n	23fc118 <_ZN17Adafruit_NeoPixel13setPixelColorEtm+0x74>
          *p++ = r;
 23fc124:	55bb      	strb	r3, [r7, r6]
          *p++ = g;
 23fc126:	704c      	strb	r4, [r1, #1]
 23fc128:	e7e6      	b.n	23fc0f8 <_ZN17Adafruit_NeoPixel13setPixelColorEtm+0x54>

023fc12a <_ZN17Adafruit_NeoPixel13setBrightnessEh>:
  // 8x8-bit multiply and taking the MSB.  'brightness' is a uint8_t,
  // adding 1 here may (intentionally) roll over...so 0 = max brightness
  // (color values are interpreted literally; no scaling), 1 = min
  // brightness (off), 255 = just below max brightness.
  uint8_t newBrightness = b + 1;
  if(newBrightness != brightness) { // Compare against prior value
 23fc12a:	7a03      	ldrb	r3, [r0, #8]
  uint8_t newBrightness = b + 1;
 23fc12c:	1c4a      	adds	r2, r1, #1
 23fc12e:	b2d2      	uxtb	r2, r2
  if(newBrightness != brightness) { // Compare against prior value
 23fc130:	4293      	cmp	r3, r2
void Adafruit_NeoPixel::setBrightness(uint8_t b) {
 23fc132:	b570      	push	{r4, r5, r6, lr}
  if(newBrightness != brightness) { // Compare against prior value
 23fc134:	d01f      	beq.n	23fc176 <_ZN17Adafruit_NeoPixel13setBrightnessEh+0x4c>
    // Brightness has changed -- re-scale existing data in RAM
    uint8_t  c,
            *ptr           = pixels,
             oldBrightness = brightness - 1; // De-wrap old brightness value
 23fc136:	3b01      	subs	r3, #1
    uint16_t scale;
    if(oldBrightness == 0) scale = 0; // Avoid /0
 23fc138:	f013 03ff 	ands.w	r3, r3, #255	; 0xff
            *ptr           = pixels,
 23fc13c:	68c4      	ldr	r4, [r0, #12]
    if(oldBrightness == 0) scale = 0; // Avoid /0
 23fc13e:	d00c      	beq.n	23fc15a <_ZN17Adafruit_NeoPixel13setBrightnessEh+0x30>
    else if(b == 255) scale = 65535 / oldBrightness;
 23fc140:	29ff      	cmp	r1, #255	; 0xff
 23fc142:	bf0f      	iteee	eq
 23fc144:	f64f 71ff 	movweq	r1, #65535	; 0xffff
    else scale = (((uint16_t)newBrightness << 8) - 1) / oldBrightness;
 23fc148:	0211      	lslne	r1, r2, #8
 23fc14a:	f101 31ff 	addne.w	r1, r1, #4294967295
 23fc14e:	fbb1 f3f3 	udivne	r3, r1, r3
    else if(b == 255) scale = 65535 / oldBrightness;
 23fc152:	bf0c      	ite	eq
 23fc154:	fbb1 f3f3 	udiveq	r3, r1, r3
    else scale = (((uint16_t)newBrightness << 8) - 1) / oldBrightness;
 23fc158:	b29b      	uxthne	r3, r3
            *ptr           = pixels,
 23fc15a:	4625      	mov	r5, r4
    for(uint16_t i=0; i<numBytes; i++) {
 23fc15c:	8886      	ldrh	r6, [r0, #4]
 23fc15e:	1b29      	subs	r1, r5, r4
 23fc160:	b289      	uxth	r1, r1
 23fc162:	428e      	cmp	r6, r1
 23fc164:	d906      	bls.n	23fc174 <_ZN17Adafruit_NeoPixel13setBrightnessEh+0x4a>
      c      = *ptr;
      *ptr++ = (c * scale) >> 8;
 23fc166:	7829      	ldrb	r1, [r5, #0]
 23fc168:	4359      	muls	r1, r3
 23fc16a:	f3c1 2107 	ubfx	r1, r1, #8, #8
 23fc16e:	f805 1b01 	strb.w	r1, [r5], #1
    for(uint16_t i=0; i<numBytes; i++) {
 23fc172:	e7f3      	b.n	23fc15c <_ZN17Adafruit_NeoPixel13setBrightnessEh+0x32>
    }
    brightness = newBrightness;
 23fc174:	7202      	strb	r2, [r0, #8]
  }
}
 23fc176:	bd70      	pop	{r4, r5, r6, pc}

023fc178 <_ZN16Adafruit_SSD130613drawFastHLineEssst>:
  } else {
    shiftOut(sid, sclk, MSBFIRST, d);		// SSD1306 specs show MSB out first
  }
}

void Adafruit_SSD1306::drawFastHLine(int16_t x, int16_t y, int16_t w, uint16_t color) {
 23fc178:	b5f0      	push	{r4, r5, r6, r7, lr}
  boolean bSwap = false;
  switch(rotation) { 
 23fc17a:	7e45      	ldrb	r5, [r0, #25]
void Adafruit_SSD1306::drawFastHLine(int16_t x, int16_t y, int16_t w, uint16_t color) {
 23fc17c:	f8bd 4014 	ldrh.w	r4, [sp, #20]
  switch(rotation) { 
 23fc180:	2d02      	cmp	r5, #2
 23fc182:	d069      	beq.n	23fc258 <_ZN16Adafruit_SSD130613drawFastHLineEssst+0xe0>
 23fc184:	2d03      	cmp	r5, #3
 23fc186:	f000 809b 	beq.w	23fc2c0 <_ZN16Adafruit_SSD130613drawFastHLineEssst+0x148>
 23fc18a:	2d01      	cmp	r5, #1
 23fc18c:	d16c      	bne.n	23fc268 <_ZN16Adafruit_SSD130613drawFastHLineEssst+0xf0>
      break;
    case 1:
      // 90 degree rotation, swap x & y for rotation, then invert x
      bSwap = true;
      swap(x, y);
      x = WIDTH - x - 1;
 23fc18e:	43d2      	mvns	r2, r2
 23fc190:	8905      	ldrh	r5, [r0, #8]
 23fc192:	442a      	add	r2, r5
 23fc194:	b212      	sxth	r2, r2


void Adafruit_SSD1306::drawFastVLineInternal(int16_t x, int16_t __y, int16_t __h, uint16_t color) {

  // do nothing if we're off the left or right side of the screen
  if(x < 0 || x >= WIDTH) { return; }
 23fc196:	2a00      	cmp	r2, #0
 23fc198:	db5d      	blt.n	23fc256 <_ZN16Adafruit_SSD130613drawFastHLineEssst+0xde>
 23fc19a:	f9b0 5008 	ldrsh.w	r5, [r0, #8]
 23fc19e:	4295      	cmp	r5, r2
 23fc1a0:	dd59      	ble.n	23fc256 <_ZN16Adafruit_SSD130613drawFastHLineEssst+0xde>

  // make sure we don't try to draw below 0
  if(__y < 0) { 
 23fc1a2:	2900      	cmp	r1, #0
    // __y is negative, this will subtract enough from __h to account for __y being 0
    __h += __y;
 23fc1a4:	bfbe      	ittt	lt
 23fc1a6:	185b      	addlt	r3, r3, r1
    __y = 0;
 23fc1a8:	2100      	movlt	r1, #0
    __h += __y;
 23fc1aa:	b21b      	sxthlt	r3, r3

  } 

  // make sure we don't go past the height of the display
  if( (__y + __h) > HEIGHT) { 
 23fc1ac:	f9b0 000a 	ldrsh.w	r0, [r0, #10]
 23fc1b0:	18cd      	adds	r5, r1, r3
 23fc1b2:	4285      	cmp	r5, r0
    __h = (HEIGHT - __y);
 23fc1b4:	bfc4      	itt	gt
 23fc1b6:	1a43      	subgt	r3, r0, r1
 23fc1b8:	b21b      	sxthgt	r3, r3
  }

  // if our height is now negative, punt 
  if(__h <= 0) { 
 23fc1ba:	2b00      	cmp	r3, #0
 23fc1bc:	dd4b      	ble.n	23fc256 <_ZN16Adafruit_SSD130613drawFastHLineEssst+0xde>
  // set up the pointer for fast movement through the buffer
  register uint8_t *pBuf = buffer;
  // adjust the buffer pointer for the current row
  pBuf += ((y/8) * SSD1306_LCDWIDTH);
  // and offset x columns in
  pBuf += x;
 23fc1be:	f3c1 00c4 	ubfx	r0, r1, #3, #5
 23fc1c2:	f8df c124 	ldr.w	ip, [pc, #292]	; 23fc2e8 <_ZN16Adafruit_SSD130613drawFastHLineEssst+0x170>
 23fc1c6:	eb02 12c0 	add.w	r2, r2, r0, lsl #7

  // do the first partial byte, if necessary - this requires some masking
  register uint8_t mod = (y&7);
  if(mod) {
 23fc1ca:	f011 0107 	ands.w	r1, r1, #7
  register uint8_t h = __h;
 23fc1ce:	b2db      	uxtb	r3, r3
  pBuf += x;
 23fc1d0:	eb0c 0002 	add.w	r0, ip, r2
  if(mod) {
 23fc1d4:	d01a      	beq.n	23fc20c <_ZN16Adafruit_SSD130613drawFastHLineEssst+0x94>
    // mask off the high n bits we want to set 
    mod = 8-mod;
 23fc1d6:	f1c1 0508 	rsb	r5, r1, #8

    // note - lookup table results in a nearly 10% performance improvement in fill* functions
    // register uint8_t mask = ~(0xFF >> (mod));
    static uint8_t premask[8] = {0x00, 0x80, 0xC0, 0xE0, 0xF0, 0xF8, 0xFC, 0xFE };
    register uint8_t mask = premask[mod];
 23fc1da:	4e41      	ldr	r6, [pc, #260]	; (23fc2e0 <_ZN16Adafruit_SSD130613drawFastHLineEssst+0x168>)
    mod = 8-mod;
 23fc1dc:	b2ed      	uxtb	r5, r5

    // adjust the mask if we're not going to reach the end of this byte
    if( h < mod) { 
 23fc1de:	42ab      	cmp	r3, r5
    register uint8_t mask = premask[mod];
 23fc1e0:	5d77      	ldrb	r7, [r6, r5]
      mask &= (0XFF >> (mod-h));
 23fc1e2:	bf3f      	itttt	cc
 23fc1e4:	26ff      	movcc	r6, #255	; 0xff
 23fc1e6:	eba5 0e03 	subcc.w	lr, r5, r3
 23fc1ea:	fa46 f60e 	asrcc.w	r6, r6, lr
 23fc1ee:	4037      	andcc	r7, r6
    }

    if(color == WHITE) { 
      *pBuf |= mask;
 23fc1f0:	f81c 6002 	ldrb.w	r6, [ip, r2]
    if(color == WHITE) { 
 23fc1f4:	2c01      	cmp	r4, #1
      *pBuf |= mask;
 23fc1f6:	bf0c      	ite	eq
 23fc1f8:	433e      	orreq	r6, r7
    } else {
      *pBuf &= ~mask;
 23fc1fa:	43be      	bicne	r6, r7
    }

    // fast exit if we're done here!
    if(h<mod) { return; }
 23fc1fc:	42ab      	cmp	r3, r5
 23fc1fe:	f80c 6002 	strb.w	r6, [ip, r2]
 23fc202:	d328      	bcc.n	23fc256 <_ZN16Adafruit_SSD130613drawFastHLineEssst+0xde>

    h -= mod;
 23fc204:	3908      	subs	r1, #8
 23fc206:	440b      	add	r3, r1
 23fc208:	b2db      	uxtb	r3, r3

    pBuf += SSD1306_LCDWIDTH;
 23fc20a:	3080      	adds	r0, #128	; 0x80
  }


  // write solid bytes while we can - effectively doing 8 rows at a time
  if(h >= 8) { 
 23fc20c:	2b07      	cmp	r3, #7
 23fc20e:	d919      	bls.n	23fc244 <_ZN16Adafruit_SSD130613drawFastHLineEssst+0xcc>
    // store a local value to work with 
    register uint8_t val = (color == WHITE) ? 255 : 0;
 23fc210:	2c01      	cmp	r4, #1
 23fc212:	f04f 35ff 	mov.w	r5, #4294967295
 23fc216:	bf18      	it	ne
 23fc218:	2500      	movne	r5, #0
 23fc21a:	461a      	mov	r2, r3
 23fc21c:	b2ed      	uxtb	r5, r5
 23fc21e:	f100 0180 	add.w	r1, r0, #128	; 0x80

      // adjust the buffer forward 8 rows worth of data
      pBuf += SSD1306_LCDWIDTH;

      // adjust h & y (there's got to be a faster way for me to do this, but this should still help a fair bit for now)
      h -= 8;
 23fc222:	3a08      	subs	r2, #8
 23fc224:	b2d2      	uxtb	r2, r2
    } while(h >= 8);
 23fc226:	2a07      	cmp	r2, #7
      *pBuf = val;
 23fc228:	f801 5c80 	strb.w	r5, [r1, #-128]
    } while(h >= 8);
 23fc22c:	f101 0180 	add.w	r1, r1, #128	; 0x80
 23fc230:	d8f7      	bhi.n	23fc222 <_ZN16Adafruit_SSD130613drawFastHLineEssst+0xaa>
      pBuf += SSD1306_LCDWIDTH;
 23fc232:	f1a3 0208 	sub.w	r2, r3, #8
 23fc236:	f3c2 02c4 	ubfx	r2, r2, #3, #5
 23fc23a:	3201      	adds	r2, #1
 23fc23c:	eb00 10c2 	add.w	r0, r0, r2, lsl #7
      h -= 8;
 23fc240:	f003 0307 	and.w	r3, r3, #7
  }

  // now do the final partial byte, if necessary
  if(h) {
 23fc244:	b13b      	cbz	r3, 23fc256 <_ZN16Adafruit_SSD130613drawFastHLineEssst+0xde>
    mod = h & 7;
    // this time we want to mask the low bits of the byte, vs the high bits we did above
    // register uint8_t mask = (1 << mod) - 1;
    // note - lookup table results in a nearly 10% performance improvement in fill* functions
    static uint8_t postmask[8] = {0x00, 0x01, 0x03, 0x07, 0x0F, 0x1F, 0x3F, 0x7F };
    register uint8_t mask = postmask[mod];
 23fc246:	4a27      	ldr	r2, [pc, #156]	; (23fc2e4 <_ZN16Adafruit_SSD130613drawFastHLineEssst+0x16c>)
    if(color == WHITE) { 
 23fc248:	2c01      	cmp	r4, #1
    register uint8_t mask = postmask[mod];
 23fc24a:	5cd2      	ldrb	r2, [r2, r3]
      *pBuf |= mask;
 23fc24c:	7803      	ldrb	r3, [r0, #0]
 23fc24e:	bf0c      	ite	eq
 23fc250:	4313      	orreq	r3, r2
    } else { 
      *pBuf &= ~mask;
 23fc252:	4393      	bicne	r3, r2
 23fc254:	7003      	strb	r3, [r0, #0]
}
 23fc256:	bdf0      	pop	{r4, r5, r6, r7, pc}
      y = HEIGHT - y - 1;
 23fc258:	43d2      	mvns	r2, r2
 23fc25a:	8945      	ldrh	r5, [r0, #10]
 23fc25c:	442a      	add	r2, r5
      x -= (w-1);
 23fc25e:	18cd      	adds	r5, r1, r3
 23fc260:	8901      	ldrh	r1, [r0, #8]
      y = HEIGHT - y - 1;
 23fc262:	b212      	sxth	r2, r2
      x -= (w-1);
 23fc264:	1b49      	subs	r1, r1, r5
 23fc266:	b209      	sxth	r1, r1
  if(y < 0 || y >= HEIGHT) { return; }
 23fc268:	2a00      	cmp	r2, #0
 23fc26a:	dbf4      	blt.n	23fc256 <_ZN16Adafruit_SSD130613drawFastHLineEssst+0xde>
 23fc26c:	f9b0 500a 	ldrsh.w	r5, [r0, #10]
 23fc270:	4295      	cmp	r5, r2
 23fc272:	ddf0      	ble.n	23fc256 <_ZN16Adafruit_SSD130613drawFastHLineEssst+0xde>
  if(x < 0) { 
 23fc274:	2900      	cmp	r1, #0
    w += x;
 23fc276:	bfbe      	ittt	lt
 23fc278:	185b      	addlt	r3, r3, r1
    x = 0;
 23fc27a:	2100      	movlt	r1, #0
    w += x;
 23fc27c:	b21b      	sxthlt	r3, r3
  if( (x + w) > WIDTH) { 
 23fc27e:	f9b0 7008 	ldrsh.w	r7, [r0, #8]
 23fc282:	18ce      	adds	r6, r1, r3
 23fc284:	42be      	cmp	r6, r7
    w = (HEIGHT- x);
 23fc286:	bfc4      	itt	gt
 23fc288:	1a6b      	subgt	r3, r5, r1
 23fc28a:	b21b      	sxthgt	r3, r3
  if(w <= 0) { return; }
 23fc28c:	2b00      	cmp	r3, #0
 23fc28e:	dde2      	ble.n	23fc256 <_ZN16Adafruit_SSD130613drawFastHLineEssst+0xde>
  pBuf += x;
 23fc290:	2580      	movs	r5, #128	; 0x80
  pBuf += ((y/8) * SSD1306_LCDWIDTH);
 23fc292:	10d0      	asrs	r0, r2, #3
  pBuf += x;
 23fc294:	fb10 1105 	smlabb	r1, r0, r5, r1
 23fc298:	4813      	ldr	r0, [pc, #76]	; (23fc2e8 <_ZN16Adafruit_SSD130613drawFastHLineEssst+0x170>)
  if(color == WHITE) { 
 23fc29a:	2c01      	cmp	r4, #1
  pBuf += x;
 23fc29c:	4401      	add	r1, r0
  register uint8_t mask = 1 << (y&7);
 23fc29e:	f002 0007 	and.w	r0, r2, #7
 23fc2a2:	f04f 0201 	mov.w	r2, #1
 23fc2a6:	fa02 f200 	lsl.w	r2, r2, r0
 23fc2aa:	b2d2      	uxtb	r2, r2
  if(color == WHITE) { 
 23fc2ac:	440b      	add	r3, r1
 23fc2ae:	d10c      	bne.n	23fc2ca <_ZN16Adafruit_SSD130613drawFastHLineEssst+0x152>
    while(w--) { *pBuf++ |= mask; }
 23fc2b0:	428b      	cmp	r3, r1
 23fc2b2:	d0d0      	beq.n	23fc256 <_ZN16Adafruit_SSD130613drawFastHLineEssst+0xde>
 23fc2b4:	f811 0b01 	ldrb.w	r0, [r1], #1
 23fc2b8:	4310      	orrs	r0, r2
 23fc2ba:	f801 0c01 	strb.w	r0, [r1, #-1]
 23fc2be:	e7f7      	b.n	23fc2b0 <_ZN16Adafruit_SSD130613drawFastHLineEssst+0x138>
      y -= (w-1);
 23fc2c0:	18cd      	adds	r5, r1, r3
 23fc2c2:	8941      	ldrh	r1, [r0, #10]
 23fc2c4:	1b49      	subs	r1, r1, r5
 23fc2c6:	b209      	sxth	r1, r1
      break;
 23fc2c8:	e765      	b.n	23fc196 <_ZN16Adafruit_SSD130613drawFastHLineEssst+0x1e>
    mask = ~mask;
 23fc2ca:	43d2      	mvns	r2, r2
 23fc2cc:	b2d2      	uxtb	r2, r2
    while(w--) { *pBuf++ &= mask; }
 23fc2ce:	428b      	cmp	r3, r1
 23fc2d0:	d0c1      	beq.n	23fc256 <_ZN16Adafruit_SSD130613drawFastHLineEssst+0xde>
 23fc2d2:	f811 0b01 	ldrb.w	r0, [r1], #1
 23fc2d6:	4010      	ands	r0, r2
 23fc2d8:	f801 0c01 	strb.w	r0, [r1, #-1]
 23fc2dc:	e7f7      	b.n	23fc2ce <_ZN16Adafruit_SSD130613drawFastHLineEssst+0x156>
 23fc2de:	bf00      	nop
 23fc2e0:	1007a808 	.word	0x1007a808
 23fc2e4:	1007a800 	.word	0x1007a800
 23fc2e8:	1007a810 	.word	0x1007a810

023fc2ec <_ZN16Adafruit_SSD130613drawFastVLineEssst>:
void Adafruit_SSD1306::drawFastVLine(int16_t x, int16_t y, int16_t h, uint16_t color) {
 23fc2ec:	b5f0      	push	{r4, r5, r6, r7, lr}
  switch(rotation) { 
 23fc2ee:	7e45      	ldrb	r5, [r0, #25]
void Adafruit_SSD1306::drawFastVLine(int16_t x, int16_t y, int16_t h, uint16_t color) {
 23fc2f0:	f8bd 4014 	ldrh.w	r4, [sp, #20]
  switch(rotation) { 
 23fc2f4:	2d02      	cmp	r5, #2
 23fc2f6:	d036      	beq.n	23fc366 <_ZN16Adafruit_SSD130613drawFastVLineEssst+0x7a>
 23fc2f8:	2d03      	cmp	r5, #3
 23fc2fa:	f000 809d 	beq.w	23fc438 <_ZN16Adafruit_SSD130613drawFastVLineEssst+0x14c>
 23fc2fe:	2d01      	cmp	r5, #1
 23fc300:	d139      	bne.n	23fc376 <_ZN16Adafruit_SSD130613drawFastVLineEssst+0x8a>
      x -= (h-1);
 23fc302:	18d5      	adds	r5, r2, r3
 23fc304:	8902      	ldrh	r2, [r0, #8]
 23fc306:	1b52      	subs	r2, r2, r5
 23fc308:	b212      	sxth	r2, r2
  if(y < 0 || y >= HEIGHT) { return; }
 23fc30a:	2900      	cmp	r1, #0
 23fc30c:	f2c0 8093 	blt.w	23fc436 <_ZN16Adafruit_SSD130613drawFastVLineEssst+0x14a>
 23fc310:	f9b0 500a 	ldrsh.w	r5, [r0, #10]
 23fc314:	428d      	cmp	r5, r1
 23fc316:	f340 808e 	ble.w	23fc436 <_ZN16Adafruit_SSD130613drawFastVLineEssst+0x14a>
  if(x < 0) { 
 23fc31a:	2a00      	cmp	r2, #0
    w += x;
 23fc31c:	bfbe      	ittt	lt
 23fc31e:	189b      	addlt	r3, r3, r2
    x = 0;
 23fc320:	2200      	movlt	r2, #0
    w += x;
 23fc322:	b21b      	sxthlt	r3, r3
  if( (x + w) > WIDTH) { 
 23fc324:	f9b0 7008 	ldrsh.w	r7, [r0, #8]
 23fc328:	18d6      	adds	r6, r2, r3
 23fc32a:	42be      	cmp	r6, r7
    w = (HEIGHT- x);
 23fc32c:	bfc4      	itt	gt
 23fc32e:	1aab      	subgt	r3, r5, r2
 23fc330:	b21b      	sxthgt	r3, r3
  if(w <= 0) { return; }
 23fc332:	2b00      	cmp	r3, #0
 23fc334:	dd7f      	ble.n	23fc436 <_ZN16Adafruit_SSD130613drawFastVLineEssst+0x14a>
  pBuf += x;
 23fc336:	2580      	movs	r5, #128	; 0x80
  pBuf += ((y/8) * SSD1306_LCDWIDTH);
 23fc338:	10c8      	asrs	r0, r1, #3
  pBuf += x;
 23fc33a:	fb10 2205 	smlabb	r2, r0, r5, r2
 23fc33e:	4846      	ldr	r0, [pc, #280]	; (23fc458 <_ZN16Adafruit_SSD130613drawFastVLineEssst+0x16c>)
  if(color == WHITE) { 
 23fc340:	2c01      	cmp	r4, #1
  pBuf += x;
 23fc342:	4402      	add	r2, r0
  register uint8_t mask = 1 << (y&7);
 23fc344:	f001 0007 	and.w	r0, r1, #7
 23fc348:	f04f 0101 	mov.w	r1, #1
 23fc34c:	fa01 f100 	lsl.w	r1, r1, r0
 23fc350:	b2c9      	uxtb	r1, r1
  if(color == WHITE) { 
 23fc352:	4413      	add	r3, r2
 23fc354:	d175      	bne.n	23fc442 <_ZN16Adafruit_SSD130613drawFastVLineEssst+0x156>
    while(w--) { *pBuf++ |= mask; }
 23fc356:	429a      	cmp	r2, r3
 23fc358:	d06d      	beq.n	23fc436 <_ZN16Adafruit_SSD130613drawFastVLineEssst+0x14a>
 23fc35a:	f812 0b01 	ldrb.w	r0, [r2], #1
 23fc35e:	4308      	orrs	r0, r1
 23fc360:	f802 0c01 	strb.w	r0, [r2, #-1]
 23fc364:	e7f7      	b.n	23fc356 <_ZN16Adafruit_SSD130613drawFastVLineEssst+0x6a>
      x = WIDTH - x - 1;
 23fc366:	43c9      	mvns	r1, r1
 23fc368:	8905      	ldrh	r5, [r0, #8]
 23fc36a:	4429      	add	r1, r5
      y -= (h-1);
 23fc36c:	18d5      	adds	r5, r2, r3
 23fc36e:	8942      	ldrh	r2, [r0, #10]
      x = WIDTH - x - 1;
 23fc370:	b209      	sxth	r1, r1
      y -= (h-1);
 23fc372:	1b52      	subs	r2, r2, r5
 23fc374:	b212      	sxth	r2, r2
  if(x < 0 || x >= WIDTH) { return; }
 23fc376:	2900      	cmp	r1, #0
 23fc378:	db5d      	blt.n	23fc436 <_ZN16Adafruit_SSD130613drawFastVLineEssst+0x14a>
 23fc37a:	f9b0 5008 	ldrsh.w	r5, [r0, #8]
 23fc37e:	428d      	cmp	r5, r1
 23fc380:	dd59      	ble.n	23fc436 <_ZN16Adafruit_SSD130613drawFastVLineEssst+0x14a>
  if(__y < 0) { 
 23fc382:	2a00      	cmp	r2, #0
    __h += __y;
 23fc384:	bfbe      	ittt	lt
 23fc386:	189b      	addlt	r3, r3, r2
    __y = 0;
 23fc388:	2200      	movlt	r2, #0
    __h += __y;
 23fc38a:	b21b      	sxthlt	r3, r3
  if( (__y + __h) > HEIGHT) { 
 23fc38c:	f9b0 000a 	ldrsh.w	r0, [r0, #10]
 23fc390:	18d5      	adds	r5, r2, r3
 23fc392:	4285      	cmp	r5, r0
    __h = (HEIGHT - __y);
 23fc394:	bfc4      	itt	gt
 23fc396:	1a83      	subgt	r3, r0, r2
 23fc398:	b21b      	sxthgt	r3, r3
  if(__h <= 0) { 
 23fc39a:	2b00      	cmp	r3, #0
 23fc39c:	dd4b      	ble.n	23fc436 <_ZN16Adafruit_SSD130613drawFastVLineEssst+0x14a>
  pBuf += x;
 23fc39e:	f3c2 00c4 	ubfx	r0, r2, #3, #5
 23fc3a2:	f8df c0b4 	ldr.w	ip, [pc, #180]	; 23fc458 <_ZN16Adafruit_SSD130613drawFastVLineEssst+0x16c>
 23fc3a6:	eb01 11c0 	add.w	r1, r1, r0, lsl #7
  if(mod) {
 23fc3aa:	f012 0207 	ands.w	r2, r2, #7
  register uint8_t h = __h;
 23fc3ae:	b2db      	uxtb	r3, r3
  pBuf += x;
 23fc3b0:	eb0c 0001 	add.w	r0, ip, r1
  if(mod) {
 23fc3b4:	d01a      	beq.n	23fc3ec <_ZN16Adafruit_SSD130613drawFastVLineEssst+0x100>
    mod = 8-mod;
 23fc3b6:	f1c2 0508 	rsb	r5, r2, #8
    register uint8_t mask = premask[mod];
 23fc3ba:	4e28      	ldr	r6, [pc, #160]	; (23fc45c <_ZN16Adafruit_SSD130613drawFastVLineEssst+0x170>)
    mod = 8-mod;
 23fc3bc:	b2ed      	uxtb	r5, r5
    if( h < mod) { 
 23fc3be:	42ab      	cmp	r3, r5
    register uint8_t mask = premask[mod];
 23fc3c0:	5d77      	ldrb	r7, [r6, r5]
      mask &= (0XFF >> (mod-h));
 23fc3c2:	bf3f      	itttt	cc
 23fc3c4:	26ff      	movcc	r6, #255	; 0xff
 23fc3c6:	eba5 0e03 	subcc.w	lr, r5, r3
 23fc3ca:	fa46 f60e 	asrcc.w	r6, r6, lr
 23fc3ce:	4037      	andcc	r7, r6
      *pBuf |= mask;
 23fc3d0:	f81c 6001 	ldrb.w	r6, [ip, r1]
    if(color == WHITE) { 
 23fc3d4:	2c01      	cmp	r4, #1
      *pBuf |= mask;
 23fc3d6:	bf0c      	ite	eq
 23fc3d8:	433e      	orreq	r6, r7
      *pBuf &= ~mask;
 23fc3da:	43be      	bicne	r6, r7
    if(h<mod) { return; }
 23fc3dc:	42ab      	cmp	r3, r5
 23fc3de:	f80c 6001 	strb.w	r6, [ip, r1]
 23fc3e2:	d328      	bcc.n	23fc436 <_ZN16Adafruit_SSD130613drawFastVLineEssst+0x14a>
    h -= mod;
 23fc3e4:	3a08      	subs	r2, #8
 23fc3e6:	4413      	add	r3, r2
 23fc3e8:	b2db      	uxtb	r3, r3
    pBuf += SSD1306_LCDWIDTH;
 23fc3ea:	3080      	adds	r0, #128	; 0x80
  if(h >= 8) { 
 23fc3ec:	2b07      	cmp	r3, #7
 23fc3ee:	d919      	bls.n	23fc424 <_ZN16Adafruit_SSD130613drawFastVLineEssst+0x138>
    register uint8_t val = (color == WHITE) ? 255 : 0;
 23fc3f0:	2c01      	cmp	r4, #1
 23fc3f2:	f04f 35ff 	mov.w	r5, #4294967295
 23fc3f6:	bf18      	it	ne
 23fc3f8:	2500      	movne	r5, #0
 23fc3fa:	461a      	mov	r2, r3
 23fc3fc:	b2ed      	uxtb	r5, r5
 23fc3fe:	f100 0180 	add.w	r1, r0, #128	; 0x80
      h -= 8;
 23fc402:	3a08      	subs	r2, #8
 23fc404:	b2d2      	uxtb	r2, r2
    } while(h >= 8);
 23fc406:	2a07      	cmp	r2, #7
      *pBuf = val;
 23fc408:	f801 5c80 	strb.w	r5, [r1, #-128]
    } while(h >= 8);
 23fc40c:	f101 0180 	add.w	r1, r1, #128	; 0x80
 23fc410:	d8f7      	bhi.n	23fc402 <_ZN16Adafruit_SSD130613drawFastVLineEssst+0x116>
      pBuf += SSD1306_LCDWIDTH;
 23fc412:	f1a3 0208 	sub.w	r2, r3, #8
 23fc416:	f3c2 02c4 	ubfx	r2, r2, #3, #5
 23fc41a:	3201      	adds	r2, #1
 23fc41c:	eb00 10c2 	add.w	r0, r0, r2, lsl #7
      h -= 8;
 23fc420:	f003 0307 	and.w	r3, r3, #7
  if(h) {
 23fc424:	b13b      	cbz	r3, 23fc436 <_ZN16Adafruit_SSD130613drawFastVLineEssst+0x14a>
    register uint8_t mask = postmask[mod];
 23fc426:	4a0e      	ldr	r2, [pc, #56]	; (23fc460 <_ZN16Adafruit_SSD130613drawFastVLineEssst+0x174>)
    if(color == WHITE) { 
 23fc428:	2c01      	cmp	r4, #1
    register uint8_t mask = postmask[mod];
 23fc42a:	5cd2      	ldrb	r2, [r2, r3]
      *pBuf |= mask;
 23fc42c:	7803      	ldrb	r3, [r0, #0]
 23fc42e:	bf0c      	ite	eq
 23fc430:	4313      	orreq	r3, r2
      *pBuf &= ~mask;
 23fc432:	4393      	bicne	r3, r2
 23fc434:	7003      	strb	r3, [r0, #0]
}
 23fc436:	bdf0      	pop	{r4, r5, r6, r7, pc}
      y = HEIGHT - y - 1;
 23fc438:	43c9      	mvns	r1, r1
 23fc43a:	8945      	ldrh	r5, [r0, #10]
 23fc43c:	4429      	add	r1, r5
 23fc43e:	b209      	sxth	r1, r1
      break;
 23fc440:	e763      	b.n	23fc30a <_ZN16Adafruit_SSD130613drawFastVLineEssst+0x1e>
    mask = ~mask;
 23fc442:	43c9      	mvns	r1, r1
 23fc444:	b2c9      	uxtb	r1, r1
    while(w--) { *pBuf++ &= mask; }
 23fc446:	429a      	cmp	r2, r3
 23fc448:	d0f5      	beq.n	23fc436 <_ZN16Adafruit_SSD130613drawFastVLineEssst+0x14a>
 23fc44a:	f812 0b01 	ldrb.w	r0, [r2], #1
 23fc44e:	4008      	ands	r0, r1
 23fc450:	f802 0c01 	strb.w	r0, [r2, #-1]
 23fc454:	e7f7      	b.n	23fc446 <_ZN16Adafruit_SSD130613drawFastVLineEssst+0x15a>
 23fc456:	bf00      	nop
 23fc458:	1007a810 	.word	0x1007a810
 23fc45c:	1007a808 	.word	0x1007a808
 23fc460:	1007a800 	.word	0x1007a800

023fc464 <_ZN16Adafruit_SSD1306D1Ev>:
#define SSD1306_RIGHT_HORIZONTAL_SCROLL 0x26
#define SSD1306_LEFT_HORIZONTAL_SCROLL 0x27
#define SSD1306_VERTICAL_AND_RIGHT_HORIZONTAL_SCROLL 0x29
#define SSD1306_VERTICAL_AND_LEFT_HORIZONTAL_SCROLL 0x2A

class Adafruit_SSD1306 : public Adafruit_GFX {
 23fc464:	4770      	bx	lr
	...

023fc468 <_ZN16Adafruit_SSD13069drawPixelEsst>:
void Adafruit_SSD1306::drawPixel(int16_t x, int16_t y, uint16_t color) {
 23fc468:	b5f8      	push	{r3, r4, r5, r6, r7, lr}
  if ((x < 0) || (x >= width()) || (y < 0) || (y >= height()))
 23fc46a:	1e0d      	subs	r5, r1, #0
void Adafruit_SSD1306::drawPixel(int16_t x, int16_t y, uint16_t color) {
 23fc46c:	4606      	mov	r6, r0
 23fc46e:	4614      	mov	r4, r2
 23fc470:	461f      	mov	r7, r3
  if ((x < 0) || (x >= width()) || (y < 0) || (y >= height()))
 23fc472:	db2d      	blt.n	23fc4d0 <_ZN16Adafruit_SSD13069drawPixelEsst+0x68>
 23fc474:	f000 fbfd 	bl	23fcc72 <_ZN12Adafruit_GFX5widthEv>
 23fc478:	42a8      	cmp	r0, r5
 23fc47a:	dd29      	ble.n	23fc4d0 <_ZN16Adafruit_SSD13069drawPixelEsst+0x68>
 23fc47c:	2c00      	cmp	r4, #0
 23fc47e:	db27      	blt.n	23fc4d0 <_ZN16Adafruit_SSD13069drawPixelEsst+0x68>
 23fc480:	4630      	mov	r0, r6
 23fc482:	f000 fbf9 	bl	23fcc78 <_ZN12Adafruit_GFX6heightEv>
 23fc486:	42a0      	cmp	r0, r4
 23fc488:	dd22      	ble.n	23fc4d0 <_ZN16Adafruit_SSD13069drawPixelEsst+0x68>
  switch (getRotation()) {
 23fc48a:	4630      	mov	r0, r6
 23fc48c:	f000 fbef 	bl	23fcc6e <_ZN12Adafruit_GFX11getRotationEv>
 23fc490:	2802      	cmp	r0, #2
 23fc492:	d01e      	beq.n	23fc4d2 <_ZN16Adafruit_SSD13069drawPixelEsst+0x6a>
 23fc494:	2803      	cmp	r0, #3
 23fc496:	d025      	beq.n	23fc4e4 <_ZN16Adafruit_SSD13069drawPixelEsst+0x7c>
 23fc498:	2801      	cmp	r0, #1
 23fc49a:	d104      	bne.n	23fc4a6 <_ZN16Adafruit_SSD13069drawPixelEsst+0x3e>
    x = WIDTH - x - 1;
 23fc49c:	43e2      	mvns	r2, r4
 23fc49e:	8933      	ldrh	r3, [r6, #8]
    break;
 23fc4a0:	462c      	mov	r4, r5
    x = WIDTH - x - 1;
 23fc4a2:	441a      	add	r2, r3
 23fc4a4:	b215      	sxth	r5, r2
    buffer[x+ (y/8)*SSD1306_LCDWIDTH] |= (1 << (y&7));  
 23fc4a6:	4622      	mov	r2, r4
 23fc4a8:	2180      	movs	r1, #128	; 0x80
 23fc4aa:	2c00      	cmp	r4, #0
 23fc4ac:	bfb8      	it	lt
 23fc4ae:	1de2      	addlt	r2, r4, #7
 23fc4b0:	10d2      	asrs	r2, r2, #3
 23fc4b2:	fb12 5501 	smlabb	r5, r2, r1, r5
 23fc4b6:	2201      	movs	r2, #1
 23fc4b8:	490d      	ldr	r1, [pc, #52]	; (23fc4f0 <_ZN16Adafruit_SSD13069drawPixelEsst+0x88>)
 23fc4ba:	f004 0407 	and.w	r4, r4, #7
 23fc4be:	574b      	ldrsb	r3, [r1, r5]
 23fc4c0:	fa02 f404 	lsl.w	r4, r2, r4
 23fc4c4:	b264      	sxtb	r4, r4
  if (color == WHITE) 
 23fc4c6:	4297      	cmp	r7, r2
    buffer[x+ (y/8)*SSD1306_LCDWIDTH] |= (1 << (y&7));  
 23fc4c8:	bf0c      	ite	eq
 23fc4ca:	4323      	orreq	r3, r4
    buffer[x+ (y/8)*SSD1306_LCDWIDTH] &= ~(1 << (y&7)); 
 23fc4cc:	43a3      	bicne	r3, r4
 23fc4ce:	554b      	strb	r3, [r1, r5]
}
 23fc4d0:	bdf8      	pop	{r3, r4, r5, r6, r7, pc}
    y = HEIGHT - y - 1;
 23fc4d2:	43e4      	mvns	r4, r4
    x = WIDTH - x - 1;
 23fc4d4:	8931      	ldrh	r1, [r6, #8]
    y = HEIGHT - y - 1;
 23fc4d6:	8972      	ldrh	r2, [r6, #10]
    x = WIDTH - x - 1;
 23fc4d8:	3901      	subs	r1, #1
 23fc4da:	1b4d      	subs	r5, r1, r5
    y = HEIGHT - y - 1;
 23fc4dc:	4414      	add	r4, r2
    x = WIDTH - x - 1;
 23fc4de:	b22d      	sxth	r5, r5
    y = HEIGHT - y - 1;
 23fc4e0:	b224      	sxth	r4, r4
    break;
 23fc4e2:	e7e0      	b.n	23fc4a6 <_ZN16Adafruit_SSD13069drawPixelEsst+0x3e>
    y = HEIGHT - y - 1;
 23fc4e4:	8973      	ldrh	r3, [r6, #10]
 23fc4e6:	3b01      	subs	r3, #1
 23fc4e8:	1b5b      	subs	r3, r3, r5
    break;
 23fc4ea:	4625      	mov	r5, r4
    y = HEIGHT - y - 1;
 23fc4ec:	b21c      	sxth	r4, r3
    break;
 23fc4ee:	e7da      	b.n	23fc4a6 <_ZN16Adafruit_SSD13069drawPixelEsst+0x3e>
 23fc4f0:	1007a810 	.word	0x1007a810

023fc4f4 <_ZN16Adafruit_SSD1306D0Ev>:
 23fc4f4:	b510      	push	{r4, lr}
 23fc4f6:	4604      	mov	r4, r0
 23fc4f8:	2124      	movs	r1, #36	; 0x24
 23fc4fa:	f7fe faac 	bl	23faa56 <_ZdlPvj>
 23fc4fe:	4620      	mov	r0, r4
 23fc500:	bd10      	pop	{r4, pc}
	...

023fc504 <_ZN16Adafruit_SSD1306C1Ea>:
Adafruit_SSD1306::Adafruit_SSD1306(int8_t reset) :
 23fc504:	b538      	push	{r3, r4, r5, lr}
 23fc506:	4604      	mov	r4, r0
 23fc508:	460d      	mov	r5, r1
Adafruit_GFX(SSD1306_LCDWIDTH, SSD1306_LCDHEIGHT) {
 23fc50a:	2240      	movs	r2, #64	; 0x40
 23fc50c:	2180      	movs	r1, #128	; 0x80
 23fc50e:	f000 fa8b 	bl	23fca28 <_ZN12Adafruit_GFXC1Ess>
 23fc512:	4b06      	ldr	r3, [pc, #24]	; (23fc52c <_ZN16Adafruit_SSD1306C1Ea+0x28>)
}
 23fc514:	4620      	mov	r0, r4
Adafruit_GFX(SSD1306_LCDWIDTH, SSD1306_LCDHEIGHT) {
 23fc516:	6023      	str	r3, [r4, #0]
  sclk = dc = cs = sid = -1;
 23fc518:	23ff      	movs	r3, #255	; 0xff
 23fc51a:	f884 3021 	strb.w	r3, [r4, #33]	; 0x21
 23fc51e:	7763      	strb	r3, [r4, #29]
 23fc520:	f64f 73ff 	movw	r3, #65535	; 0xffff
  rst = reset;
 23fc524:	f884 5020 	strb.w	r5, [r4, #32]
  sclk = dc = cs = sid = -1;
 23fc528:	83e3      	strh	r3, [r4, #30]
}
 23fc52a:	bd38      	pop	{r3, r4, r5, pc}
 23fc52c:	023ff6a8 	.word	0x023ff6a8

023fc530 <_ZN16Adafruit_SSD130612clearDisplayEv>:
  memset(buffer, 0, (SSD1306_LCDWIDTH*SSD1306_LCDHEIGHT/8));
 23fc530:	f44f 6280 	mov.w	r2, #1024	; 0x400
 23fc534:	2100      	movs	r1, #0
 23fc536:	4801      	ldr	r0, [pc, #4]	; (23fc53c <_ZN16Adafruit_SSD130612clearDisplayEv+0xc>)
 23fc538:	f002 bdc5 	b.w	23ff0c6 <memset>
 23fc53c:	1007a810 	.word	0x1007a810

023fc540 <_ZN16Adafruit_SSD130612fastSPIwriteEh>:
inline void Adafruit_SSD1306::fastSPIwrite(uint8_t d) {
 23fc540:	b507      	push	{r0, r1, r2, lr}
  if(hwSPI) {
 23fc542:	f890 3022 	ldrb.w	r3, [r0, #34]	; 0x22
 23fc546:	b143      	cbz	r3, 23fc55a <_ZN16Adafruit_SSD130612fastSPIwriteEh+0x1a>
 23fc548:	9101      	str	r1, [sp, #4]
        return instance().transfer(data);
 23fc54a:	f7ff f8c5 	bl	23fb6d8 <_ZN8particle8SpiProxyIL19hal_spi_interface_t0EE8instanceEv>
 23fc54e:	9901      	ldr	r1, [sp, #4]
}
 23fc550:	b003      	add	sp, #12
 23fc552:	f85d eb04 	ldr.w	lr, [sp], #4
 23fc556:	f001 ba93 	b.w	23fda80 <_ZN8SPIClass8transferEh>
    shiftOut(sid, sclk, MSBFIRST, d);		// SSD1306 specs show MSB out first
 23fc55a:	460b      	mov	r3, r1
 23fc55c:	2201      	movs	r2, #1
 23fc55e:	7f81      	ldrb	r1, [r0, #30]
 23fc560:	7f40      	ldrb	r0, [r0, #29]
}
 23fc562:	b003      	add	sp, #12
 23fc564:	f85d eb04 	ldr.w	lr, [sp], #4
    shiftOut(sid, sclk, MSBFIRST, d);		// SSD1306 specs show MSB out first
 23fc568:	f002 bb61 	b.w	23fec2e <shiftOut>

023fc56c <_ZN16Adafruit_SSD130615ssd1306_commandEh>:
void Adafruit_SSD1306::ssd1306_command(uint8_t c) { 
 23fc56c:	b538      	push	{r3, r4, r5, lr}
  if (sid != -1)
 23fc56e:	f990 301d 	ldrsb.w	r3, [r0, #29]
void Adafruit_SSD1306::ssd1306_command(uint8_t c) { 
 23fc572:	4604      	mov	r4, r0
  if (sid != -1)
 23fc574:	3301      	adds	r3, #1
void Adafruit_SSD1306::ssd1306_command(uint8_t c) { 
 23fc576:	460d      	mov	r5, r1
  if (sid != -1)
 23fc578:	d01d      	beq.n	23fc5b6 <_ZN16Adafruit_SSD130615ssd1306_commandEh+0x4a>
    digitalWrite(cs, HIGH);
 23fc57a:	f990 0021 	ldrsb.w	r0, [r0, #33]	; 0x21
 23fc57e:	2101      	movs	r1, #1
 23fc580:	b280      	uxth	r0, r0
 23fc582:	f002 fb28 	bl	23febd6 <digitalWrite>
    digitalWrite(dc, LOW);
 23fc586:	f994 001f 	ldrsb.w	r0, [r4, #31]
 23fc58a:	2100      	movs	r1, #0
 23fc58c:	b280      	uxth	r0, r0
 23fc58e:	f002 fb22 	bl	23febd6 <digitalWrite>
    digitalWrite(cs, LOW);
 23fc592:	f994 0021 	ldrsb.w	r0, [r4, #33]	; 0x21
 23fc596:	2100      	movs	r1, #0
 23fc598:	b280      	uxth	r0, r0
 23fc59a:	f002 fb1c 	bl	23febd6 <digitalWrite>
    fastSPIwrite(c);
 23fc59e:	4629      	mov	r1, r5
 23fc5a0:	4620      	mov	r0, r4
 23fc5a2:	f7ff ffcd 	bl	23fc540 <_ZN16Adafruit_SSD130612fastSPIwriteEh>
    digitalWrite(cs, HIGH);
 23fc5a6:	f994 0021 	ldrsb.w	r0, [r4, #33]	; 0x21
 23fc5aa:	2101      	movs	r1, #1
}
 23fc5ac:	e8bd 4038 	ldmia.w	sp!, {r3, r4, r5, lr}
    digitalWrite(cs, HIGH);
 23fc5b0:	b280      	uxth	r0, r0
 23fc5b2:	f002 bb10 	b.w	23febd6 <digitalWrite>
    Wire.beginTransmission(_i2caddr);
 23fc5b6:	f002 fc37 	bl	23fee28 <_Z19__fetch_global_Wirev>
 23fc5ba:	f994 101b 	ldrsb.w	r1, [r4, #27]
 23fc5be:	f001 fecf 	bl	23fe360 <_ZN7TwoWire17beginTransmissionEi>
    Wire.write(control);
 23fc5c2:	f002 fc31 	bl	23fee28 <_Z19__fetch_global_Wirev>
 23fc5c6:	6803      	ldr	r3, [r0, #0]
 23fc5c8:	2100      	movs	r1, #0
 23fc5ca:	689b      	ldr	r3, [r3, #8]
 23fc5cc:	4798      	blx	r3
    Wire.write(c);
 23fc5ce:	f002 fc2b 	bl	23fee28 <_Z19__fetch_global_Wirev>
 23fc5d2:	6803      	ldr	r3, [r0, #0]
 23fc5d4:	4629      	mov	r1, r5
 23fc5d6:	689b      	ldr	r3, [r3, #8]
 23fc5d8:	4798      	blx	r3
    Wire.endTransmission();
 23fc5da:	f002 fc25 	bl	23fee28 <_Z19__fetch_global_Wirev>
}
 23fc5de:	e8bd 4038 	ldmia.w	sp!, {r3, r4, r5, lr}
    Wire.endTransmission();
 23fc5e2:	f001 bec4 	b.w	23fe36e <_ZN7TwoWire15endTransmissionEv>
	...

023fc5e8 <_ZN16Adafruit_SSD13067displayEv>:
void Adafruit_SSD1306::display(void) {
 23fc5e8:	b5f8      	push	{r3, r4, r5, r6, r7, lr}
 23fc5ea:	4604      	mov	r4, r0
  ssd1306_command(SSD1306_COLUMNADDR);
 23fc5ec:	2121      	movs	r1, #33	; 0x21
 23fc5ee:	f7ff ffbd 	bl	23fc56c <_ZN16Adafruit_SSD130615ssd1306_commandEh>
  ssd1306_command(0);   // Column start address (0 = reset)
 23fc5f2:	2100      	movs	r1, #0
 23fc5f4:	4620      	mov	r0, r4
 23fc5f6:	f7ff ffb9 	bl	23fc56c <_ZN16Adafruit_SSD130615ssd1306_commandEh>
  ssd1306_command(127); // Column end address (127 = reset)
 23fc5fa:	217f      	movs	r1, #127	; 0x7f
 23fc5fc:	4620      	mov	r0, r4
 23fc5fe:	f7ff ffb5 	bl	23fc56c <_ZN16Adafruit_SSD130615ssd1306_commandEh>
  ssd1306_command(SSD1306_PAGEADDR);
 23fc602:	2122      	movs	r1, #34	; 0x22
 23fc604:	4620      	mov	r0, r4
 23fc606:	f7ff ffb1 	bl	23fc56c <_ZN16Adafruit_SSD130615ssd1306_commandEh>
  ssd1306_command(0); // Page start address (0 = reset)
 23fc60a:	2100      	movs	r1, #0
 23fc60c:	4620      	mov	r0, r4
 23fc60e:	f7ff ffad 	bl	23fc56c <_ZN16Adafruit_SSD130615ssd1306_commandEh>
  ssd1306_command((SSD1306_LCDHEIGHT == 64) ? 7 : 3); // Page end address
 23fc612:	2107      	movs	r1, #7
 23fc614:	4620      	mov	r0, r4
 23fc616:	f7ff ffa9 	bl	23fc56c <_ZN16Adafruit_SSD130615ssd1306_commandEh>
  if (sid != -1)
 23fc61a:	f994 301d 	ldrsb.w	r3, [r4, #29]
 23fc61e:	4f29      	ldr	r7, [pc, #164]	; (23fc6c4 <_ZN16Adafruit_SSD13067displayEv+0xdc>)
 23fc620:	3301      	adds	r3, #1
 23fc622:	d02a      	beq.n	23fc67a <_ZN16Adafruit_SSD13067displayEv+0x92>
    digitalWrite(cs, HIGH);
 23fc624:	f994 0021 	ldrsb.w	r0, [r4, #33]	; 0x21
 23fc628:	2101      	movs	r1, #1
 23fc62a:	b280      	uxth	r0, r0
 23fc62c:	f002 fad3 	bl	23febd6 <digitalWrite>
    digitalWrite(dc, HIGH);
 23fc630:	f994 001f 	ldrsb.w	r0, [r4, #31]
 23fc634:	2101      	movs	r1, #1
 23fc636:	b280      	uxth	r0, r0
 23fc638:	f002 facd 	bl	23febd6 <digitalWrite>
    digitalWrite(cs, LOW);
 23fc63c:	f994 0021 	ldrsb.w	r0, [r4, #33]	; 0x21
 23fc640:	2100      	movs	r1, #0
 23fc642:	b280      	uxth	r0, r0
 23fc644:	f002 fac7 	bl	23febd6 <digitalWrite>
inline void delayMicroseconds(unsigned int us) { HAL_Delay_Microseconds(us); }
 23fc648:	2001      	movs	r0, #1
 23fc64a:	f000 fbcf 	bl	23fcdec <HAL_Delay_Microseconds>
 23fc64e:	f44f 6580 	mov.w	r5, #1024	; 0x400
    for (uint16_t i=0; i<(SSD1306_LCDWIDTH*SSD1306_LCDHEIGHT/8); i++) {
 23fc652:	3d01      	subs	r5, #1
      fastSPIwrite(buffer[i]);
 23fc654:	4620      	mov	r0, r4
 23fc656:	f817 1b01 	ldrb.w	r1, [r7], #1
    for (uint16_t i=0; i<(SSD1306_LCDWIDTH*SSD1306_LCDHEIGHT/8); i++) {
 23fc65a:	b2ad      	uxth	r5, r5
      fastSPIwrite(buffer[i]);
 23fc65c:	f7ff ff70 	bl	23fc540 <_ZN16Adafruit_SSD130612fastSPIwriteEh>
    for (uint16_t i=0; i<(SSD1306_LCDWIDTH*SSD1306_LCDHEIGHT/8); i++) {
 23fc660:	2d00      	cmp	r5, #0
 23fc662:	d1f6      	bne.n	23fc652 <_ZN16Adafruit_SSD13067displayEv+0x6a>
 23fc664:	2001      	movs	r0, #1
 23fc666:	f000 fbc1 	bl	23fcdec <HAL_Delay_Microseconds>
    digitalWrite(cs, HIGH);
 23fc66a:	f994 0021 	ldrsb.w	r0, [r4, #33]	; 0x21
 23fc66e:	2101      	movs	r1, #1
}
 23fc670:	e8bd 40f8 	ldmia.w	sp!, {r3, r4, r5, r6, r7, lr}
    digitalWrite(cs, HIGH);
 23fc674:	b280      	uxth	r0, r0
 23fc676:	f002 baae 	b.w	23febd6 <digitalWrite>
    for (uint16_t i=0; i<(SSD1306_LCDWIDTH*SSD1306_LCDHEIGHT/8); i++) {
 23fc67a:	2500      	movs	r5, #0
      Wire.beginTransmission(_i2caddr);
 23fc67c:	f002 fbd4 	bl	23fee28 <_Z19__fetch_global_Wirev>
 23fc680:	f994 101b 	ldrsb.w	r1, [r4, #27]
 23fc684:	f001 fe6c 	bl	23fe360 <_ZN7TwoWire17beginTransmissionEi>
      Wire.write(0x40);
 23fc688:	f002 fbce 	bl	23fee28 <_Z19__fetch_global_Wirev>
  bool unlock();

  inline size_t write(unsigned long n) { return write((uint8_t)n); }
  inline size_t write(long n) { return write((uint8_t)n); }
  inline size_t write(unsigned int n) { return write((uint8_t)n); }
  inline size_t write(int n) { return write((uint8_t)n); }
 23fc68c:	6803      	ldr	r3, [r0, #0]
 23fc68e:	2140      	movs	r1, #64	; 0x40
 23fc690:	689b      	ldr	r3, [r3, #8]
 23fc692:	4798      	blx	r3
      for (uint8_t x=0; x<16; x++) {
 23fc694:	f105 0610 	add.w	r6, r5, #16
 23fc698:	b2b6      	uxth	r6, r6
		Wire.write(buffer[i]);
 23fc69a:	f002 fbc5 	bl	23fee28 <_Z19__fetch_global_Wirev>
 23fc69e:	6803      	ldr	r3, [r0, #0]
 23fc6a0:	5d79      	ldrb	r1, [r7, r5]
 23fc6a2:	689b      	ldr	r3, [r3, #8]
 23fc6a4:	4798      	blx	r3
		i++;
 23fc6a6:	1c6b      	adds	r3, r5, #1
 23fc6a8:	b29d      	uxth	r5, r3
      for (uint8_t x=0; x<16; x++) {
 23fc6aa:	42ae      	cmp	r6, r5
 23fc6ac:	d1f5      	bne.n	23fc69a <_ZN16Adafruit_SSD13067displayEv+0xb2>
	Wire.endTransmission();
 23fc6ae:	f002 fbbb 	bl	23fee28 <_Z19__fetch_global_Wirev>
 23fc6b2:	f001 fe5c 	bl	23fe36e <_ZN7TwoWire15endTransmissionEv>
    for (uint16_t i=0; i<(SSD1306_LCDWIDTH*SSD1306_LCDHEIGHT/8); i++) {
 23fc6b6:	f5b6 6f80 	cmp.w	r6, #1024	; 0x400
 23fc6ba:	d100      	bne.n	23fc6be <_ZN16Adafruit_SSD13067displayEv+0xd6>
}
 23fc6bc:	bdf8      	pop	{r3, r4, r5, r6, r7, pc}
 23fc6be:	4635      	mov	r5, r6
 23fc6c0:	e7dc      	b.n	23fc67c <_ZN16Adafruit_SSD13067displayEv+0x94>
 23fc6c2:	bf00      	nop
 23fc6c4:	1007a810 	.word	0x1007a810

023fc6c8 <_ZN16Adafruit_SSD13065beginEhh>:
void Adafruit_SSD1306::begin(uint8_t vccstate, uint8_t i2caddr) {
 23fc6c8:	b538      	push	{r3, r4, r5, lr}
  if (sid != -1){
 23fc6ca:	f990 301d 	ldrsb.w	r3, [r0, #29]
void Adafruit_SSD1306::begin(uint8_t vccstate, uint8_t i2caddr) {
 23fc6ce:	4604      	mov	r4, r0
  if (sid != -1){
 23fc6d0:	3301      	adds	r3, #1
void Adafruit_SSD1306::begin(uint8_t vccstate, uint8_t i2caddr) {
 23fc6d2:	460d      	mov	r5, r1
  _vccstate = vccstate;
 23fc6d4:	7701      	strb	r1, [r0, #28]
  _i2caddr = i2caddr;
 23fc6d6:	76c2      	strb	r2, [r0, #27]
  if (sid != -1){
 23fc6d8:	f000 80c9 	beq.w	23fc86e <_ZN16Adafruit_SSD13065beginEhh+0x1a6>
    pinMode(dc, OUTPUT);
 23fc6dc:	f990 001f 	ldrsb.w	r0, [r0, #31]
 23fc6e0:	2101      	movs	r1, #1
 23fc6e2:	b280      	uxth	r0, r0
 23fc6e4:	f002 fa66 	bl	23febb4 <pinMode>
    pinMode(cs, OUTPUT);
 23fc6e8:	f994 0021 	ldrsb.w	r0, [r4, #33]	; 0x21
 23fc6ec:	2101      	movs	r1, #1
 23fc6ee:	b280      	uxth	r0, r0
 23fc6f0:	f002 fa60 	bl	23febb4 <pinMode>
    if (!hwSPI){
 23fc6f4:	f894 3022 	ldrb.w	r3, [r4, #34]	; 0x22
 23fc6f8:	2b00      	cmp	r3, #0
 23fc6fa:	f000 80a6 	beq.w	23fc84a <_ZN16Adafruit_SSD13065beginEhh+0x182>
        digitalWrite(cs, HIGH);
 23fc6fe:	f994 0021 	ldrsb.w	r0, [r4, #33]	; 0x21
 23fc702:	2101      	movs	r1, #1
 23fc704:	b280      	uxth	r0, r0
 23fc706:	f002 fa66 	bl	23febd6 <digitalWrite>
        instance().setBitOrder(order);
 23fc70a:	f7fe ffe5 	bl	23fb6d8 <_ZN8particle8SpiProxyIL19hal_spi_interface_t0EE8instanceEv>
 23fc70e:	2101      	movs	r1, #1
 23fc710:	f001 f8ac 	bl	23fd86c <_ZN8SPIClass11setBitOrderEh>
        instance().setClockDivider(divider);
 23fc714:	f7fe ffe0 	bl	23fb6d8 <_ZN8particle8SpiProxyIL19hal_spi_interface_t0EE8instanceEv>
 23fc718:	2110      	movs	r1, #16
 23fc71a:	f001 f98b 	bl	23fda34 <_ZN8SPIClass15setClockDividerEh>
        instance().setDataMode(mode);
 23fc71e:	f7fe ffdb 	bl	23fb6d8 <_ZN8particle8SpiProxyIL19hal_spi_interface_t0EE8instanceEv>
 23fc722:	2100      	movs	r1, #0
 23fc724:	f001 f8b6 	bl	23fd894 <_ZN8SPIClass11setDataModeEh>
        instance().begin();
 23fc728:	f7fe ffd6 	bl	23fb6d8 <_ZN8particle8SpiProxyIL19hal_spi_interface_t0EE8instanceEv>
 23fc72c:	f001 f88a 	bl	23fd844 <_ZN8SPIClass5beginEv>
  pinMode(rst, OUTPUT);
 23fc730:	f994 0020 	ldrsb.w	r0, [r4, #32]
 23fc734:	2101      	movs	r1, #1
 23fc736:	b280      	uxth	r0, r0
 23fc738:	f002 fa3c 	bl	23febb4 <pinMode>
  digitalWrite(rst, HIGH);
 23fc73c:	f994 0020 	ldrsb.w	r0, [r4, #32]
 23fc740:	2101      	movs	r1, #1
 23fc742:	b280      	uxth	r0, r0
 23fc744:	f002 fa47 	bl	23febd6 <digitalWrite>
  delay(1);
 23fc748:	2001      	movs	r0, #1
 23fc74a:	f001 fafd 	bl	23fdd48 <delay>
  digitalWrite(rst, LOW);
 23fc74e:	f994 0020 	ldrsb.w	r0, [r4, #32]
 23fc752:	2100      	movs	r1, #0
 23fc754:	b280      	uxth	r0, r0
 23fc756:	f002 fa3e 	bl	23febd6 <digitalWrite>
  delay(10);
 23fc75a:	200a      	movs	r0, #10
 23fc75c:	f001 faf4 	bl	23fdd48 <delay>
  digitalWrite(rst, HIGH);
 23fc760:	f994 0020 	ldrsb.w	r0, [r4, #32]
 23fc764:	2101      	movs	r1, #1
 23fc766:	b280      	uxth	r0, r0
 23fc768:	f002 fa35 	bl	23febd6 <digitalWrite>
    ssd1306_command(SSD1306_DISPLAYOFF);                    // 0xAE
 23fc76c:	4620      	mov	r0, r4
 23fc76e:	21ae      	movs	r1, #174	; 0xae
 23fc770:	f7ff fefc 	bl	23fc56c <_ZN16Adafruit_SSD130615ssd1306_commandEh>
    ssd1306_command(SSD1306_SETDISPLAYCLOCKDIV);            // 0xD5
 23fc774:	4620      	mov	r0, r4
 23fc776:	21d5      	movs	r1, #213	; 0xd5
 23fc778:	f7ff fef8 	bl	23fc56c <_ZN16Adafruit_SSD130615ssd1306_commandEh>
    ssd1306_command(0x80);                                  // the suggested ratio 0x80
 23fc77c:	4620      	mov	r0, r4
 23fc77e:	2180      	movs	r1, #128	; 0x80
 23fc780:	f7ff fef4 	bl	23fc56c <_ZN16Adafruit_SSD130615ssd1306_commandEh>
    ssd1306_command(SSD1306_SETMULTIPLEX);                  // 0xA8
 23fc784:	4620      	mov	r0, r4
 23fc786:	21a8      	movs	r1, #168	; 0xa8
 23fc788:	f7ff fef0 	bl	23fc56c <_ZN16Adafruit_SSD130615ssd1306_commandEh>
    ssd1306_command(0x3F);
 23fc78c:	4620      	mov	r0, r4
 23fc78e:	213f      	movs	r1, #63	; 0x3f
 23fc790:	f7ff feec 	bl	23fc56c <_ZN16Adafruit_SSD130615ssd1306_commandEh>
    ssd1306_command(SSD1306_SETDISPLAYOFFSET);              // 0xD3
 23fc794:	4620      	mov	r0, r4
 23fc796:	21d3      	movs	r1, #211	; 0xd3
 23fc798:	f7ff fee8 	bl	23fc56c <_ZN16Adafruit_SSD130615ssd1306_commandEh>
    ssd1306_command(0x0);                                   // no offset
 23fc79c:	4620      	mov	r0, r4
 23fc79e:	2100      	movs	r1, #0
 23fc7a0:	f7ff fee4 	bl	23fc56c <_ZN16Adafruit_SSD130615ssd1306_commandEh>
    ssd1306_command(SSD1306_SETSTARTLINE | 0x0);            // line #0
 23fc7a4:	4620      	mov	r0, r4
 23fc7a6:	2140      	movs	r1, #64	; 0x40
 23fc7a8:	f7ff fee0 	bl	23fc56c <_ZN16Adafruit_SSD130615ssd1306_commandEh>
    ssd1306_command(SSD1306_CHARGEPUMP);                    // 0x8D
 23fc7ac:	218d      	movs	r1, #141	; 0x8d
 23fc7ae:	4620      	mov	r0, r4
 23fc7b0:	f7ff fedc 	bl	23fc56c <_ZN16Adafruit_SSD130615ssd1306_commandEh>
    if (vccstate == SSD1306_EXTERNALVCC) 
 23fc7b4:	2d01      	cmp	r5, #1
      { ssd1306_command(0x10); }
 23fc7b6:	bf0c      	ite	eq
 23fc7b8:	2110      	moveq	r1, #16
      { ssd1306_command(0x14); }
 23fc7ba:	2114      	movne	r1, #20
 23fc7bc:	4620      	mov	r0, r4
 23fc7be:	f7ff fed5 	bl	23fc56c <_ZN16Adafruit_SSD130615ssd1306_commandEh>
    ssd1306_command(SSD1306_MEMORYMODE);                    // 0x20
 23fc7c2:	4620      	mov	r0, r4
 23fc7c4:	2120      	movs	r1, #32
 23fc7c6:	f7ff fed1 	bl	23fc56c <_ZN16Adafruit_SSD130615ssd1306_commandEh>
    ssd1306_command(0x00);                                  // 0x0 act like ks0108
 23fc7ca:	4620      	mov	r0, r4
 23fc7cc:	2100      	movs	r1, #0
 23fc7ce:	f7ff fecd 	bl	23fc56c <_ZN16Adafruit_SSD130615ssd1306_commandEh>
    ssd1306_command(SSD1306_SEGREMAP | 0x1);
 23fc7d2:	4620      	mov	r0, r4
 23fc7d4:	21a1      	movs	r1, #161	; 0xa1
 23fc7d6:	f7ff fec9 	bl	23fc56c <_ZN16Adafruit_SSD130615ssd1306_commandEh>
    ssd1306_command(SSD1306_COMSCANDEC);
 23fc7da:	4620      	mov	r0, r4
 23fc7dc:	21c8      	movs	r1, #200	; 0xc8
 23fc7de:	f7ff fec5 	bl	23fc56c <_ZN16Adafruit_SSD130615ssd1306_commandEh>
    ssd1306_command(SSD1306_SETCOMPINS);                    // 0xDA
 23fc7e2:	4620      	mov	r0, r4
 23fc7e4:	21da      	movs	r1, #218	; 0xda
 23fc7e6:	f7ff fec1 	bl	23fc56c <_ZN16Adafruit_SSD130615ssd1306_commandEh>
    ssd1306_command(0x12);
 23fc7ea:	4620      	mov	r0, r4
 23fc7ec:	2112      	movs	r1, #18
 23fc7ee:	f7ff febd 	bl	23fc56c <_ZN16Adafruit_SSD130615ssd1306_commandEh>
    ssd1306_command(SSD1306_SETCONTRAST);                   // 0x81
 23fc7f2:	2181      	movs	r1, #129	; 0x81
 23fc7f4:	4620      	mov	r0, r4
 23fc7f6:	f7ff feb9 	bl	23fc56c <_ZN16Adafruit_SSD130615ssd1306_commandEh>
    if (vccstate == SSD1306_EXTERNALVCC) 
 23fc7fa:	2d01      	cmp	r5, #1
      { ssd1306_command(0x9F); }
 23fc7fc:	bf0c      	ite	eq
 23fc7fe:	219f      	moveq	r1, #159	; 0x9f
      { ssd1306_command(0xCF); }
 23fc800:	21cf      	movne	r1, #207	; 0xcf
 23fc802:	4620      	mov	r0, r4
 23fc804:	f7ff feb2 	bl	23fc56c <_ZN16Adafruit_SSD130615ssd1306_commandEh>
    ssd1306_command(SSD1306_SETPRECHARGE);                  // 0xd9
 23fc808:	21d9      	movs	r1, #217	; 0xd9
 23fc80a:	4620      	mov	r0, r4
 23fc80c:	f7ff feae 	bl	23fc56c <_ZN16Adafruit_SSD130615ssd1306_commandEh>
    if (vccstate == SSD1306_EXTERNALVCC) 
 23fc810:	2d01      	cmp	r5, #1
      { ssd1306_command(0x22); }
 23fc812:	bf0c      	ite	eq
 23fc814:	2122      	moveq	r1, #34	; 0x22
      { ssd1306_command(0xF1); }
 23fc816:	21f1      	movne	r1, #241	; 0xf1
 23fc818:	4620      	mov	r0, r4
 23fc81a:	f7ff fea7 	bl	23fc56c <_ZN16Adafruit_SSD130615ssd1306_commandEh>
    ssd1306_command(SSD1306_SETVCOMDETECT);                 // 0xDB
 23fc81e:	4620      	mov	r0, r4
 23fc820:	21db      	movs	r1, #219	; 0xdb
 23fc822:	f7ff fea3 	bl	23fc56c <_ZN16Adafruit_SSD130615ssd1306_commandEh>
    ssd1306_command(0x40);
 23fc826:	4620      	mov	r0, r4
 23fc828:	2140      	movs	r1, #64	; 0x40
 23fc82a:	f7ff fe9f 	bl	23fc56c <_ZN16Adafruit_SSD130615ssd1306_commandEh>
    ssd1306_command(SSD1306_DISPLAYALLON_RESUME);           // 0xA4
 23fc82e:	4620      	mov	r0, r4
 23fc830:	21a4      	movs	r1, #164	; 0xa4
 23fc832:	f7ff fe9b 	bl	23fc56c <_ZN16Adafruit_SSD130615ssd1306_commandEh>
    ssd1306_command(SSD1306_NORMALDISPLAY);                 // 0xA6
 23fc836:	4620      	mov	r0, r4
 23fc838:	21a6      	movs	r1, #166	; 0xa6
 23fc83a:	f7ff fe97 	bl	23fc56c <_ZN16Adafruit_SSD130615ssd1306_commandEh>
  ssd1306_command(SSD1306_DISPLAYON);//--turn on oled panel
 23fc83e:	4620      	mov	r0, r4
}
 23fc840:	e8bd 4038 	ldmia.w	sp!, {r3, r4, r5, lr}
  ssd1306_command(SSD1306_DISPLAYON);//--turn on oled panel
 23fc844:	21af      	movs	r1, #175	; 0xaf
 23fc846:	f7ff be91 	b.w	23fc56c <_ZN16Adafruit_SSD130615ssd1306_commandEh>
    	pinMode(sid, OUTPUT);
 23fc84a:	f994 001d 	ldrsb.w	r0, [r4, #29]
 23fc84e:	2101      	movs	r1, #1
 23fc850:	b280      	uxth	r0, r0
 23fc852:	f002 f9af 	bl	23febb4 <pinMode>
    	pinMode(sclk, OUTPUT);
 23fc856:	f994 001e 	ldrsb.w	r0, [r4, #30]
 23fc85a:	2101      	movs	r1, #1
 23fc85c:	b280      	uxth	r0, r0
 23fc85e:	f002 f9a9 	bl	23febb4 <pinMode>
    if (hwSPI){
 23fc862:	f894 3022 	ldrb.w	r3, [r4, #34]	; 0x22
 23fc866:	2b00      	cmp	r3, #0
 23fc868:	f43f af62 	beq.w	23fc730 <_ZN16Adafruit_SSD13065beginEhh+0x68>
 23fc86c:	e747      	b.n	23fc6fe <_ZN16Adafruit_SSD13065beginEhh+0x36>
    Wire.begin();
 23fc86e:	f002 fadb 	bl	23fee28 <_Z19__fetch_global_Wirev>
 23fc872:	f001 fd47 	bl	23fe304 <_ZN7TwoWire5beginEv>
 23fc876:	e75b      	b.n	23fc730 <_ZN16Adafruit_SSD13065beginEhh+0x68>

023fc878 <_ZN12Adafruit_GFX8drawLineEsssst>:
}

// Bresenham's algorithm - thx wikpedia
void Adafruit_GFX::drawLine(int16_t x0, int16_t y0,
			    int16_t x1, int16_t y1,
			    uint16_t color) {
 23fc878:	e92d 4ff0 	stmdb	sp!, {r4, r5, r6, r7, r8, r9, sl, fp, lr}
 23fc87c:	461f      	mov	r7, r3
 23fc87e:	b085      	sub	sp, #20
 23fc880:	f9bd 8038 	ldrsh.w	r8, [sp, #56]	; 0x38
  int16_t steep = abs(y1 - y0) > abs(x1 - x0);
 23fc884:	eba7 0a01 	sub.w	sl, r7, r1
 23fc888:	eba8 0902 	sub.w	r9, r8, r2
 23fc88c:	f1b9 0f00 	cmp.w	r9, #0
 23fc890:	bfb8      	it	lt
 23fc892:	f1c9 0900 	rsblt	r9, r9, #0
 23fc896:	f1ba 0f00 	cmp.w	sl, #0
 23fc89a:	bfb8      	it	lt
 23fc89c:	f1ca 0a00 	rsblt	sl, sl, #0
  if (steep) {
 23fc8a0:	45d1      	cmp	r9, sl
			    uint16_t color) {
 23fc8a2:	4683      	mov	fp, r0
 23fc8a4:	460c      	mov	r4, r1
 23fc8a6:	4615      	mov	r5, r2
 23fc8a8:	f8bd 303c 	ldrh.w	r3, [sp, #60]	; 0x3c
  if (steep) {
 23fc8ac:	dd04      	ble.n	23fc8b8 <_ZN12Adafruit_GFX8drawLineEsssst+0x40>
 23fc8ae:	463a      	mov	r2, r7
    swap(x0, y0);
 23fc8b0:	462c      	mov	r4, r5
    swap(x1, y1);
 23fc8b2:	4647      	mov	r7, r8
    swap(x0, y0);
 23fc8b4:	460d      	mov	r5, r1
    swap(x1, y1);
 23fc8b6:	4690      	mov	r8, r2
  }

  if (x0 > x1) {
 23fc8b8:	42bc      	cmp	r4, r7
 23fc8ba:	dd05      	ble.n	23fc8c8 <_ZN12Adafruit_GFX8drawLineEsssst+0x50>
 23fc8bc:	462a      	mov	r2, r5
    swap(x0, x1);
    swap(y0, y1);
 23fc8be:	4645      	mov	r5, r8
 23fc8c0:	4690      	mov	r8, r2
  if (x0 > x1) {
 23fc8c2:	4622      	mov	r2, r4
 23fc8c4:	463c      	mov	r4, r7
 23fc8c6:	4617      	mov	r7, r2
  }

  int16_t dx, dy;
  dx = x1 - x0;
 23fc8c8:	1b3e      	subs	r6, r7, r4
 23fc8ca:	b2b2      	uxth	r2, r6
 23fc8cc:	9200      	str	r2, [sp, #0]
  dy = abs(y1 - y0);
 23fc8ce:	eba8 0205 	sub.w	r2, r8, r5
 23fc8d2:	ea82 71e2 	eor.w	r1, r2, r2, asr #31
 23fc8d6:	eba1 71e2 	sub.w	r1, r1, r2, asr #31

  int16_t err = dx / 2;
 23fc8da:	f3c6 32c0 	ubfx	r2, r6, #15, #1
 23fc8de:	fa02 f686 	sxtah	r6, r2, r6
  int16_t ystep;

  if (y0 < y1) {
    ystep = 1;
  } else {
    ystep = -1;
 23fc8e2:	4545      	cmp	r5, r8
 23fc8e4:	bfb4      	ite	lt
 23fc8e6:	2201      	movlt	r2, #1
 23fc8e8:	f04f 32ff 	movge.w	r2, #4294967295
  dy = abs(y1 - y0);
 23fc8ec:	9101      	str	r1, [sp, #4]
  int16_t err = dx / 2;
 23fc8ee:	1076      	asrs	r6, r6, #1
    ystep = -1;
 23fc8f0:	9202      	str	r2, [sp, #8]
  }

  for (; x0<=x1; x0++) {
 23fc8f2:	42bc      	cmp	r4, r7
 23fc8f4:	dc1c      	bgt.n	23fc930 <_ZN12Adafruit_GFX8drawLineEsssst+0xb8>
    if (steep) {
      drawPixel(y0, x0, color);
 23fc8f6:	f8db 2000 	ldr.w	r2, [fp]
    if (steep) {
 23fc8fa:	45d1      	cmp	r9, sl
      drawPixel(y0, x0, color);
 23fc8fc:	f8d2 8010 	ldr.w	r8, [r2, #16]
 23fc900:	bfc7      	ittee	gt
 23fc902:	4629      	movgt	r1, r5
 23fc904:	4622      	movgt	r2, r4
    } else {
      drawPixel(x0, y0, color);
 23fc906:	462a      	movle	r2, r5
 23fc908:	4621      	movle	r1, r4
      drawPixel(y0, x0, color);
 23fc90a:	9303      	str	r3, [sp, #12]
      drawPixel(x0, y0, color);
 23fc90c:	4658      	mov	r0, fp
 23fc90e:	47c0      	blx	r8
    }
    err -= dy;
 23fc910:	9a01      	ldr	r2, [sp, #4]
      drawPixel(x0, y0, color);
 23fc912:	9b03      	ldr	r3, [sp, #12]
    err -= dy;
 23fc914:	1ab6      	subs	r6, r6, r2
 23fc916:	b2b1      	uxth	r1, r6
 23fc918:	b236      	sxth	r6, r6
    if (err < 0) {
 23fc91a:	2e00      	cmp	r6, #0
 23fc91c:	da05      	bge.n	23fc92a <_ZN12Adafruit_GFX8drawLineEsssst+0xb2>
      y0 += ystep;
 23fc91e:	9a02      	ldr	r2, [sp, #8]
 23fc920:	4415      	add	r5, r2
      err += dx;
 23fc922:	9a00      	ldr	r2, [sp, #0]
      y0 += ystep;
 23fc924:	b22d      	sxth	r5, r5
      err += dx;
 23fc926:	1856      	adds	r6, r2, r1
 23fc928:	b236      	sxth	r6, r6
  for (; x0<=x1; x0++) {
 23fc92a:	3401      	adds	r4, #1
 23fc92c:	b224      	sxth	r4, r4
 23fc92e:	e7e0      	b.n	23fc8f2 <_ZN12Adafruit_GFX8drawLineEsssst+0x7a>
    }
  }
}
 23fc930:	b005      	add	sp, #20
 23fc932:	e8bd 8ff0 	ldmia.w	sp!, {r4, r5, r6, r7, r8, r9, sl, fp, pc}

023fc936 <_ZN12Adafruit_GFX8drawRectEsssst>:

// Draw a rectangle
void Adafruit_GFX::drawRect(int16_t x, int16_t y,
			    int16_t w, int16_t h,
			    uint16_t color) {
 23fc936:	e92d 47f3 	stmdb	sp!, {r0, r1, r4, r5, r6, r7, r8, r9, sl, lr}
 23fc93a:	4604      	mov	r4, r0
 23fc93c:	4616      	mov	r6, r2
 23fc93e:	468a      	mov	sl, r1
 23fc940:	461d      	mov	r5, r3
 23fc942:	f8bd 802c 	ldrh.w	r8, [sp, #44]	; 0x2c
  drawFastHLine(x, y, w, color);
 23fc946:	6807      	ldr	r7, [r0, #0]
			    uint16_t color) {
 23fc948:	f9bd 9028 	ldrsh.w	r9, [sp, #40]	; 0x28
  drawFastHLine(x, y, w, color);
 23fc94c:	f8cd 8000 	str.w	r8, [sp]
 23fc950:	69ff      	ldr	r7, [r7, #28]
 23fc952:	47b8      	blx	r7
  drawFastHLine(x, y+h-1, w, color);
 23fc954:	6823      	ldr	r3, [r4, #0]
 23fc956:	f109 32ff 	add.w	r2, r9, #4294967295
 23fc95a:	f8cd 8000 	str.w	r8, [sp]
 23fc95e:	4432      	add	r2, r6
 23fc960:	4651      	mov	r1, sl
 23fc962:	4620      	mov	r0, r4
 23fc964:	69df      	ldr	r7, [r3, #28]
 23fc966:	b212      	sxth	r2, r2
 23fc968:	462b      	mov	r3, r5
 23fc96a:	47b8      	blx	r7
  drawFastVLine(x, y, h, color);
 23fc96c:	6823      	ldr	r3, [r4, #0]
 23fc96e:	f8cd 8000 	str.w	r8, [sp]
 23fc972:	4632      	mov	r2, r6
 23fc974:	4651      	mov	r1, sl
 23fc976:	4620      	mov	r0, r4
 23fc978:	699f      	ldr	r7, [r3, #24]
 23fc97a:	464b      	mov	r3, r9
 23fc97c:	47b8      	blx	r7
  drawFastVLine(x+w-1, y, h, color);
 23fc97e:	1e6b      	subs	r3, r5, #1
 23fc980:	eb03 010a 	add.w	r1, r3, sl
 23fc984:	6823      	ldr	r3, [r4, #0]
 23fc986:	f8cd 8028 	str.w	r8, [sp, #40]	; 0x28
 23fc98a:	699d      	ldr	r5, [r3, #24]
 23fc98c:	4632      	mov	r2, r6
 23fc98e:	464b      	mov	r3, r9
 23fc990:	4620      	mov	r0, r4
 23fc992:	46ac      	mov	ip, r5
 23fc994:	b209      	sxth	r1, r1
}
 23fc996:	b002      	add	sp, #8
 23fc998:	e8bd 47f0 	ldmia.w	sp!, {r4, r5, r6, r7, r8, r9, sl, lr}
  drawFastVLine(x+w-1, y, h, color);
 23fc99c:	4760      	bx	ip

023fc99e <_ZN12Adafruit_GFX13drawFastVLineEssst>:

void Adafruit_GFX::drawFastVLine(int16_t x, int16_t y,
				 int16_t h, uint16_t color) {
 23fc99e:	b537      	push	{r0, r1, r2, r4, r5, lr}
  // Update in subclasses if desired!
  drawLine(x, y, x, y+h-1, color);
 23fc9a0:	3b01      	subs	r3, #1
 23fc9a2:	f8bd 5018 	ldrh.w	r5, [sp, #24]
 23fc9a6:	4413      	add	r3, r2
 23fc9a8:	6804      	ldr	r4, [r0, #0]
 23fc9aa:	b21b      	sxth	r3, r3
 23fc9ac:	9300      	str	r3, [sp, #0]
 23fc9ae:	9501      	str	r5, [sp, #4]
 23fc9b0:	460b      	mov	r3, r1
 23fc9b2:	6964      	ldr	r4, [r4, #20]
 23fc9b4:	47a0      	blx	r4
}
 23fc9b6:	b003      	add	sp, #12
 23fc9b8:	bd30      	pop	{r4, r5, pc}

023fc9ba <_ZN12Adafruit_GFX13drawFastHLineEssst>:

void Adafruit_GFX::drawFastHLine(int16_t x, int16_t y,
				 int16_t w, uint16_t color) {
 23fc9ba:	b537      	push	{r0, r1, r2, r4, r5, lr}
  // Update in subclasses if desired!
  drawLine(x, y, x+w-1, y, color);
 23fc9bc:	f8bd 5018 	ldrh.w	r5, [sp, #24]
 23fc9c0:	6804      	ldr	r4, [r0, #0]
 23fc9c2:	e9cd 2500 	strd	r2, r5, [sp]
 23fc9c6:	3b01      	subs	r3, #1
 23fc9c8:	440b      	add	r3, r1
 23fc9ca:	6964      	ldr	r4, [r4, #20]
 23fc9cc:	b21b      	sxth	r3, r3
 23fc9ce:	47a0      	blx	r4
}
 23fc9d0:	b003      	add	sp, #12
 23fc9d2:	bd30      	pop	{r4, r5, pc}

023fc9d4 <_ZN12Adafruit_GFX8fillRectEsssst>:

void Adafruit_GFX::fillRect(int16_t x, int16_t y, int16_t w, int16_t h,
			    uint16_t color) {
 23fc9d4:	e92d 47f3 	stmdb	sp!, {r0, r1, r4, r5, r6, r7, r8, r9, sl, lr}
 23fc9d8:	4605      	mov	r5, r0
 23fc9da:	4692      	mov	sl, r2
  // Update in subclasses if desired!
  for (int16_t i=x; i<x+w; i++) {
 23fc9dc:	460c      	mov	r4, r1
			    uint16_t color) {
 23fc9de:	f9bd 9028 	ldrsh.w	r9, [sp, #40]	; 0x28
 23fc9e2:	f8bd 802c 	ldrh.w	r8, [sp, #44]	; 0x2c
  for (int16_t i=x; i<x+w; i++) {
 23fc9e6:	18ce      	adds	r6, r1, r3
 23fc9e8:	42b4      	cmp	r4, r6
 23fc9ea:	da0b      	bge.n	23fca04 <_ZN12Adafruit_GFX8fillRectEsssst+0x30>
    drawFastVLine(i, y, h, color);
 23fc9ec:	682b      	ldr	r3, [r5, #0]
 23fc9ee:	f8cd 8000 	str.w	r8, [sp]
 23fc9f2:	4621      	mov	r1, r4
 23fc9f4:	699f      	ldr	r7, [r3, #24]
 23fc9f6:	4652      	mov	r2, sl
 23fc9f8:	464b      	mov	r3, r9
 23fc9fa:	4628      	mov	r0, r5
 23fc9fc:	3401      	adds	r4, #1
 23fc9fe:	47b8      	blx	r7
  for (int16_t i=x; i<x+w; i++) {
 23fca00:	b224      	sxth	r4, r4
 23fca02:	e7f1      	b.n	23fc9e8 <_ZN12Adafruit_GFX8fillRectEsssst+0x14>
  }
}
 23fca04:	b002      	add	sp, #8
 23fca06:	e8bd 87f0 	ldmia.w	sp!, {r4, r5, r6, r7, r8, r9, sl, pc}

023fca0a <_ZN12Adafruit_GFX10fillScreenEt>:

void Adafruit_GFX::fillScreen(uint16_t color) {
 23fca0a:	b513      	push	{r0, r1, r4, lr}
  fillRect(0, 0, _width, _height, color);
 23fca0c:	9101      	str	r1, [sp, #4]
 23fca0e:	f9b0 100e 	ldrsh.w	r1, [r0, #14]
 23fca12:	6802      	ldr	r2, [r0, #0]
 23fca14:	9100      	str	r1, [sp, #0]
 23fca16:	6a54      	ldr	r4, [r2, #36]	; 0x24
 23fca18:	2200      	movs	r2, #0
 23fca1a:	f9b0 300c 	ldrsh.w	r3, [r0, #12]
 23fca1e:	4611      	mov	r1, r2
 23fca20:	47a0      	blx	r4
}
 23fca22:	b002      	add	sp, #8
 23fca24:	bd10      	pop	{r4, pc}

023fca26 <_ZN12Adafruit_GFX13invertDisplayEb>:
  return _height;
}

void Adafruit_GFX::invertDisplay(boolean i) {
  // Do nothing, must be subclassed if supported
}
 23fca26:	4770      	bx	lr

023fca28 <_ZN12Adafruit_GFXC1Ess>:
  WIDTH(w), HEIGHT(h)
 23fca28:	8142      	strh	r2, [r0, #10]
  _height   = HEIGHT;
 23fca2a:	81c2      	strh	r2, [r0, #14]
  textcolor = textbgcolor = 0xFFFF;
 23fca2c:	f04f 32ff 	mov.w	r2, #4294967295
Adafruit_GFX::Adafruit_GFX(int16_t w, int16_t h):
 23fca30:	b530      	push	{r4, r5, lr}
  textcolor = textbgcolor = 0xFFFF;
 23fca32:	6142      	str	r2, [r0, #20]
    Print() : write_error(0) {}
 23fca34:	2400      	movs	r4, #0
  textsize  = 1;
 23fca36:	2201      	movs	r2, #1
  WIDTH(w), HEIGHT(h)
 23fca38:	4d04      	ldr	r5, [pc, #16]	; (23fca4c <_ZN12Adafruit_GFXC1Ess+0x24>)
 23fca3a:	6044      	str	r4, [r0, #4]
 23fca3c:	6005      	str	r5, [r0, #0]
 23fca3e:	8101      	strh	r1, [r0, #8]
  _width    = WIDTH;
 23fca40:	8181      	strh	r1, [r0, #12]
  cursor_y  = cursor_x    = 0;
 23fca42:	6104      	str	r4, [r0, #16]
  textsize  = 1;
 23fca44:	8302      	strh	r2, [r0, #24]
  wrap      = true;
 23fca46:	7682      	strb	r2, [r0, #26]
}
 23fca48:	bd30      	pop	{r4, r5, pc}
 23fca4a:	bf00      	nop
 23fca4c:	023ffbdc 	.word	0x023ffbdc

023fca50 <_ZN12Adafruit_GFX10drawBitmapEssPKhsst>:
			      uint16_t color) {
 23fca50:	e92d 4ff0 	stmdb	sp!, {r4, r5, r6, r7, r8, r9, sl, fp, lr}
  int16_t i, j, byteWidth = (w + 7) / 8;
 23fca54:	2400      	movs	r4, #0
      if(pgm_read_byte(bitmap + j * byteWidth + i / 8) & (128 >> (i & 7))) {
 23fca56:	f04f 0980 	mov.w	r9, #128	; 0x80
  int16_t i, j, byteWidth = (w + 7) / 8;
 23fca5a:	4625      	mov	r5, r4
			      uint16_t color) {
 23fca5c:	b089      	sub	sp, #36	; 0x24
 23fca5e:	f9bd 7048 	ldrsh.w	r7, [sp, #72]	; 0x48
 23fca62:	e9cd 2303 	strd	r2, r3, [sp, #12]
 23fca66:	f9bd 304c 	ldrsh.w	r3, [sp, #76]	; 0x4c
  int16_t i, j, byteWidth = (w + 7) / 8;
 23fca6a:	1dfa      	adds	r2, r7, #7
			      uint16_t color) {
 23fca6c:	e9cd 0101 	strd	r0, r1, [sp, #4]
 23fca70:	9305      	str	r3, [sp, #20]
  int16_t i, j, byteWidth = (w + 7) / 8;
 23fca72:	bf48      	it	mi
 23fca74:	f107 020e 	addmi.w	r2, r7, #14
			      uint16_t color) {
 23fca78:	f8bd 3050 	ldrh.w	r3, [sp, #80]	; 0x50
  int16_t i, j, byteWidth = (w + 7) / 8;
 23fca7c:	ea4f 0be2 	mov.w	fp, r2, asr #3
  for(j=0; j<h; j++) {
 23fca80:	9905      	ldr	r1, [sp, #20]
 23fca82:	b22a      	sxth	r2, r5
 23fca84:	4291      	cmp	r1, r2
 23fca86:	dd2a      	ble.n	23fcade <_ZN12Adafruit_GFX10drawBitmapEssPKhsst+0x8e>
 23fca88:	f04f 0800 	mov.w	r8, #0
      if(pgm_read_byte(bitmap + j * byteWidth + i / 8) & (128 >> (i & 7))) {
 23fca8c:	9a04      	ldr	r2, [sp, #16]
 23fca8e:	eb02 0a04 	add.w	sl, r2, r4
	drawPixel(x+i, y+j, color);
 23fca92:	9a03      	ldr	r2, [sp, #12]
 23fca94:	442a      	add	r2, r5
 23fca96:	b212      	sxth	r2, r2
 23fca98:	fa0f f088 	sxth.w	r0, r8
    for(i=0; i<w; i++ ) {
 23fca9c:	4287      	cmp	r7, r0
 23fca9e:	fa1f f188 	uxth.w	r1, r8
 23fcaa2:	dd19      	ble.n	23fcad8 <_ZN12Adafruit_GFX10drawBitmapEssPKhsst+0x88>
      if(pgm_read_byte(bitmap + j * byteWidth + i / 8) & (128 >> (i & 7))) {
 23fcaa4:	10c0      	asrs	r0, r0, #3
 23fcaa6:	f81a c000 	ldrb.w	ip, [sl, r0]
 23fcaaa:	f001 0007 	and.w	r0, r1, #7
 23fcaae:	fa49 f000 	asr.w	r0, r9, r0
 23fcab2:	ea1c 0f00 	tst.w	ip, r0
 23fcab6:	d00c      	beq.n	23fcad2 <_ZN12Adafruit_GFX10drawBitmapEssPKhsst+0x82>
	drawPixel(x+i, y+j, color);
 23fcab8:	9802      	ldr	r0, [sp, #8]
 23fcaba:	e9cd 2306 	strd	r2, r3, [sp, #24]
 23fcabe:	4401      	add	r1, r0
 23fcac0:	9801      	ldr	r0, [sp, #4]
 23fcac2:	b209      	sxth	r1, r1
 23fcac4:	6800      	ldr	r0, [r0, #0]
 23fcac6:	6900      	ldr	r0, [r0, #16]
 23fcac8:	4606      	mov	r6, r0
 23fcaca:	9801      	ldr	r0, [sp, #4]
 23fcacc:	47b0      	blx	r6
 23fcace:	e9dd 2306 	ldrd	r2, r3, [sp, #24]
    for(i=0; i<w; i++ ) {
 23fcad2:	f108 0801 	add.w	r8, r8, #1
 23fcad6:	e7df      	b.n	23fca98 <_ZN12Adafruit_GFX10drawBitmapEssPKhsst+0x48>
  for(j=0; j<h; j++) {
 23fcad8:	3501      	adds	r5, #1
 23fcada:	445c      	add	r4, fp
 23fcadc:	e7d0      	b.n	23fca80 <_ZN12Adafruit_GFX10drawBitmapEssPKhsst+0x30>
}
 23fcade:	b009      	add	sp, #36	; 0x24
 23fcae0:	e8bd 8ff0 	ldmia.w	sp!, {r4, r5, r6, r7, r8, r9, sl, fp, pc}

023fcae4 <_ZN12Adafruit_GFX8drawCharEsshtth>:
			    uint16_t color, uint16_t bg, uint8_t size) {
 23fcae4:	e92d 4ff0 	stmdb	sp!, {r4, r5, r6, r7, r8, r9, sl, fp, lr}
 23fcae8:	ed2d 8b02 	vpush	{d8}
 23fcaec:	b08d      	sub	sp, #52	; 0x34
 23fcaee:	9104      	str	r1, [sp, #16]
 23fcaf0:	f8bd 1060 	ldrh.w	r1, [sp, #96]	; 0x60
 23fcaf4:	4607      	mov	r7, r0
 23fcaf6:	9105      	str	r1, [sp, #20]
 23fcaf8:	f8bd 1064 	ldrh.w	r1, [sp, #100]	; 0x64
 23fcafc:	f89d 5068 	ldrb.w	r5, [sp, #104]	; 0x68
 23fcb00:	9106      	str	r1, [sp, #24]
  if((x >= _width)            || // Clip right
 23fcb02:	f9b0 100c 	ldrsh.w	r1, [r0, #12]
 23fcb06:	9804      	ldr	r0, [sp, #16]
 23fcb08:	4281      	cmp	r1, r0
 23fcb0a:	dd52      	ble.n	23fcbb2 <_ZN12Adafruit_GFX8drawCharEsshtth+0xce>
 23fcb0c:	f9b7 100e 	ldrsh.w	r1, [r7, #14]
 23fcb10:	4291      	cmp	r1, r2
 23fcb12:	dd4e      	ble.n	23fcbb2 <_ZN12Adafruit_GFX8drawCharEsshtth+0xce>
     ((x + 6 * size - 1) < 0) || // Clip left
 23fcb14:	2106      	movs	r1, #6
 23fcb16:	fb11 0405 	smlabb	r4, r1, r5, r0
     (y >= _height)           || // Clip bottom
 23fcb1a:	2c00      	cmp	r4, #0
 23fcb1c:	dd49      	ble.n	23fcbb2 <_ZN12Adafruit_GFX8drawCharEsshtth+0xce>
     ((y + 8 * size - 1) < 0))   // Clip top
 23fcb1e:	eb02 04c5 	add.w	r4, r2, r5, lsl #3
     ((x + 6 * size - 1) < 0) || // Clip left
 23fcb22:	2c00      	cmp	r4, #0
 23fcb24:	dd45      	ble.n	23fcbb2 <_ZN12Adafruit_GFX8drawCharEsshtth+0xce>
  for (int8_t i=0; i<6; i++ ) {
 23fcb26:	2400      	movs	r4, #0
      line = pgm_read_byte(font+(c*5)+i);
 23fcb28:	eb03 0383 	add.w	r3, r3, r3, lsl #2
 23fcb2c:	930b      	str	r3, [sp, #44]	; 0x2c
 23fcb2e:	b293      	uxth	r3, r2
 23fcb30:	9307      	str	r3, [sp, #28]
 23fcb32:	3308      	adds	r3, #8
 23fcb34:	b29b      	uxth	r3, r3
 23fcb36:	9108      	str	r1, [sp, #32]
 23fcb38:	9309      	str	r3, [sp, #36]	; 0x24
    if (i == 5) 
 23fcb3a:	2c05      	cmp	r4, #5
      line = 0x0;
 23fcb3c:	bf0f      	iteee	eq
 23fcb3e:	2300      	moveq	r3, #0
      line = pgm_read_byte(font+(c*5)+i);
 23fcb40:	4b2b      	ldrne	r3, [pc, #172]	; (23fcbf0 <_ZN12Adafruit_GFX8drawCharEsshtth+0x10c>)
 23fcb42:	9a0b      	ldrne	r2, [sp, #44]	; 0x2c
 23fcb44:	191b      	addne	r3, r3, r4
 23fcb46:	bf18      	it	ne
 23fcb48:	5c9b      	ldrbne	r3, [r3, r2]
          fillRect(x+i*size, y+j*size, size, size, bg);
 23fcb4a:	9a04      	ldr	r2, [sp, #16]
      line = 0x0;
 23fcb4c:	9303      	str	r3, [sp, #12]
          fillRect(x+i*size, y+j*size, size, size, bg);
 23fcb4e:	b2ab      	uxth	r3, r5
 23fcb50:	930a      	str	r3, [sp, #40]	; 0x28
 23fcb52:	fb04 f305 	mul.w	r3, r4, r5
 23fcb56:	9e07      	ldr	r6, [sp, #28]
 23fcb58:	fa13 f382 	uxtah	r3, r3, r2
 23fcb5c:	b21b      	sxth	r3, r3
 23fcb5e:	ee08 3a10 	vmov	s16, r3
 23fcb62:	46b0      	mov	r8, r6
          drawPixel(x+i, y+j, bg);
 23fcb64:	eb04 0a02 	add.w	sl, r4, r2
          fillRect(x+i*size, y+j*size, size, size, bg);
 23fcb68:	fa0f f985 	sxth.w	r9, r5
          drawPixel(x+i, y+j, bg);
 23fcb6c:	fa0f fa8a 	sxth.w	sl, sl
      if (line & 0x1) {
 23fcb70:	9b03      	ldr	r3, [sp, #12]
 23fcb72:	07db      	lsls	r3, r3, #31
 23fcb74:	d52f      	bpl.n	23fcbd6 <_ZN12Adafruit_GFX8drawCharEsshtth+0xf2>
        if (size == 1) // default size
 23fcb76:	2d01      	cmp	r5, #1
          drawPixel(x+i, y+j, color);
 23fcb78:	683b      	ldr	r3, [r7, #0]
        if (size == 1) // default size
 23fcb7a:	d11f      	bne.n	23fcbbc <_ZN12Adafruit_GFX8drawCharEsshtth+0xd8>
          drawPixel(x+i, y+j, color);
 23fcb7c:	f8d3 b010 	ldr.w	fp, [r3, #16]
 23fcb80:	9b05      	ldr	r3, [sp, #20]
          drawPixel(x+i, y+j, bg);
 23fcb82:	4651      	mov	r1, sl
 23fcb84:	4638      	mov	r0, r7
 23fcb86:	b232      	sxth	r2, r6
 23fcb88:	47d8      	blx	fp
      line >>= 1;
 23fcb8a:	9b03      	ldr	r3, [sp, #12]
    for (int8_t j = 0; j<8; j++) {
 23fcb8c:	3601      	adds	r6, #1
      line >>= 1;
 23fcb8e:	085b      	lsrs	r3, r3, #1
 23fcb90:	9303      	str	r3, [sp, #12]
    for (int8_t j = 0; j<8; j++) {
 23fcb92:	9b0a      	ldr	r3, [sp, #40]	; 0x28
 23fcb94:	b2b6      	uxth	r6, r6
 23fcb96:	4498      	add	r8, r3
 23fcb98:	9b09      	ldr	r3, [sp, #36]	; 0x24
 23fcb9a:	fa1f f888 	uxth.w	r8, r8
 23fcb9e:	42b3      	cmp	r3, r6
 23fcba0:	d1e6      	bne.n	23fcb70 <_ZN12Adafruit_GFX8drawCharEsshtth+0x8c>
  for (int8_t i=0; i<6; i++ ) {
 23fcba2:	9b08      	ldr	r3, [sp, #32]
 23fcba4:	3401      	adds	r4, #1
 23fcba6:	3b01      	subs	r3, #1
 23fcba8:	f013 03ff 	ands.w	r3, r3, #255	; 0xff
 23fcbac:	b264      	sxtb	r4, r4
 23fcbae:	9308      	str	r3, [sp, #32]
 23fcbb0:	d1c3      	bne.n	23fcb3a <_ZN12Adafruit_GFX8drawCharEsshtth+0x56>
}
 23fcbb2:	b00d      	add	sp, #52	; 0x34
 23fcbb4:	ecbd 8b02 	vpop	{d8}
 23fcbb8:	e8bd 8ff0 	ldmia.w	sp!, {r4, r5, r6, r7, r8, r9, sl, fp, pc}
          fillRect(x+(i*size), y+(j*size), size, size, color);
 23fcbbc:	9a05      	ldr	r2, [sp, #20]
          fillRect(x+i*size, y+j*size, size, size, bg);
 23fcbbe:	e9cd 9200 	strd	r9, r2, [sp]
 23fcbc2:	ee18 1a10 	vmov	r1, s16
 23fcbc6:	f8d3 b024 	ldr.w	fp, [r3, #36]	; 0x24
 23fcbca:	4638      	mov	r0, r7
 23fcbcc:	464b      	mov	r3, r9
 23fcbce:	fa0f f288 	sxth.w	r2, r8
 23fcbd2:	47d8      	blx	fp
 23fcbd4:	e7d9      	b.n	23fcb8a <_ZN12Adafruit_GFX8drawCharEsshtth+0xa6>
      } else if (bg != color) {
 23fcbd6:	e9dd 2305 	ldrd	r2, r3, [sp, #20]
 23fcbda:	4293      	cmp	r3, r2
 23fcbdc:	d0d5      	beq.n	23fcb8a <_ZN12Adafruit_GFX8drawCharEsshtth+0xa6>
        if (size == 1) // default size
 23fcbde:	2d01      	cmp	r5, #1
          drawPixel(x+i, y+j, color);
 23fcbe0:	683b      	ldr	r3, [r7, #0]
        if (size == 1) // default size
 23fcbe2:	d103      	bne.n	23fcbec <_ZN12Adafruit_GFX8drawCharEsshtth+0x108>
          drawPixel(x+i, y+j, bg);
 23fcbe4:	f8d3 b010 	ldr.w	fp, [r3, #16]
 23fcbe8:	9b06      	ldr	r3, [sp, #24]
 23fcbea:	e7ca      	b.n	23fcb82 <_ZN12Adafruit_GFX8drawCharEsshtth+0x9e>
          fillRect(x+i*size, y+j*size, size, size, bg);
 23fcbec:	9a06      	ldr	r2, [sp, #24]
 23fcbee:	e7e6      	b.n	23fcbbe <_ZN12Adafruit_GFX8drawCharEsshtth+0xda>
 23fcbf0:	023ff6d8 	.word	0x023ff6d8

023fcbf4 <_ZN12Adafruit_GFX5writeEh>:
size_t Adafruit_GFX::write(uint8_t c) {
 23fcbf4:	b530      	push	{r4, r5, lr}
  if (c == '\n') {
 23fcbf6:	290a      	cmp	r1, #10
size_t Adafruit_GFX::write(uint8_t c) {
 23fcbf8:	4604      	mov	r4, r0
 23fcbfa:	b085      	sub	sp, #20
  if (c == '\n') {
 23fcbfc:	d107      	bne.n	23fcc0e <_ZN12Adafruit_GFX5writeEh+0x1a>
    cursor_y += textsize*8;
 23fcbfe:	7e02      	ldrb	r2, [r0, #24]
      cursor_y += textsize*8;
 23fcc00:	8a63      	ldrh	r3, [r4, #18]
 23fcc02:	eb03 03c2 	add.w	r3, r3, r2, lsl #3
 23fcc06:	8263      	strh	r3, [r4, #18]
      cursor_x = 0;
 23fcc08:	2300      	movs	r3, #0
 23fcc0a:	8223      	strh	r3, [r4, #16]
 23fcc0c:	e021      	b.n	23fcc52 <_ZN12Adafruit_GFX5writeEh+0x5e>
  } else if (c == '\r') {
 23fcc0e:	290d      	cmp	r1, #13
 23fcc10:	d01f      	beq.n	23fcc52 <_ZN12Adafruit_GFX5writeEh+0x5e>
    drawChar(cursor_x, cursor_y, c, textcolor, textbgcolor, textsize);
 23fcc12:	7e03      	ldrb	r3, [r0, #24]
 23fcc14:	9302      	str	r3, [sp, #8]
 23fcc16:	8ac3      	ldrh	r3, [r0, #22]
 23fcc18:	9301      	str	r3, [sp, #4]
 23fcc1a:	8a83      	ldrh	r3, [r0, #20]
 23fcc1c:	9300      	str	r3, [sp, #0]
 23fcc1e:	f9b0 2012 	ldrsh.w	r2, [r0, #18]
 23fcc22:	460b      	mov	r3, r1
 23fcc24:	f9b0 1010 	ldrsh.w	r1, [r0, #16]
 23fcc28:	f7ff ff5c 	bl	23fcae4 <_ZN12Adafruit_GFX8drawCharEsshtth>
    cursor_x += textsize*6;
 23fcc2c:	7e20      	ldrb	r0, [r4, #24]
 23fcc2e:	8a23      	ldrh	r3, [r4, #16]
 23fcc30:	eb00 0140 	add.w	r1, r0, r0, lsl #1
 23fcc34:	eb03 0341 	add.w	r3, r3, r1, lsl #1
    if (wrap && (cursor_x > (_width - textsize*6))) {
 23fcc38:	7ea1      	ldrb	r1, [r4, #26]
    cursor_x += textsize*6;
 23fcc3a:	b21b      	sxth	r3, r3
 23fcc3c:	4602      	mov	r2, r0
 23fcc3e:	8223      	strh	r3, [r4, #16]
    if (wrap && (cursor_x > (_width - textsize*6))) {
 23fcc40:	b139      	cbz	r1, 23fcc52 <_ZN12Adafruit_GFX5writeEh+0x5e>
 23fcc42:	f06f 0505 	mvn.w	r5, #5
 23fcc46:	f9b4 100c 	ldrsh.w	r1, [r4, #12]
 23fcc4a:	fb05 1100 	mla	r1, r5, r0, r1
 23fcc4e:	428b      	cmp	r3, r1
 23fcc50:	dcd6      	bgt.n	23fcc00 <_ZN12Adafruit_GFX5writeEh+0xc>
}
 23fcc52:	2001      	movs	r0, #1
 23fcc54:	b005      	add	sp, #20
 23fcc56:	bd30      	pop	{r4, r5, pc}

023fcc58 <_ZN12Adafruit_GFX9setCursorEss>:
  cursor_x = x;
 23fcc58:	8201      	strh	r1, [r0, #16]
  cursor_y = y;
 23fcc5a:	8242      	strh	r2, [r0, #18]
}
 23fcc5c:	4770      	bx	lr

023fcc5e <_ZN12Adafruit_GFX11setTextSizeEh>:
  textsize = (s > 0) ? s : 1;
 23fcc5e:	2901      	cmp	r1, #1
 23fcc60:	bf38      	it	cc
 23fcc62:	2101      	movcc	r1, #1
 23fcc64:	7601      	strb	r1, [r0, #24]
}
 23fcc66:	4770      	bx	lr

023fcc68 <_ZN12Adafruit_GFX12setTextColorEt>:
  textcolor = textbgcolor = c;
 23fcc68:	82c1      	strh	r1, [r0, #22]
 23fcc6a:	8281      	strh	r1, [r0, #20]
}
 23fcc6c:	4770      	bx	lr

023fcc6e <_ZN12Adafruit_GFX11getRotationEv>:
}
 23fcc6e:	7e40      	ldrb	r0, [r0, #25]
 23fcc70:	4770      	bx	lr

023fcc72 <_ZN12Adafruit_GFX5widthEv>:
}
 23fcc72:	f9b0 000c 	ldrsh.w	r0, [r0, #12]
 23fcc76:	4770      	bx	lr

023fcc78 <_ZN12Adafruit_GFX6heightEv>:
}
 23fcc78:	f9b0 000e 	ldrsh.w	r0, [r0, #14]
 23fcc7c:	4770      	bx	lr
	...

023fcc80 <netdb_freeaddrinfo>:

DYNALIB_BEGIN(hal_netdb)

DYNALIB_FN(0, hal_netdb, netdb_gethostbyname, struct hostent*(const char*))
DYNALIB_FN(1, hal_netdb, netdb_gethostbyname_r, int(const char*, struct hostent*, char*, size_t, struct hostent**, int*))
DYNALIB_FN(2, hal_netdb, netdb_freeaddrinfo, void(struct addrinfo*))
 23fcc80:	b509      	push	{r0, r3, lr}
 23fcc82:	4804      	ldr	r0, [pc, #16]	; (23fcc94 <netdb_freeaddrinfo+0x14>)
 23fcc84:	6800      	ldr	r0, [r0, #0]
 23fcc86:	4b04      	ldr	r3, [pc, #16]	; (23fcc98 <netdb_freeaddrinfo+0x18>)
 23fcc88:	4403      	add	r3, r0
 23fcc8a:	681b      	ldr	r3, [r3, #0]
 23fcc8c:	689b      	ldr	r3, [r3, #8]
 23fcc8e:	9302      	str	r3, [sp, #8]
 23fcc90:	bd09      	pop	{r0, r3, pc}
 23fcc92:	0000      	.short	0x0000
 23fcc94:	1007a7e0 	.word	0x1007a7e0
 23fcc98:	00000050 	.word	0x00000050

023fcc9c <netdb_getaddrinfo>:
DYNALIB_FN(3, hal_netdb, netdb_getaddrinfo, int(const char*, const char*, const struct addrinfo*, struct addrinfo**))
 23fcc9c:	b509      	push	{r0, r3, lr}
 23fcc9e:	4804      	ldr	r0, [pc, #16]	; (23fccb0 <netdb_getaddrinfo+0x14>)
 23fcca0:	6800      	ldr	r0, [r0, #0]
 23fcca2:	4b04      	ldr	r3, [pc, #16]	; (23fccb4 <netdb_getaddrinfo+0x18>)
 23fcca4:	4403      	add	r3, r0
 23fcca6:	681b      	ldr	r3, [r3, #0]
 23fcca8:	68db      	ldr	r3, [r3, #12]
 23fccaa:	9302      	str	r3, [sp, #8]
 23fccac:	bd09      	pop	{r0, r3, pc}
 23fccae:	0000      	.short	0x0000
 23fccb0:	1007a7e0 	.word	0x1007a7e0
 23fccb4:	00000050 	.word	0x00000050

023fccb8 <hal_pin_map>:
// New HAL functions must be added to the end of this list.
// GNINRAW

DYNALIB_BEGIN(hal_gpio)

DYNALIB_FN(0, hal_gpio, hal_pin_map, hal_pin_info_t*(void))
 23fccb8:	b509      	push	{r0, r3, lr}
 23fccba:	4804      	ldr	r0, [pc, #16]	; (23fcccc <hal_pin_map+0x14>)
 23fccbc:	6800      	ldr	r0, [r0, #0]
 23fccbe:	4b04      	ldr	r3, [pc, #16]	; (23fccd0 <hal_pin_map+0x18>)
 23fccc0:	4403      	add	r3, r0
 23fccc2:	681b      	ldr	r3, [r3, #0]
 23fccc4:	681b      	ldr	r3, [r3, #0]
 23fccc6:	9302      	str	r3, [sp, #8]
 23fccc8:	bd09      	pop	{r0, r3, pc}
 23fccca:	0000      	.short	0x0000
 23fcccc:	1007a7e0 	.word	0x1007a7e0
 23fccd0:	00000014 	.word	0x00000014

023fccd4 <hal_gpio_mode>:
DYNALIB_FN(1, hal_gpio, hal_pin_validate_function, PinFunction(hal_pin_t, PinFunction))
DYNALIB_FN(2, hal_gpio, hal_gpio_mode, void(hal_pin_t, PinMode))
 23fccd4:	b509      	push	{r0, r3, lr}
 23fccd6:	4804      	ldr	r0, [pc, #16]	; (23fcce8 <hal_gpio_mode+0x14>)
 23fccd8:	6800      	ldr	r0, [r0, #0]
 23fccda:	4b04      	ldr	r3, [pc, #16]	; (23fccec <hal_gpio_mode+0x18>)
 23fccdc:	4403      	add	r3, r0
 23fccde:	681b      	ldr	r3, [r3, #0]
 23fcce0:	689b      	ldr	r3, [r3, #8]
 23fcce2:	9302      	str	r3, [sp, #8]
 23fcce4:	bd09      	pop	{r0, r3, pc}
 23fcce6:	0000      	.short	0x0000
 23fcce8:	1007a7e0 	.word	0x1007a7e0
 23fccec:	00000014 	.word	0x00000014

023fccf0 <hal_gpio_get_mode>:
DYNALIB_FN(3, hal_gpio, hal_gpio_get_mode, PinMode(hal_pin_t))
 23fccf0:	b509      	push	{r0, r3, lr}
 23fccf2:	4804      	ldr	r0, [pc, #16]	; (23fcd04 <hal_gpio_get_mode+0x14>)
 23fccf4:	6800      	ldr	r0, [r0, #0]
 23fccf6:	4b04      	ldr	r3, [pc, #16]	; (23fcd08 <hal_gpio_get_mode+0x18>)
 23fccf8:	4403      	add	r3, r0
 23fccfa:	681b      	ldr	r3, [r3, #0]
 23fccfc:	68db      	ldr	r3, [r3, #12]
 23fccfe:	9302      	str	r3, [sp, #8]
 23fcd00:	bd09      	pop	{r0, r3, pc}
 23fcd02:	0000      	.short	0x0000
 23fcd04:	1007a7e0 	.word	0x1007a7e0
 23fcd08:	00000014 	.word	0x00000014

023fcd0c <hal_gpio_write>:
DYNALIB_FN(4, hal_gpio, hal_gpio_write, void(hal_pin_t, uint8_t))
 23fcd0c:	b509      	push	{r0, r3, lr}
 23fcd0e:	4804      	ldr	r0, [pc, #16]	; (23fcd20 <hal_gpio_write+0x14>)
 23fcd10:	6800      	ldr	r0, [r0, #0]
 23fcd12:	4b04      	ldr	r3, [pc, #16]	; (23fcd24 <hal_gpio_write+0x18>)
 23fcd14:	4403      	add	r3, r0
 23fcd16:	681b      	ldr	r3, [r3, #0]
 23fcd18:	691b      	ldr	r3, [r3, #16]
 23fcd1a:	9302      	str	r3, [sp, #8]
 23fcd1c:	bd09      	pop	{r0, r3, pc}
 23fcd1e:	0000      	.short	0x0000
 23fcd20:	1007a7e0 	.word	0x1007a7e0
 23fcd24:	00000014 	.word	0x00000014

023fcd28 <hal_gpio_read>:
DYNALIB_FN(5, hal_gpio, hal_gpio_read, int32_t(hal_pin_t))
 23fcd28:	b509      	push	{r0, r3, lr}
 23fcd2a:	4804      	ldr	r0, [pc, #16]	; (23fcd3c <hal_gpio_read+0x14>)
 23fcd2c:	6800      	ldr	r0, [r0, #0]
 23fcd2e:	4b04      	ldr	r3, [pc, #16]	; (23fcd40 <hal_gpio_read+0x18>)
 23fcd30:	4403      	add	r3, r0
 23fcd32:	681b      	ldr	r3, [r3, #0]
 23fcd34:	695b      	ldr	r3, [r3, #20]
 23fcd36:	9302      	str	r3, [sp, #8]
 23fcd38:	bd09      	pop	{r0, r3, pc}
 23fcd3a:	0000      	.short	0x0000
 23fcd3c:	1007a7e0 	.word	0x1007a7e0
 23fcd40:	00000014 	.word	0x00000014

023fcd44 <hal_interrupt_attach>:
DYNALIB_FN(6, hal_gpio, hal_interrupt_attach, int(uint16_t, hal_interrupt_handler_t, void*, InterruptMode, hal_interrupt_extra_configuration_t*))
 23fcd44:	b509      	push	{r0, r3, lr}
 23fcd46:	4804      	ldr	r0, [pc, #16]	; (23fcd58 <hal_interrupt_attach+0x14>)
 23fcd48:	6800      	ldr	r0, [r0, #0]
 23fcd4a:	4b04      	ldr	r3, [pc, #16]	; (23fcd5c <hal_interrupt_attach+0x18>)
 23fcd4c:	4403      	add	r3, r0
 23fcd4e:	681b      	ldr	r3, [r3, #0]
 23fcd50:	699b      	ldr	r3, [r3, #24]
 23fcd52:	9302      	str	r3, [sp, #8]
 23fcd54:	bd09      	pop	{r0, r3, pc}
 23fcd56:	0000      	.short	0x0000
 23fcd58:	1007a7e0 	.word	0x1007a7e0
 23fcd5c:	00000014 	.word	0x00000014

023fcd60 <hal_interrupt_detach>:
DYNALIB_FN(7, hal_gpio, hal_interrupt_detach, int(uint16_t))
 23fcd60:	b509      	push	{r0, r3, lr}
 23fcd62:	4804      	ldr	r0, [pc, #16]	; (23fcd74 <hal_interrupt_detach+0x14>)
 23fcd64:	6800      	ldr	r0, [r0, #0]
 23fcd66:	4b04      	ldr	r3, [pc, #16]	; (23fcd78 <hal_interrupt_detach+0x18>)
 23fcd68:	4403      	add	r3, r0
 23fcd6a:	681b      	ldr	r3, [r3, #0]
 23fcd6c:	69db      	ldr	r3, [r3, #28]
 23fcd6e:	9302      	str	r3, [sp, #8]
 23fcd70:	bd09      	pop	{r0, r3, pc}
 23fcd72:	0000      	.short	0x0000
 23fcd74:	1007a7e0 	.word	0x1007a7e0
 23fcd78:	00000014 	.word	0x00000014

023fcd7c <hal_interrupt_enable_all>:
DYNALIB_FN(8, hal_gpio, hal_interrupt_enable_all, void(void))
 23fcd7c:	b509      	push	{r0, r3, lr}
 23fcd7e:	4804      	ldr	r0, [pc, #16]	; (23fcd90 <hal_interrupt_enable_all+0x14>)
 23fcd80:	6800      	ldr	r0, [r0, #0]
 23fcd82:	4b04      	ldr	r3, [pc, #16]	; (23fcd94 <hal_interrupt_enable_all+0x18>)
 23fcd84:	4403      	add	r3, r0
 23fcd86:	681b      	ldr	r3, [r3, #0]
 23fcd88:	6a1b      	ldr	r3, [r3, #32]
 23fcd8a:	9302      	str	r3, [sp, #8]
 23fcd8c:	bd09      	pop	{r0, r3, pc}
 23fcd8e:	0000      	.short	0x0000
 23fcd90:	1007a7e0 	.word	0x1007a7e0
 23fcd94:	00000014 	.word	0x00000014

023fcd98 <hal_interrupt_disable_all>:
DYNALIB_FN(9, hal_gpio, hal_interrupt_disable_all, void(void))
 23fcd98:	b509      	push	{r0, r3, lr}
 23fcd9a:	4804      	ldr	r0, [pc, #16]	; (23fcdac <hal_interrupt_disable_all+0x14>)
 23fcd9c:	6800      	ldr	r0, [r0, #0]
 23fcd9e:	4b04      	ldr	r3, [pc, #16]	; (23fcdb0 <hal_interrupt_disable_all+0x18>)
 23fcda0:	4403      	add	r3, r0
 23fcda2:	681b      	ldr	r3, [r3, #0]
 23fcda4:	6a5b      	ldr	r3, [r3, #36]	; 0x24
 23fcda6:	9302      	str	r3, [sp, #8]
 23fcda8:	bd09      	pop	{r0, r3, pc}
 23fcdaa:	0000      	.short	0x0000
 23fcdac:	1007a7e0 	.word	0x1007a7e0
 23fcdb0:	00000014 	.word	0x00000014

023fcdb4 <if_index_to_name>:
DYNALIB_FN(0, hal_ifapi, if_get_list, int(struct if_list**))
DYNALIB_FN(1, hal_ifapi, if_free_list, int(struct if_list*))
DYNALIB_FN(2, hal_ifapi, if_get_name_index, int(struct if_nameindex**))
DYNALIB_FN(3, hal_ifapi, if_free_name_index, int(struct if_nameindex*))
DYNALIB_FN(4, hal_ifapi, if_name_to_index, int(const char*, uint8_t*))
DYNALIB_FN(5, hal_ifapi, if_index_to_name, int(uint8_t, char*))
 23fcdb4:	b509      	push	{r0, r3, lr}
 23fcdb6:	4804      	ldr	r0, [pc, #16]	; (23fcdc8 <if_index_to_name+0x14>)
 23fcdb8:	6800      	ldr	r0, [r0, #0]
 23fcdba:	4b04      	ldr	r3, [pc, #16]	; (23fcdcc <if_index_to_name+0x18>)
 23fcdbc:	4403      	add	r3, r0
 23fcdbe:	681b      	ldr	r3, [r3, #0]
 23fcdc0:	695b      	ldr	r3, [r3, #20]
 23fcdc2:	9302      	str	r3, [sp, #8]
 23fcdc4:	bd09      	pop	{r0, r3, pc}
 23fcdc6:	0000      	.short	0x0000
 23fcdc8:	1007a7e0 	.word	0x1007a7e0
 23fcdcc:	00000054 	.word	0x00000054

023fcdd0 <HAL_RNG_GetRandomNumber>:

DYNALIB_BEGIN(hal)

#if PLATFORM_ID > PLATFORM_GCC
DYNALIB_FN(0, hal, HAL_RNG_Configuration, void(void))
DYNALIB_FN(1, hal, HAL_RNG_GetRandomNumber, uint32_t(void))
 23fcdd0:	b509      	push	{r0, r3, lr}
 23fcdd2:	4804      	ldr	r0, [pc, #16]	; (23fcde4 <HAL_RNG_GetRandomNumber+0x14>)
 23fcdd4:	6800      	ldr	r0, [r0, #0]
 23fcdd6:	4b04      	ldr	r3, [pc, #16]	; (23fcde8 <HAL_RNG_GetRandomNumber+0x18>)
 23fcdd8:	4403      	add	r3, r0
 23fcdda:	681b      	ldr	r3, [r3, #0]
 23fcddc:	685b      	ldr	r3, [r3, #4]
 23fcdde:	9302      	str	r3, [sp, #8]
 23fcde0:	bd09      	pop	{r0, r3, pc}
 23fcde2:	0000      	.short	0x0000
 23fcde4:	1007a7e0 	.word	0x1007a7e0
 23fcde8:	00000000 	.word	0x00000000

023fcdec <HAL_Delay_Microseconds>:
#else
#define BASE_IDX 0
#endif // PLATFORM_ID > PLATFORM_GCC

DYNALIB_FN(BASE_IDX + 0, hal, HAL_Delay_Milliseconds, void(uint32_t))
DYNALIB_FN(BASE_IDX + 1, hal, HAL_Delay_Microseconds, void(uint32_t))
 23fcdec:	b509      	push	{r0, r3, lr}
 23fcdee:	4804      	ldr	r0, [pc, #16]	; (23fce00 <HAL_Delay_Microseconds+0x14>)
 23fcdf0:	6800      	ldr	r0, [r0, #0]
 23fcdf2:	4b04      	ldr	r3, [pc, #16]	; (23fce04 <HAL_Delay_Microseconds+0x18>)
 23fcdf4:	4403      	add	r3, r0
 23fcdf6:	681b      	ldr	r3, [r3, #0]
 23fcdf8:	68db      	ldr	r3, [r3, #12]
 23fcdfa:	9302      	str	r3, [sp, #8]
 23fcdfc:	bd09      	pop	{r0, r3, pc}
 23fcdfe:	0000      	.short	0x0000
 23fce00:	1007a7e0 	.word	0x1007a7e0
 23fce04:	00000000 	.word	0x00000000

023fce08 <HAL_Timer_Get_Micro_Seconds>:
DYNALIB_FN(BASE_IDX + 2, hal, HAL_Timer_Get_Micro_Seconds, system_tick_t(void))
 23fce08:	b509      	push	{r0, r3, lr}
 23fce0a:	4804      	ldr	r0, [pc, #16]	; (23fce1c <HAL_Timer_Get_Micro_Seconds+0x14>)
 23fce0c:	6800      	ldr	r0, [r0, #0]
 23fce0e:	4b04      	ldr	r3, [pc, #16]	; (23fce20 <HAL_Timer_Get_Micro_Seconds+0x18>)
 23fce10:	4403      	add	r3, r0
 23fce12:	681b      	ldr	r3, [r3, #0]
 23fce14:	691b      	ldr	r3, [r3, #16]
 23fce16:	9302      	str	r3, [sp, #8]
 23fce18:	bd09      	pop	{r0, r3, pc}
 23fce1a:	0000      	.short	0x0000
 23fce1c:	1007a7e0 	.word	0x1007a7e0
 23fce20:	00000000 	.word	0x00000000

023fce24 <HAL_Timer_Get_Milli_Seconds>:
DYNALIB_FN(BASE_IDX + 3, hal, HAL_Timer_Get_Milli_Seconds, system_tick_t(void))
 23fce24:	b509      	push	{r0, r3, lr}
 23fce26:	4804      	ldr	r0, [pc, #16]	; (23fce38 <HAL_Timer_Get_Milli_Seconds+0x14>)
 23fce28:	6800      	ldr	r0, [r0, #0]
 23fce2a:	4b04      	ldr	r3, [pc, #16]	; (23fce3c <HAL_Timer_Get_Milli_Seconds+0x18>)
 23fce2c:	4403      	add	r3, r0
 23fce2e:	681b      	ldr	r3, [r3, #0]
 23fce30:	695b      	ldr	r3, [r3, #20]
 23fce32:	9302      	str	r3, [sp, #8]
 23fce34:	bd09      	pop	{r0, r3, pc}
 23fce36:	0000      	.short	0x0000
 23fce38:	1007a7e0 	.word	0x1007a7e0
 23fce3c:	00000000 	.word	0x00000000

023fce40 <hal_timer_millis>:
DYNALIB_FN(BASE_IDX + 17, hal, HAL_EEPROM_Clear, void(void))
DYNALIB_FN(BASE_IDX + 18, hal, HAL_EEPROM_Has_Pending_Erase, bool(void))
DYNALIB_FN(BASE_IDX + 19, hal, HAL_EEPROM_Perform_Pending_Erase, void(void))
DYNALIB_FN(BASE_IDX + 20, hal, hal_rtc_time_is_valid, bool(void*))

DYNALIB_FN(BASE_IDX + 21, hal, hal_timer_millis, uint64_t(void*))
 23fce40:	b509      	push	{r0, r3, lr}
 23fce42:	4804      	ldr	r0, [pc, #16]	; (23fce54 <hal_timer_millis+0x14>)
 23fce44:	6800      	ldr	r0, [r0, #0]
 23fce46:	4b04      	ldr	r3, [pc, #16]	; (23fce58 <hal_timer_millis+0x18>)
 23fce48:	4403      	add	r3, r0
 23fce4a:	681b      	ldr	r3, [r3, #0]
 23fce4c:	6ddb      	ldr	r3, [r3, #92]	; 0x5c
 23fce4e:	9302      	str	r3, [sp, #8]
 23fce50:	bd09      	pop	{r0, r3, pc}
 23fce52:	0000      	.short	0x0000
 23fce54:	1007a7e0 	.word	0x1007a7e0
 23fce58:	00000000 	.word	0x00000000

023fce5c <os_mutex_recursive_create>:
DYNALIB_FN(13, hal_concurrent, os_mutex_destroy, int(os_mutex_t))
DYNALIB_FN(14, hal_concurrent, os_mutex_lock, int(os_mutex_t))
DYNALIB_FN(15, hal_concurrent, os_mutex_trylock, int(os_mutex_t))
DYNALIB_FN(16, hal_concurrent, os_mutex_unlock, int(os_mutex_t))

DYNALIB_FN(17, hal_concurrent, os_mutex_recursive_create, int(os_mutex_recursive_t*))
 23fce5c:	b509      	push	{r0, r3, lr}
 23fce5e:	4804      	ldr	r0, [pc, #16]	; (23fce70 <os_mutex_recursive_create+0x14>)
 23fce60:	6800      	ldr	r0, [r0, #0]
 23fce62:	4b04      	ldr	r3, [pc, #16]	; (23fce74 <os_mutex_recursive_create+0x18>)
 23fce64:	4403      	add	r3, r0
 23fce66:	681b      	ldr	r3, [r3, #0]
 23fce68:	6c5b      	ldr	r3, [r3, #68]	; 0x44
 23fce6a:	9302      	str	r3, [sp, #8]
 23fce6c:	bd09      	pop	{r0, r3, pc}
 23fce6e:	0000      	.short	0x0000
 23fce70:	1007a7e0 	.word	0x1007a7e0
 23fce74:	00000030 	.word	0x00000030

023fce78 <inet_inet_ntop>:
DYNALIB_FN(0, hal_inet, inet_inet_addr, in_addr_t(const char*))
DYNALIB_FN(1, hal_inet, inet_inet_aton, int(const char*, struct in_addr*))
DYNALIB_FN(2, hal_inet, inet_inet_network, in_addr_t(const char*))
DYNALIB_FN(3, hal_inet, inet_inet_ntoa, char*(struct in_addr))
DYNALIB_FN(4, hal_inet, inet_inet_ntoa_r, char*(struct in_addr, char*, socklen_t))
DYNALIB_FN(5, hal_inet, inet_inet_ntop, const char*(int, const void*, char*, socklen_t))
 23fce78:	b509      	push	{r0, r3, lr}
 23fce7a:	4804      	ldr	r0, [pc, #16]	; (23fce8c <inet_inet_ntop+0x14>)
 23fce7c:	6800      	ldr	r0, [r0, #0]
 23fce7e:	4b04      	ldr	r3, [pc, #16]	; (23fce90 <inet_inet_ntop+0x18>)
 23fce80:	4403      	add	r3, r0
 23fce82:	681b      	ldr	r3, [r3, #0]
 23fce84:	695b      	ldr	r3, [r3, #20]
 23fce86:	9302      	str	r3, [sp, #8]
 23fce88:	bd09      	pop	{r0, r3, pc}
 23fce8a:	0000      	.short	0x0000
 23fce8c:	1007a7e0 	.word	0x1007a7e0
 23fce90:	0000004c 	.word	0x0000004c

023fce94 <inet_htonl>:
DYNALIB_FN(6, hal_inet, inet_inet_pton, int(int, const char*, void*))
DYNALIB_FN(7, hal_inet, inet_ntohl, uint32_t(uint32_t))
DYNALIB_FN(8, hal_inet, inet_htonl, uint32_t(uint32_t))
 23fce94:	b509      	push	{r0, r3, lr}
 23fce96:	4804      	ldr	r0, [pc, #16]	; (23fcea8 <inet_htonl+0x14>)
 23fce98:	6800      	ldr	r0, [r0, #0]
 23fce9a:	4b04      	ldr	r3, [pc, #16]	; (23fceac <inet_htonl+0x18>)
 23fce9c:	4403      	add	r3, r0
 23fce9e:	681b      	ldr	r3, [r3, #0]
 23fcea0:	6a1b      	ldr	r3, [r3, #32]
 23fcea2:	9302      	str	r3, [sp, #8]
 23fcea4:	bd09      	pop	{r0, r3, pc}
 23fcea6:	0000      	.short	0x0000
 23fcea8:	1007a7e0 	.word	0x1007a7e0
 23fceac:	0000004c 	.word	0x0000004c

023fceb0 <inet_htons>:
DYNALIB_FN(9, hal_inet, inet_ntohs, uint16_t(uint16_t))
DYNALIB_FN(10, hal_inet, inet_htons, uint16_t(uint16_t))
 23fceb0:	b509      	push	{r0, r3, lr}
 23fceb2:	4804      	ldr	r0, [pc, #16]	; (23fcec4 <inet_htons+0x14>)
 23fceb4:	6800      	ldr	r0, [r0, #0]
 23fceb6:	4b04      	ldr	r3, [pc, #16]	; (23fcec8 <inet_htons+0x18>)
 23fceb8:	4403      	add	r3, r0
 23fceba:	681b      	ldr	r3, [r3, #0]
 23fcebc:	6a9b      	ldr	r3, [r3, #40]	; 0x28
 23fcebe:	9302      	str	r3, [sp, #8]
 23fcec0:	bd09      	pop	{r0, r3, pc}
 23fcec2:	0000      	.short	0x0000
 23fcec4:	1007a7e0 	.word	0x1007a7e0
 23fcec8:	0000004c 	.word	0x0000004c

023fcecc <hal_usart_write>:
#endif

DYNALIB_FN(BASE_IDX + 0, hal_usart, hal_usart_init, void(hal_usart_interface_t, hal_usart_ring_buffer_t*, hal_usart_ring_buffer_t*))
DYNALIB_FN(BASE_IDX + 1, hal_usart, hal_usart_begin, void(hal_usart_interface_t, uint32_t))
DYNALIB_FN(BASE_IDX + 2, hal_usart, hal_usart_end, void(hal_usart_interface_t))
DYNALIB_FN(BASE_IDX + 3, hal_usart, hal_usart_write, uint32_t(hal_usart_interface_t, uint8_t))
 23fcecc:	b509      	push	{r0, r3, lr}
 23fcece:	4804      	ldr	r0, [pc, #16]	; (23fcee0 <hal_usart_write+0x14>)
 23fced0:	6800      	ldr	r0, [r0, #0]
 23fced2:	4b04      	ldr	r3, [pc, #16]	; (23fcee4 <hal_usart_write+0x18>)
 23fced4:	4403      	add	r3, r0
 23fced6:	681b      	ldr	r3, [r3, #0]
 23fced8:	68db      	ldr	r3, [r3, #12]
 23fceda:	9302      	str	r3, [sp, #8]
 23fcedc:	bd09      	pop	{r0, r3, pc}
 23fcede:	0000      	.short	0x0000
 23fcee0:	1007a7e0 	.word	0x1007a7e0
 23fcee4:	00000024 	.word	0x00000024

023fcee8 <hal_usart_available>:
DYNALIB_FN(BASE_IDX + 4, hal_usart, hal_usart_available, int32_t(hal_usart_interface_t))
 23fcee8:	b509      	push	{r0, r3, lr}
 23fceea:	4804      	ldr	r0, [pc, #16]	; (23fcefc <hal_usart_available+0x14>)
 23fceec:	6800      	ldr	r0, [r0, #0]
 23fceee:	4b04      	ldr	r3, [pc, #16]	; (23fcf00 <hal_usart_available+0x18>)
 23fcef0:	4403      	add	r3, r0
 23fcef2:	681b      	ldr	r3, [r3, #0]
 23fcef4:	691b      	ldr	r3, [r3, #16]
 23fcef6:	9302      	str	r3, [sp, #8]
 23fcef8:	bd09      	pop	{r0, r3, pc}
 23fcefa:	0000      	.short	0x0000
 23fcefc:	1007a7e0 	.word	0x1007a7e0
 23fcf00:	00000024 	.word	0x00000024

023fcf04 <hal_usart_read>:
DYNALIB_FN(BASE_IDX + 5, hal_usart, hal_usart_read, int32_t(hal_usart_interface_t))
 23fcf04:	b509      	push	{r0, r3, lr}
 23fcf06:	4804      	ldr	r0, [pc, #16]	; (23fcf18 <hal_usart_read+0x14>)
 23fcf08:	6800      	ldr	r0, [r0, #0]
 23fcf0a:	4b04      	ldr	r3, [pc, #16]	; (23fcf1c <hal_usart_read+0x18>)
 23fcf0c:	4403      	add	r3, r0
 23fcf0e:	681b      	ldr	r3, [r3, #0]
 23fcf10:	695b      	ldr	r3, [r3, #20]
 23fcf12:	9302      	str	r3, [sp, #8]
 23fcf14:	bd09      	pop	{r0, r3, pc}
 23fcf16:	0000      	.short	0x0000
 23fcf18:	1007a7e0 	.word	0x1007a7e0
 23fcf1c:	00000024 	.word	0x00000024

023fcf20 <hal_usart_peek>:
DYNALIB_FN(BASE_IDX + 6, hal_usart, hal_usart_peek, int32_t(hal_usart_interface_t))
 23fcf20:	b509      	push	{r0, r3, lr}
 23fcf22:	4804      	ldr	r0, [pc, #16]	; (23fcf34 <hal_usart_peek+0x14>)
 23fcf24:	6800      	ldr	r0, [r0, #0]
 23fcf26:	4b04      	ldr	r3, [pc, #16]	; (23fcf38 <hal_usart_peek+0x18>)
 23fcf28:	4403      	add	r3, r0
 23fcf2a:	681b      	ldr	r3, [r3, #0]
 23fcf2c:	699b      	ldr	r3, [r3, #24]
 23fcf2e:	9302      	str	r3, [sp, #8]
 23fcf30:	bd09      	pop	{r0, r3, pc}
 23fcf32:	0000      	.short	0x0000
 23fcf34:	1007a7e0 	.word	0x1007a7e0
 23fcf38:	00000024 	.word	0x00000024

023fcf3c <hal_usart_flush>:
DYNALIB_FN(BASE_IDX + 7, hal_usart, hal_usart_flush, void(hal_usart_interface_t))
 23fcf3c:	b509      	push	{r0, r3, lr}
 23fcf3e:	4804      	ldr	r0, [pc, #16]	; (23fcf50 <hal_usart_flush+0x14>)
 23fcf40:	6800      	ldr	r0, [r0, #0]
 23fcf42:	4b04      	ldr	r3, [pc, #16]	; (23fcf54 <hal_usart_flush+0x18>)
 23fcf44:	4403      	add	r3, r0
 23fcf46:	681b      	ldr	r3, [r3, #0]
 23fcf48:	69db      	ldr	r3, [r3, #28]
 23fcf4a:	9302      	str	r3, [sp, #8]
 23fcf4c:	bd09      	pop	{r0, r3, pc}
 23fcf4e:	0000      	.short	0x0000
 23fcf50:	1007a7e0 	.word	0x1007a7e0
 23fcf54:	00000024 	.word	0x00000024

023fcf58 <hal_usart_is_enabled>:
DYNALIB_FN(BASE_IDX + 8, hal_usart, hal_usart_is_enabled, bool(hal_usart_interface_t))
 23fcf58:	b509      	push	{r0, r3, lr}
 23fcf5a:	4804      	ldr	r0, [pc, #16]	; (23fcf6c <hal_usart_is_enabled+0x14>)
 23fcf5c:	6800      	ldr	r0, [r0, #0]
 23fcf5e:	4b04      	ldr	r3, [pc, #16]	; (23fcf70 <hal_usart_is_enabled+0x18>)
 23fcf60:	4403      	add	r3, r0
 23fcf62:	681b      	ldr	r3, [r3, #0]
 23fcf64:	6a1b      	ldr	r3, [r3, #32]
 23fcf66:	9302      	str	r3, [sp, #8]
 23fcf68:	bd09      	pop	{r0, r3, pc}
 23fcf6a:	0000      	.short	0x0000
 23fcf6c:	1007a7e0 	.word	0x1007a7e0
 23fcf70:	00000024 	.word	0x00000024

023fcf74 <hal_usart_available_data_for_write>:
DYNALIB_FN(BASE_IDX + 9, hal_usart, hal_usart_half_duplex, void(hal_usart_interface_t, bool))
DYNALIB_FN(BASE_IDX + 10, hal_usart, hal_usart_available_data_for_write, int32_t(hal_usart_interface_t))
 23fcf74:	b509      	push	{r0, r3, lr}
 23fcf76:	4804      	ldr	r0, [pc, #16]	; (23fcf88 <hal_usart_available_data_for_write+0x14>)
 23fcf78:	6800      	ldr	r0, [r0, #0]
 23fcf7a:	4b04      	ldr	r3, [pc, #16]	; (23fcf8c <hal_usart_available_data_for_write+0x18>)
 23fcf7c:	4403      	add	r3, r0
 23fcf7e:	681b      	ldr	r3, [r3, #0]
 23fcf80:	6a9b      	ldr	r3, [r3, #40]	; 0x28
 23fcf82:	9302      	str	r3, [sp, #8]
 23fcf84:	bd09      	pop	{r0, r3, pc}
 23fcf86:	0000      	.short	0x0000
 23fcf88:	1007a7e0 	.word	0x1007a7e0
 23fcf8c:	00000024 	.word	0x00000024

023fcf90 <hal_usart_begin_config>:
#define BASE_IDX2 (BASE_IDX+13)
#else
#define BASE_IDX2 (BASE_IDX+11)
#endif

DYNALIB_FN(BASE_IDX2 + 0, hal_usart, hal_usart_begin_config, void(hal_usart_interface_t serial, uint32_t baud, uint32_t config, void *ptr))
 23fcf90:	b509      	push	{r0, r3, lr}
 23fcf92:	4804      	ldr	r0, [pc, #16]	; (23fcfa4 <hal_usart_begin_config+0x14>)
 23fcf94:	6800      	ldr	r0, [r0, #0]
 23fcf96:	4b04      	ldr	r3, [pc, #16]	; (23fcfa8 <hal_usart_begin_config+0x18>)
 23fcf98:	4403      	add	r3, r0
 23fcf9a:	681b      	ldr	r3, [r3, #0]
 23fcf9c:	6adb      	ldr	r3, [r3, #44]	; 0x2c
 23fcf9e:	9302      	str	r3, [sp, #8]
 23fcfa0:	bd09      	pop	{r0, r3, pc}
 23fcfa2:	0000      	.short	0x0000
 23fcfa4:	1007a7e0 	.word	0x1007a7e0
 23fcfa8:	00000024 	.word	0x00000024

023fcfac <hal_usart_init_ex>:
DYNALIB_FN(BASE_IDX2 + 1, hal_usart, hal_usart_write_nine_bits, uint32_t(hal_usart_interface_t serial, uint16_t data))
DYNALIB_FN(BASE_IDX2 + 2, hal_usart, hal_usart_send_break, void(hal_usart_interface_t, void*))
DYNALIB_FN(BASE_IDX2 + 3, hal_usart, hal_usart_break_detected, uint8_t(hal_usart_interface_t))
DYNALIB_FN(BASE_IDX2 + 4, hal_usart, hal_usart_sleep, int(hal_usart_interface_t serial, bool, void*))
DYNALIB_FN(BASE_IDX2 + 5, hal_usart, hal_usart_init_ex, int(hal_usart_interface_t, const hal_usart_buffer_config_t*, void*))
 23fcfac:	b509      	push	{r0, r3, lr}
 23fcfae:	4804      	ldr	r0, [pc, #16]	; (23fcfc0 <hal_usart_init_ex+0x14>)
 23fcfb0:	6800      	ldr	r0, [r0, #0]
 23fcfb2:	4b04      	ldr	r3, [pc, #16]	; (23fcfc4 <hal_usart_init_ex+0x18>)
 23fcfb4:	4403      	add	r3, r0
 23fcfb6:	681b      	ldr	r3, [r3, #0]
 23fcfb8:	6c1b      	ldr	r3, [r3, #64]	; 0x40
 23fcfba:	9302      	str	r3, [sp, #8]
 23fcfbc:	bd09      	pop	{r0, r3, pc}
 23fcfbe:	0000      	.short	0x0000
 23fcfc0:	1007a7e0 	.word	0x1007a7e0
 23fcfc4:	00000024 	.word	0x00000024

023fcfc8 <hal_i2c_begin>:
DYNALIB_BEGIN(hal_i2c)

DYNALIB_FN(0, hal_i2c, hal_i2c_set_speed, void(hal_i2c_interface_t, uint32_t, void*))
DYNALIB_FN(1, hal_i2c, hal_i2c_enable_dma_mode, void(hal_i2c_interface_t, bool, void*))
DYNALIB_FN(2, hal_i2c, hal_i2c_stretch_clock, void(hal_i2c_interface_t, bool, void*))
DYNALIB_FN(3, hal_i2c, hal_i2c_begin, void(hal_i2c_interface_t, hal_i2c_mode_t, uint8_t, void*))
 23fcfc8:	b509      	push	{r0, r3, lr}
 23fcfca:	4804      	ldr	r0, [pc, #16]	; (23fcfdc <hal_i2c_begin+0x14>)
 23fcfcc:	6800      	ldr	r0, [r0, #0]
 23fcfce:	4b04      	ldr	r3, [pc, #16]	; (23fcfe0 <hal_i2c_begin+0x18>)
 23fcfd0:	4403      	add	r3, r0
 23fcfd2:	681b      	ldr	r3, [r3, #0]
 23fcfd4:	68db      	ldr	r3, [r3, #12]
 23fcfd6:	9302      	str	r3, [sp, #8]
 23fcfd8:	bd09      	pop	{r0, r3, pc}
 23fcfda:	0000      	.short	0x0000
 23fcfdc:	1007a7e0 	.word	0x1007a7e0
 23fcfe0:	00000010 	.word	0x00000010

023fcfe4 <hal_i2c_begin_transmission>:
DYNALIB_FN(4, hal_i2c, hal_i2c_end, void(hal_i2c_interface_t, void*))
DYNALIB_FN(5, hal_i2c, hal_i2c_request, uint32_t(hal_i2c_interface_t, uint8_t, uint8_t, uint8_t, void*))
DYNALIB_FN(6, hal_i2c, hal_i2c_begin_transmission, void(hal_i2c_interface_t, uint8_t, const hal_i2c_transmission_config_t*))
 23fcfe4:	b509      	push	{r0, r3, lr}
 23fcfe6:	4804      	ldr	r0, [pc, #16]	; (23fcff8 <hal_i2c_begin_transmission+0x14>)
 23fcfe8:	6800      	ldr	r0, [r0, #0]
 23fcfea:	4b04      	ldr	r3, [pc, #16]	; (23fcffc <hal_i2c_begin_transmission+0x18>)
 23fcfec:	4403      	add	r3, r0
 23fcfee:	681b      	ldr	r3, [r3, #0]
 23fcff0:	699b      	ldr	r3, [r3, #24]
 23fcff2:	9302      	str	r3, [sp, #8]
 23fcff4:	bd09      	pop	{r0, r3, pc}
 23fcff6:	0000      	.short	0x0000
 23fcff8:	1007a7e0 	.word	0x1007a7e0
 23fcffc:	00000010 	.word	0x00000010

023fd000 <hal_i2c_end_transmission>:
DYNALIB_FN(7, hal_i2c, hal_i2c_end_transmission, uint8_t(hal_i2c_interface_t, uint8_t, void*))
 23fd000:	b509      	push	{r0, r3, lr}
 23fd002:	4804      	ldr	r0, [pc, #16]	; (23fd014 <hal_i2c_end_transmission+0x14>)
 23fd004:	6800      	ldr	r0, [r0, #0]
 23fd006:	4b04      	ldr	r3, [pc, #16]	; (23fd018 <hal_i2c_end_transmission+0x18>)
 23fd008:	4403      	add	r3, r0
 23fd00a:	681b      	ldr	r3, [r3, #0]
 23fd00c:	69db      	ldr	r3, [r3, #28]
 23fd00e:	9302      	str	r3, [sp, #8]
 23fd010:	bd09      	pop	{r0, r3, pc}
 23fd012:	0000      	.short	0x0000
 23fd014:	1007a7e0 	.word	0x1007a7e0
 23fd018:	00000010 	.word	0x00000010

023fd01c <hal_i2c_write>:
DYNALIB_FN(8, hal_i2c, hal_i2c_write, uint32_t(hal_i2c_interface_t, uint8_t, void*))
 23fd01c:	b509      	push	{r0, r3, lr}
 23fd01e:	4804      	ldr	r0, [pc, #16]	; (23fd030 <hal_i2c_write+0x14>)
 23fd020:	6800      	ldr	r0, [r0, #0]
 23fd022:	4b04      	ldr	r3, [pc, #16]	; (23fd034 <hal_i2c_write+0x18>)
 23fd024:	4403      	add	r3, r0
 23fd026:	681b      	ldr	r3, [r3, #0]
 23fd028:	6a1b      	ldr	r3, [r3, #32]
 23fd02a:	9302      	str	r3, [sp, #8]
 23fd02c:	bd09      	pop	{r0, r3, pc}
 23fd02e:	0000      	.short	0x0000
 23fd030:	1007a7e0 	.word	0x1007a7e0
 23fd034:	00000010 	.word	0x00000010

023fd038 <hal_i2c_available>:
DYNALIB_FN(9, hal_i2c, hal_i2c_available, int32_t(hal_i2c_interface_t, void*))
 23fd038:	b509      	push	{r0, r3, lr}
 23fd03a:	4804      	ldr	r0, [pc, #16]	; (23fd04c <hal_i2c_available+0x14>)
 23fd03c:	6800      	ldr	r0, [r0, #0]
 23fd03e:	4b04      	ldr	r3, [pc, #16]	; (23fd050 <hal_i2c_available+0x18>)
 23fd040:	4403      	add	r3, r0
 23fd042:	681b      	ldr	r3, [r3, #0]
 23fd044:	6a5b      	ldr	r3, [r3, #36]	; 0x24
 23fd046:	9302      	str	r3, [sp, #8]
 23fd048:	bd09      	pop	{r0, r3, pc}
 23fd04a:	0000      	.short	0x0000
 23fd04c:	1007a7e0 	.word	0x1007a7e0
 23fd050:	00000010 	.word	0x00000010

023fd054 <hal_i2c_read>:
DYNALIB_FN(10, hal_i2c, hal_i2c_read, int32_t(hal_i2c_interface_t, void*))
 23fd054:	b509      	push	{r0, r3, lr}
 23fd056:	4804      	ldr	r0, [pc, #16]	; (23fd068 <hal_i2c_read+0x14>)
 23fd058:	6800      	ldr	r0, [r0, #0]
 23fd05a:	4b04      	ldr	r3, [pc, #16]	; (23fd06c <hal_i2c_read+0x18>)
 23fd05c:	4403      	add	r3, r0
 23fd05e:	681b      	ldr	r3, [r3, #0]
 23fd060:	6a9b      	ldr	r3, [r3, #40]	; 0x28
 23fd062:	9302      	str	r3, [sp, #8]
 23fd064:	bd09      	pop	{r0, r3, pc}
 23fd066:	0000      	.short	0x0000
 23fd068:	1007a7e0 	.word	0x1007a7e0
 23fd06c:	00000010 	.word	0x00000010

023fd070 <hal_i2c_peek>:
DYNALIB_FN(11, hal_i2c, hal_i2c_peek, int32_t(hal_i2c_interface_t, void*))
 23fd070:	b509      	push	{r0, r3, lr}
 23fd072:	4804      	ldr	r0, [pc, #16]	; (23fd084 <hal_i2c_peek+0x14>)
 23fd074:	6800      	ldr	r0, [r0, #0]
 23fd076:	4b04      	ldr	r3, [pc, #16]	; (23fd088 <hal_i2c_peek+0x18>)
 23fd078:	4403      	add	r3, r0
 23fd07a:	681b      	ldr	r3, [r3, #0]
 23fd07c:	6adb      	ldr	r3, [r3, #44]	; 0x2c
 23fd07e:	9302      	str	r3, [sp, #8]
 23fd080:	bd09      	pop	{r0, r3, pc}
 23fd082:	0000      	.short	0x0000
 23fd084:	1007a7e0 	.word	0x1007a7e0
 23fd088:	00000010 	.word	0x00000010

023fd08c <hal_i2c_flush>:
DYNALIB_FN(12, hal_i2c, hal_i2c_flush, void(hal_i2c_interface_t, void*))
 23fd08c:	b509      	push	{r0, r3, lr}
 23fd08e:	4804      	ldr	r0, [pc, #16]	; (23fd0a0 <hal_i2c_flush+0x14>)
 23fd090:	6800      	ldr	r0, [r0, #0]
 23fd092:	4b04      	ldr	r3, [pc, #16]	; (23fd0a4 <hal_i2c_flush+0x18>)
 23fd094:	4403      	add	r3, r0
 23fd096:	681b      	ldr	r3, [r3, #0]
 23fd098:	6b1b      	ldr	r3, [r3, #48]	; 0x30
 23fd09a:	9302      	str	r3, [sp, #8]
 23fd09c:	bd09      	pop	{r0, r3, pc}
 23fd09e:	0000      	.short	0x0000
 23fd0a0:	1007a7e0 	.word	0x1007a7e0
 23fd0a4:	00000010 	.word	0x00000010

023fd0a8 <hal_i2c_is_enabled>:
DYNALIB_FN(13, hal_i2c, hal_i2c_is_enabled, bool(hal_i2c_interface_t, void*))
 23fd0a8:	b509      	push	{r0, r3, lr}
 23fd0aa:	4804      	ldr	r0, [pc, #16]	; (23fd0bc <hal_i2c_is_enabled+0x14>)
 23fd0ac:	6800      	ldr	r0, [r0, #0]
 23fd0ae:	4b04      	ldr	r3, [pc, #16]	; (23fd0c0 <hal_i2c_is_enabled+0x18>)
 23fd0b0:	4403      	add	r3, r0
 23fd0b2:	681b      	ldr	r3, [r3, #0]
 23fd0b4:	6b5b      	ldr	r3, [r3, #52]	; 0x34
 23fd0b6:	9302      	str	r3, [sp, #8]
 23fd0b8:	bd09      	pop	{r0, r3, pc}
 23fd0ba:	0000      	.short	0x0000
 23fd0bc:	1007a7e0 	.word	0x1007a7e0
 23fd0c0:	00000010 	.word	0x00000010

023fd0c4 <hal_i2c_init>:
DYNALIB_FN(14, hal_i2c, hal_i2c_set_callback_on_received, void(hal_i2c_interface_t, void(*)(int), void*))
DYNALIB_FN(15, hal_i2c, hal_i2c_set_callback_on_requested, void(hal_i2c_interface_t, void(*)(void), void*))
DYNALIB_FN(16, hal_i2c, hal_i2c_init, int(hal_i2c_interface_t, const hal_i2c_config_t*))
 23fd0c4:	b509      	push	{r0, r3, lr}
 23fd0c6:	4804      	ldr	r0, [pc, #16]	; (23fd0d8 <hal_i2c_init+0x14>)
 23fd0c8:	6800      	ldr	r0, [r0, #0]
 23fd0ca:	4b04      	ldr	r3, [pc, #16]	; (23fd0dc <hal_i2c_init+0x18>)
 23fd0cc:	4403      	add	r3, r0
 23fd0ce:	681b      	ldr	r3, [r3, #0]
 23fd0d0:	6c1b      	ldr	r3, [r3, #64]	; 0x40
 23fd0d2:	9302      	str	r3, [sp, #8]
 23fd0d4:	bd09      	pop	{r0, r3, pc}
 23fd0d6:	0000      	.short	0x0000
 23fd0d8:	1007a7e0 	.word	0x1007a7e0
 23fd0dc:	00000010 	.word	0x00000010

023fd0e0 <hal_i2c_request_ex>:
DYNALIB_FN(17, hal_i2c, hal_i2c_reset, int(hal_i2c_interface_t, uint32_t, void*))
DYNALIB_FN(18, hal_i2c, hal_i2c_lock, int32_t(hal_i2c_interface_t, void*))
DYNALIB_FN(19, hal_i2c, hal_i2c_unlock, int32_t(hal_i2c_interface_t, void*))
DYNALIB_FN(20, hal_i2c, hal_i2c_request_ex, int32_t(hal_i2c_interface_t, const hal_i2c_transmission_config_t*, void*))
 23fd0e0:	b509      	push	{r0, r3, lr}
 23fd0e2:	4804      	ldr	r0, [pc, #16]	; (23fd0f4 <hal_i2c_request_ex+0x14>)
 23fd0e4:	6800      	ldr	r0, [r0, #0]
 23fd0e6:	4b04      	ldr	r3, [pc, #16]	; (23fd0f8 <hal_i2c_request_ex+0x18>)
 23fd0e8:	4403      	add	r3, r0
 23fd0ea:	681b      	ldr	r3, [r3, #0]
 23fd0ec:	6d1b      	ldr	r3, [r3, #80]	; 0x50
 23fd0ee:	9302      	str	r3, [sp, #8]
 23fd0f0:	bd09      	pop	{r0, r3, pc}
 23fd0f2:	0000      	.short	0x0000
 23fd0f4:	1007a7e0 	.word	0x1007a7e0
 23fd0f8:	00000010 	.word	0x00000010

023fd0fc <sock_setsockopt>:
DYNALIB_FN(1, hal_socket, sock_bind, int(int, const struct sockaddr*, socklen_t))
DYNALIB_FN(2, hal_socket, sock_shutdown, int(int, int))
DYNALIB_FN(3, hal_socket, sock_getpeername, int(int, struct sockaddr*, socklen_t*))
DYNALIB_FN(4, hal_socket, sock_getsockname, int(int, struct sockaddr*, socklen_t*))
DYNALIB_FN(5, hal_socket, sock_getsockopt, int(int, int, int, void*, socklen_t*))
DYNALIB_FN(6, hal_socket, sock_setsockopt, int(int, int, int, const void*, socklen_t))
 23fd0fc:	b509      	push	{r0, r3, lr}
 23fd0fe:	4804      	ldr	r0, [pc, #16]	; (23fd110 <sock_setsockopt+0x14>)
 23fd100:	6800      	ldr	r0, [r0, #0]
 23fd102:	4b04      	ldr	r3, [pc, #16]	; (23fd114 <sock_setsockopt+0x18>)
 23fd104:	4403      	add	r3, r0
 23fd106:	681b      	ldr	r3, [r3, #0]
 23fd108:	699b      	ldr	r3, [r3, #24]
 23fd10a:	9302      	str	r3, [sp, #8]
 23fd10c:	bd09      	pop	{r0, r3, pc}
 23fd10e:	0000      	.short	0x0000
 23fd110:	1007a7e0 	.word	0x1007a7e0
 23fd114:	00000020 	.word	0x00000020

023fd118 <sock_close>:
DYNALIB_FN(7, hal_socket, sock_close, int(int))
 23fd118:	b509      	push	{r0, r3, lr}
 23fd11a:	4804      	ldr	r0, [pc, #16]	; (23fd12c <sock_close+0x14>)
 23fd11c:	6800      	ldr	r0, [r0, #0]
 23fd11e:	4b04      	ldr	r3, [pc, #16]	; (23fd130 <sock_close+0x18>)
 23fd120:	4403      	add	r3, r0
 23fd122:	681b      	ldr	r3, [r3, #0]
 23fd124:	69db      	ldr	r3, [r3, #28]
 23fd126:	9302      	str	r3, [sp, #8]
 23fd128:	bd09      	pop	{r0, r3, pc}
 23fd12a:	0000      	.short	0x0000
 23fd12c:	1007a7e0 	.word	0x1007a7e0
 23fd130:	00000020 	.word	0x00000020

023fd134 <sock_connect>:
DYNALIB_FN(8, hal_socket, sock_connect, int(int, const struct sockaddr*, socklen_t))
 23fd134:	b509      	push	{r0, r3, lr}
 23fd136:	4804      	ldr	r0, [pc, #16]	; (23fd148 <sock_connect+0x14>)
 23fd138:	6800      	ldr	r0, [r0, #0]
 23fd13a:	4b04      	ldr	r3, [pc, #16]	; (23fd14c <sock_connect+0x18>)
 23fd13c:	4403      	add	r3, r0
 23fd13e:	681b      	ldr	r3, [r3, #0]
 23fd140:	6a1b      	ldr	r3, [r3, #32]
 23fd142:	9302      	str	r3, [sp, #8]
 23fd144:	bd09      	pop	{r0, r3, pc}
 23fd146:	0000      	.short	0x0000
 23fd148:	1007a7e0 	.word	0x1007a7e0
 23fd14c:	00000020 	.word	0x00000020

023fd150 <sock_recv>:
DYNALIB_FN(9, hal_socket, sock_listen, int(int, int))
DYNALIB_FN(10, hal_socket, sock_recv, int(int, void*, size_t, int))
 23fd150:	b509      	push	{r0, r3, lr}
 23fd152:	4804      	ldr	r0, [pc, #16]	; (23fd164 <sock_recv+0x14>)
 23fd154:	6800      	ldr	r0, [r0, #0]
 23fd156:	4b04      	ldr	r3, [pc, #16]	; (23fd168 <sock_recv+0x18>)
 23fd158:	4403      	add	r3, r0
 23fd15a:	681b      	ldr	r3, [r3, #0]
 23fd15c:	6a9b      	ldr	r3, [r3, #40]	; 0x28
 23fd15e:	9302      	str	r3, [sp, #8]
 23fd160:	bd09      	pop	{r0, r3, pc}
 23fd162:	0000      	.short	0x0000
 23fd164:	1007a7e0 	.word	0x1007a7e0
 23fd168:	00000020 	.word	0x00000020

023fd16c <sock_send>:
DYNALIB_FN(11, hal_socket, sock_recvfrom, int(int, void*, size_t, int, struct sockaddr*, socklen_t*))
DYNALIB_FN(12, hal_socket, sock_send, int(int, const void*, size_t, int))
 23fd16c:	b509      	push	{r0, r3, lr}
 23fd16e:	4804      	ldr	r0, [pc, #16]	; (23fd180 <sock_send+0x14>)
 23fd170:	6800      	ldr	r0, [r0, #0]
 23fd172:	4b04      	ldr	r3, [pc, #16]	; (23fd184 <sock_send+0x18>)
 23fd174:	4403      	add	r3, r0
 23fd176:	681b      	ldr	r3, [r3, #0]
 23fd178:	6b1b      	ldr	r3, [r3, #48]	; 0x30
 23fd17a:	9302      	str	r3, [sp, #8]
 23fd17c:	bd09      	pop	{r0, r3, pc}
 23fd17e:	0000      	.short	0x0000
 23fd180:	1007a7e0 	.word	0x1007a7e0
 23fd184:	00000020 	.word	0x00000020

023fd188 <sock_socket>:
DYNALIB_FN(13, hal_socket, sock_sendto, int(int, const void*, size_t, int, const struct sockaddr*, socklen_t))
DYNALIB_FN(14, hal_socket, sock_socket, int(int, int, int))
 23fd188:	b509      	push	{r0, r3, lr}
 23fd18a:	4804      	ldr	r0, [pc, #16]	; (23fd19c <sock_socket+0x14>)
 23fd18c:	6800      	ldr	r0, [r0, #0]
 23fd18e:	4b04      	ldr	r3, [pc, #16]	; (23fd1a0 <sock_socket+0x18>)
 23fd190:	4403      	add	r3, r0
 23fd192:	681b      	ldr	r3, [r3, #0]
 23fd194:	6b9b      	ldr	r3, [r3, #56]	; 0x38
 23fd196:	9302      	str	r3, [sp, #8]
 23fd198:	bd09      	pop	{r0, r3, pc}
 23fd19a:	0000      	.short	0x0000
 23fd19c:	1007a7e0 	.word	0x1007a7e0
 23fd1a0:	00000020 	.word	0x00000020

023fd1a4 <hal_spi_begin>:
// New HAL functions must be added to the end of this list.
// GNINRAW

DYNALIB_BEGIN(hal_spi)

DYNALIB_FN(0, hal_spi, hal_spi_begin, void(hal_spi_interface_t, uint16_t))
 23fd1a4:	b509      	push	{r0, r3, lr}
 23fd1a6:	4804      	ldr	r0, [pc, #16]	; (23fd1b8 <hal_spi_begin+0x14>)
 23fd1a8:	6800      	ldr	r0, [r0, #0]
 23fd1aa:	4b04      	ldr	r3, [pc, #16]	; (23fd1bc <hal_spi_begin+0x18>)
 23fd1ac:	4403      	add	r3, r0
 23fd1ae:	681b      	ldr	r3, [r3, #0]
 23fd1b0:	681b      	ldr	r3, [r3, #0]
 23fd1b2:	9302      	str	r3, [sp, #8]
 23fd1b4:	bd09      	pop	{r0, r3, pc}
 23fd1b6:	0000      	.short	0x0000
 23fd1b8:	1007a7e0 	.word	0x1007a7e0
 23fd1bc:	00000018 	.word	0x00000018

023fd1c0 <hal_spi_set_bit_order>:
DYNALIB_FN(1, hal_spi, hal_spi_end, void(hal_spi_interface_t))
DYNALIB_FN(2, hal_spi, hal_spi_set_bit_order, void(hal_spi_interface_t, uint8_t))
 23fd1c0:	b509      	push	{r0, r3, lr}
 23fd1c2:	4804      	ldr	r0, [pc, #16]	; (23fd1d4 <hal_spi_set_bit_order+0x14>)
 23fd1c4:	6800      	ldr	r0, [r0, #0]
 23fd1c6:	4b04      	ldr	r3, [pc, #16]	; (23fd1d8 <hal_spi_set_bit_order+0x18>)
 23fd1c8:	4403      	add	r3, r0
 23fd1ca:	681b      	ldr	r3, [r3, #0]
 23fd1cc:	689b      	ldr	r3, [r3, #8]
 23fd1ce:	9302      	str	r3, [sp, #8]
 23fd1d0:	bd09      	pop	{r0, r3, pc}
 23fd1d2:	0000      	.short	0x0000
 23fd1d4:	1007a7e0 	.word	0x1007a7e0
 23fd1d8:	00000018 	.word	0x00000018

023fd1dc <hal_spi_set_data_mode>:
DYNALIB_FN(3, hal_spi, hal_spi_set_data_mode, void(hal_spi_interface_t, uint8_t))
 23fd1dc:	b509      	push	{r0, r3, lr}
 23fd1de:	4804      	ldr	r0, [pc, #16]	; (23fd1f0 <hal_spi_set_data_mode+0x14>)
 23fd1e0:	6800      	ldr	r0, [r0, #0]
 23fd1e2:	4b04      	ldr	r3, [pc, #16]	; (23fd1f4 <hal_spi_set_data_mode+0x18>)
 23fd1e4:	4403      	add	r3, r0
 23fd1e6:	681b      	ldr	r3, [r3, #0]
 23fd1e8:	68db      	ldr	r3, [r3, #12]
 23fd1ea:	9302      	str	r3, [sp, #8]
 23fd1ec:	bd09      	pop	{r0, r3, pc}
 23fd1ee:	0000      	.short	0x0000
 23fd1f0:	1007a7e0 	.word	0x1007a7e0
 23fd1f4:	00000018 	.word	0x00000018

023fd1f8 <hal_spi_set_clock_divider>:
DYNALIB_FN(4, hal_spi, hal_spi_set_clock_divider, void(hal_spi_interface_t, uint8_t))
 23fd1f8:	b509      	push	{r0, r3, lr}
 23fd1fa:	4804      	ldr	r0, [pc, #16]	; (23fd20c <hal_spi_set_clock_divider+0x14>)
 23fd1fc:	6800      	ldr	r0, [r0, #0]
 23fd1fe:	4b04      	ldr	r3, [pc, #16]	; (23fd210 <hal_spi_set_clock_divider+0x18>)
 23fd200:	4403      	add	r3, r0
 23fd202:	681b      	ldr	r3, [r3, #0]
 23fd204:	691b      	ldr	r3, [r3, #16]
 23fd206:	9302      	str	r3, [sp, #8]
 23fd208:	bd09      	pop	{r0, r3, pc}
 23fd20a:	0000      	.short	0x0000
 23fd20c:	1007a7e0 	.word	0x1007a7e0
 23fd210:	00000018 	.word	0x00000018

023fd214 <hal_spi_transfer>:
DYNALIB_FN(5, hal_spi, hal_spi_transfer, uint16_t(hal_spi_interface_t, uint16_t))
 23fd214:	b509      	push	{r0, r3, lr}
 23fd216:	4804      	ldr	r0, [pc, #16]	; (23fd228 <hal_spi_transfer+0x14>)
 23fd218:	6800      	ldr	r0, [r0, #0]
 23fd21a:	4b04      	ldr	r3, [pc, #16]	; (23fd22c <hal_spi_transfer+0x18>)
 23fd21c:	4403      	add	r3, r0
 23fd21e:	681b      	ldr	r3, [r3, #0]
 23fd220:	695b      	ldr	r3, [r3, #20]
 23fd222:	9302      	str	r3, [sp, #8]
 23fd224:	bd09      	pop	{r0, r3, pc}
 23fd226:	0000      	.short	0x0000
 23fd228:	1007a7e0 	.word	0x1007a7e0
 23fd22c:	00000018 	.word	0x00000018

023fd230 <hal_spi_init>:
DYNALIB_FN(6, hal_spi, hal_spi_is_enabled_deprecated, bool(void))
DYNALIB_FN(7, hal_spi, hal_spi_init, void(hal_spi_interface_t))
 23fd230:	b509      	push	{r0, r3, lr}
 23fd232:	4804      	ldr	r0, [pc, #16]	; (23fd244 <hal_spi_init+0x14>)
 23fd234:	6800      	ldr	r0, [r0, #0]
 23fd236:	4b04      	ldr	r3, [pc, #16]	; (23fd248 <hal_spi_init+0x18>)
 23fd238:	4403      	add	r3, r0
 23fd23a:	681b      	ldr	r3, [r3, #0]
 23fd23c:	69db      	ldr	r3, [r3, #28]
 23fd23e:	9302      	str	r3, [sp, #8]
 23fd240:	bd09      	pop	{r0, r3, pc}
 23fd242:	0000      	.short	0x0000
 23fd244:	1007a7e0 	.word	0x1007a7e0
 23fd248:	00000018 	.word	0x00000018

023fd24c <hal_spi_is_enabled>:
DYNALIB_FN(8, hal_spi, hal_spi_is_enabled, bool(hal_spi_interface_t))
 23fd24c:	b509      	push	{r0, r3, lr}
 23fd24e:	4804      	ldr	r0, [pc, #16]	; (23fd260 <hal_spi_is_enabled+0x14>)
 23fd250:	6800      	ldr	r0, [r0, #0]
 23fd252:	4b04      	ldr	r3, [pc, #16]	; (23fd264 <hal_spi_is_enabled+0x18>)
 23fd254:	4403      	add	r3, r0
 23fd256:	681b      	ldr	r3, [r3, #0]
 23fd258:	6a1b      	ldr	r3, [r3, #32]
 23fd25a:	9302      	str	r3, [sp, #8]
 23fd25c:	bd09      	pop	{r0, r3, pc}
 23fd25e:	0000      	.short	0x0000
 23fd260:	1007a7e0 	.word	0x1007a7e0
 23fd264:	00000018 	.word	0x00000018

023fd268 <hal_spi_info>:
DYNALIB_FN(9, hal_spi, hal_spi_info, void(hal_spi_interface_t, hal_spi_info_t*, void*))
 23fd268:	b509      	push	{r0, r3, lr}
 23fd26a:	4804      	ldr	r0, [pc, #16]	; (23fd27c <hal_spi_info+0x14>)
 23fd26c:	6800      	ldr	r0, [r0, #0]
 23fd26e:	4b04      	ldr	r3, [pc, #16]	; (23fd280 <hal_spi_info+0x18>)
 23fd270:	4403      	add	r3, r0
 23fd272:	681b      	ldr	r3, [r3, #0]
 23fd274:	6a5b      	ldr	r3, [r3, #36]	; 0x24
 23fd276:	9302      	str	r3, [sp, #8]
 23fd278:	bd09      	pop	{r0, r3, pc}
 23fd27a:	0000      	.short	0x0000
 23fd27c:	1007a7e0 	.word	0x1007a7e0
 23fd280:	00000018 	.word	0x00000018

023fd284 <hal_spi_transfer_dma>:
DYNALIB_FN(10, hal_spi, hal_spi_transfer_dma, void(hal_spi_interface_t, const void*, void*, uint32_t, hal_spi_dma_user_callback))
 23fd284:	b509      	push	{r0, r3, lr}
 23fd286:	4804      	ldr	r0, [pc, #16]	; (23fd298 <hal_spi_transfer_dma+0x14>)
 23fd288:	6800      	ldr	r0, [r0, #0]
 23fd28a:	4b04      	ldr	r3, [pc, #16]	; (23fd29c <hal_spi_transfer_dma+0x18>)
 23fd28c:	4403      	add	r3, r0
 23fd28e:	681b      	ldr	r3, [r3, #0]
 23fd290:	6a9b      	ldr	r3, [r3, #40]	; 0x28
 23fd292:	9302      	str	r3, [sp, #8]
 23fd294:	bd09      	pop	{r0, r3, pc}
 23fd296:	0000      	.short	0x0000
 23fd298:	1007a7e0 	.word	0x1007a7e0
 23fd29c:	00000018 	.word	0x00000018

023fd2a0 <hal_spi_begin_ext>:
DYNALIB_FN(11, hal_spi, hal_spi_begin_ext, void(hal_spi_interface_t, hal_spi_mode_t, uint16_t, const hal_spi_config_t*))
 23fd2a0:	b509      	push	{r0, r3, lr}
 23fd2a2:	4804      	ldr	r0, [pc, #16]	; (23fd2b4 <hal_spi_begin_ext+0x14>)
 23fd2a4:	6800      	ldr	r0, [r0, #0]
 23fd2a6:	4b04      	ldr	r3, [pc, #16]	; (23fd2b8 <hal_spi_begin_ext+0x18>)
 23fd2a8:	4403      	add	r3, r0
 23fd2aa:	681b      	ldr	r3, [r3, #0]
 23fd2ac:	6adb      	ldr	r3, [r3, #44]	; 0x2c
 23fd2ae:	9302      	str	r3, [sp, #8]
 23fd2b0:	bd09      	pop	{r0, r3, pc}
 23fd2b2:	0000      	.short	0x0000
 23fd2b4:	1007a7e0 	.word	0x1007a7e0
 23fd2b8:	00000018 	.word	0x00000018

023fd2bc <hal_spi_transfer_dma_status>:
DYNALIB_FN(12, hal_spi, hal_spi_set_callback_on_selected, void(hal_spi_interface_t, hal_spi_select_user_callback, void*))
DYNALIB_FN(13, hal_spi, hal_spi_transfer_dma_cancel, void(hal_spi_interface_t))
DYNALIB_FN(14, hal_spi, hal_spi_transfer_dma_status, int32_t(hal_spi_interface_t, hal_spi_transfer_status_t*))
 23fd2bc:	b509      	push	{r0, r3, lr}
 23fd2be:	4804      	ldr	r0, [pc, #16]	; (23fd2d0 <hal_spi_transfer_dma_status+0x14>)
 23fd2c0:	6800      	ldr	r0, [r0, #0]
 23fd2c2:	4b04      	ldr	r3, [pc, #16]	; (23fd2d4 <hal_spi_transfer_dma_status+0x18>)
 23fd2c4:	4403      	add	r3, r0
 23fd2c6:	681b      	ldr	r3, [r3, #0]
 23fd2c8:	6b9b      	ldr	r3, [r3, #56]	; 0x38
 23fd2ca:	9302      	str	r3, [sp, #8]
 23fd2cc:	bd09      	pop	{r0, r3, pc}
 23fd2ce:	0000      	.short	0x0000
 23fd2d0:	1007a7e0 	.word	0x1007a7e0
 23fd2d4:	00000018 	.word	0x00000018

023fd2d8 <hal_spi_set_settings>:
DYNALIB_FN(15, hal_spi, hal_spi_set_settings, int32_t(hal_spi_interface_t, uint8_t, uint8_t, uint8_t, uint8_t, void*))
 23fd2d8:	b509      	push	{r0, r3, lr}
 23fd2da:	4804      	ldr	r0, [pc, #16]	; (23fd2ec <hal_spi_set_settings+0x14>)
 23fd2dc:	6800      	ldr	r0, [r0, #0]
 23fd2de:	4b04      	ldr	r3, [pc, #16]	; (23fd2f0 <hal_spi_set_settings+0x18>)
 23fd2e0:	4403      	add	r3, r0
 23fd2e2:	681b      	ldr	r3, [r3, #0]
 23fd2e4:	6bdb      	ldr	r3, [r3, #60]	; 0x3c
 23fd2e6:	9302      	str	r3, [sp, #8]
 23fd2e8:	bd09      	pop	{r0, r3, pc}
 23fd2ea:	0000      	.short	0x0000
 23fd2ec:	1007a7e0 	.word	0x1007a7e0
 23fd2f0:	00000018 	.word	0x00000018

023fd2f4 <hal_spi_acquire>:
#if HAL_PLATFORM_SPI_HAL_THREAD_SAFETY
DYNALIB_FN(16, hal_spi, hal_spi_acquire, int32_t(hal_spi_interface_t, const hal_spi_acquire_config_t*))
 23fd2f4:	b509      	push	{r0, r3, lr}
 23fd2f6:	4804      	ldr	r0, [pc, #16]	; (23fd308 <hal_spi_acquire+0x14>)
 23fd2f8:	6800      	ldr	r0, [r0, #0]
 23fd2fa:	4b04      	ldr	r3, [pc, #16]	; (23fd30c <hal_spi_acquire+0x18>)
 23fd2fc:	4403      	add	r3, r0
 23fd2fe:	681b      	ldr	r3, [r3, #0]
 23fd300:	6c1b      	ldr	r3, [r3, #64]	; 0x40
 23fd302:	9302      	str	r3, [sp, #8]
 23fd304:	bd09      	pop	{r0, r3, pc}
 23fd306:	0000      	.short	0x0000
 23fd308:	1007a7e0 	.word	0x1007a7e0
 23fd30c:	00000018 	.word	0x00000018

023fd310 <hal_spi_release>:
DYNALIB_FN(17, hal_spi, hal_spi_release, int32_t(hal_spi_interface_t, void*))
 23fd310:	b509      	push	{r0, r3, lr}
 23fd312:	4804      	ldr	r0, [pc, #16]	; (23fd324 <hal_spi_release+0x14>)
 23fd314:	6800      	ldr	r0, [r0, #0]
 23fd316:	4b04      	ldr	r3, [pc, #16]	; (23fd328 <hal_spi_release+0x18>)
 23fd318:	4403      	add	r3, r0
 23fd31a:	681b      	ldr	r3, [r3, #0]
 23fd31c:	6c5b      	ldr	r3, [r3, #68]	; 0x44
 23fd31e:	9302      	str	r3, [sp, #8]
 23fd320:	bd09      	pop	{r0, r3, pc}
 23fd322:	0000      	.short	0x0000
 23fd324:	1007a7e0 	.word	0x1007a7e0
 23fd328:	00000018 	.word	0x00000018

023fd32c <HAL_USB_USART_Init>:
// GNINRAW

DYNALIB_BEGIN(hal_usb)

#ifdef USB_CDC_ENABLE
DYNALIB_FN(0, hal_usb, HAL_USB_USART_Init, void(HAL_USB_USART_Serial, const HAL_USB_USART_Config*))
 23fd32c:	b509      	push	{r0, r3, lr}
 23fd32e:	4804      	ldr	r0, [pc, #16]	; (23fd340 <HAL_USB_USART_Init+0x14>)
 23fd330:	6800      	ldr	r0, [r0, #0]
 23fd332:	4b04      	ldr	r3, [pc, #16]	; (23fd344 <HAL_USB_USART_Init+0x18>)
 23fd334:	4403      	add	r3, r0
 23fd336:	681b      	ldr	r3, [r3, #0]
 23fd338:	681b      	ldr	r3, [r3, #0]
 23fd33a:	9302      	str	r3, [sp, #8]
 23fd33c:	bd09      	pop	{r0, r3, pc}
 23fd33e:	0000      	.short	0x0000
 23fd340:	1007a7e0 	.word	0x1007a7e0
 23fd344:	00000034 	.word	0x00000034

023fd348 <HAL_USB_USART_Begin>:
DYNALIB_FN(1, hal_usb, HAL_USB_USART_Begin, void(HAL_USB_USART_Serial, uint32_t, void *))
 23fd348:	b509      	push	{r0, r3, lr}
 23fd34a:	4804      	ldr	r0, [pc, #16]	; (23fd35c <HAL_USB_USART_Begin+0x14>)
 23fd34c:	6800      	ldr	r0, [r0, #0]
 23fd34e:	4b04      	ldr	r3, [pc, #16]	; (23fd360 <HAL_USB_USART_Begin+0x18>)
 23fd350:	4403      	add	r3, r0
 23fd352:	681b      	ldr	r3, [r3, #0]
 23fd354:	685b      	ldr	r3, [r3, #4]
 23fd356:	9302      	str	r3, [sp, #8]
 23fd358:	bd09      	pop	{r0, r3, pc}
 23fd35a:	0000      	.short	0x0000
 23fd35c:	1007a7e0 	.word	0x1007a7e0
 23fd360:	00000034 	.word	0x00000034

023fd364 <HAL_USB_USART_Available_Data>:
DYNALIB_FN(2, hal_usb, HAL_USB_USART_End, void(HAL_USB_USART_Serial))
DYNALIB_FN(3, hal_usb, HAL_USB_USART_Baud_Rate, unsigned int(HAL_USB_USART_Serial))
DYNALIB_FN(4, hal_usb, HAL_USB_USART_Available_Data, int32_t(HAL_USB_USART_Serial))
 23fd364:	b509      	push	{r0, r3, lr}
 23fd366:	4804      	ldr	r0, [pc, #16]	; (23fd378 <HAL_USB_USART_Available_Data+0x14>)
 23fd368:	6800      	ldr	r0, [r0, #0]
 23fd36a:	4b04      	ldr	r3, [pc, #16]	; (23fd37c <HAL_USB_USART_Available_Data+0x18>)
 23fd36c:	4403      	add	r3, r0
 23fd36e:	681b      	ldr	r3, [r3, #0]
 23fd370:	691b      	ldr	r3, [r3, #16]
 23fd372:	9302      	str	r3, [sp, #8]
 23fd374:	bd09      	pop	{r0, r3, pc}
 23fd376:	0000      	.short	0x0000
 23fd378:	1007a7e0 	.word	0x1007a7e0
 23fd37c:	00000034 	.word	0x00000034

023fd380 <HAL_USB_USART_Available_Data_For_Write>:
DYNALIB_FN(5, hal_usb, HAL_USB_USART_Available_Data_For_Write, int32_t(HAL_USB_USART_Serial))
 23fd380:	b509      	push	{r0, r3, lr}
 23fd382:	4804      	ldr	r0, [pc, #16]	; (23fd394 <HAL_USB_USART_Available_Data_For_Write+0x14>)
 23fd384:	6800      	ldr	r0, [r0, #0]
 23fd386:	4b04      	ldr	r3, [pc, #16]	; (23fd398 <HAL_USB_USART_Available_Data_For_Write+0x18>)
 23fd388:	4403      	add	r3, r0
 23fd38a:	681b      	ldr	r3, [r3, #0]
 23fd38c:	695b      	ldr	r3, [r3, #20]
 23fd38e:	9302      	str	r3, [sp, #8]
 23fd390:	bd09      	pop	{r0, r3, pc}
 23fd392:	0000      	.short	0x0000
 23fd394:	1007a7e0 	.word	0x1007a7e0
 23fd398:	00000034 	.word	0x00000034

023fd39c <HAL_USB_USART_Receive_Data>:
DYNALIB_FN(6, hal_usb, HAL_USB_USART_Receive_Data, int32_t(HAL_USB_USART_Serial, uint8_t))
 23fd39c:	b509      	push	{r0, r3, lr}
 23fd39e:	4804      	ldr	r0, [pc, #16]	; (23fd3b0 <HAL_USB_USART_Receive_Data+0x14>)
 23fd3a0:	6800      	ldr	r0, [r0, #0]
 23fd3a2:	4b04      	ldr	r3, [pc, #16]	; (23fd3b4 <HAL_USB_USART_Receive_Data+0x18>)
 23fd3a4:	4403      	add	r3, r0
 23fd3a6:	681b      	ldr	r3, [r3, #0]
 23fd3a8:	699b      	ldr	r3, [r3, #24]
 23fd3aa:	9302      	str	r3, [sp, #8]
 23fd3ac:	bd09      	pop	{r0, r3, pc}
 23fd3ae:	0000      	.short	0x0000
 23fd3b0:	1007a7e0 	.word	0x1007a7e0
 23fd3b4:	00000034 	.word	0x00000034

023fd3b8 <HAL_USB_USART_Send_Data>:
DYNALIB_FN(7, hal_usb, HAL_USB_USART_Send_Data, int32_t(HAL_USB_USART_Serial, uint8_t))
 23fd3b8:	b509      	push	{r0, r3, lr}
 23fd3ba:	4804      	ldr	r0, [pc, #16]	; (23fd3cc <HAL_USB_USART_Send_Data+0x14>)
 23fd3bc:	6800      	ldr	r0, [r0, #0]
 23fd3be:	4b04      	ldr	r3, [pc, #16]	; (23fd3d0 <HAL_USB_USART_Send_Data+0x18>)
 23fd3c0:	4403      	add	r3, r0
 23fd3c2:	681b      	ldr	r3, [r3, #0]
 23fd3c4:	69db      	ldr	r3, [r3, #28]
 23fd3c6:	9302      	str	r3, [sp, #8]
 23fd3c8:	bd09      	pop	{r0, r3, pc}
 23fd3ca:	0000      	.short	0x0000
 23fd3cc:	1007a7e0 	.word	0x1007a7e0
 23fd3d0:	00000034 	.word	0x00000034

023fd3d4 <HAL_USB_USART_Flush_Data>:
DYNALIB_FN(8, hal_usb, HAL_USB_USART_Flush_Data, void(HAL_USB_USART_Serial))
 23fd3d4:	b509      	push	{r0, r3, lr}
 23fd3d6:	4804      	ldr	r0, [pc, #16]	; (23fd3e8 <HAL_USB_USART_Flush_Data+0x14>)
 23fd3d8:	6800      	ldr	r0, [r0, #0]
 23fd3da:	4b04      	ldr	r3, [pc, #16]	; (23fd3ec <HAL_USB_USART_Flush_Data+0x18>)
 23fd3dc:	4403      	add	r3, r0
 23fd3de:	681b      	ldr	r3, [r3, #0]
 23fd3e0:	6a1b      	ldr	r3, [r3, #32]
 23fd3e2:	9302      	str	r3, [sp, #8]
 23fd3e4:	bd09      	pop	{r0, r3, pc}
 23fd3e6:	0000      	.short	0x0000
 23fd3e8:	1007a7e0 	.word	0x1007a7e0
 23fd3ec:	00000034 	.word	0x00000034

023fd3f0 <HAL_USB_USART_Is_Connected>:
DYNALIB_FN(9, hal_usb, HAL_USB_USART_Is_Enabled, bool(HAL_USB_USART_Serial))
DYNALIB_FN(10, hal_usb, HAL_USB_USART_Is_Connected, bool(HAL_USB_USART_Serial))
 23fd3f0:	b509      	push	{r0, r3, lr}
 23fd3f2:	4804      	ldr	r0, [pc, #16]	; (23fd404 <HAL_USB_USART_Is_Connected+0x14>)
 23fd3f4:	6800      	ldr	r0, [r0, #0]
 23fd3f6:	4b04      	ldr	r3, [pc, #16]	; (23fd408 <HAL_USB_USART_Is_Connected+0x18>)
 23fd3f8:	4403      	add	r3, r0
 23fd3fa:	681b      	ldr	r3, [r3, #0]
 23fd3fc:	6a9b      	ldr	r3, [r3, #40]	; 0x28
 23fd3fe:	9302      	str	r3, [sp, #8]
 23fd400:	bd09      	pop	{r0, r3, pc}
 23fd402:	0000      	.short	0x0000
 23fd404:	1007a7e0 	.word	0x1007a7e0
 23fd408:	00000034 	.word	0x00000034

023fd40c <panic_>:
DYNALIB_FN(9, services, LED_Toggle, void(Led_TypeDef))
DYNALIB_FN(10, services, LED_Fade, void(Led_TypeDef))
DYNALIB_FN(11, services, Get_LED_Brightness, uint8_t(void))

DYNALIB_FN(12, services, set_logger_output, void(debug_output_fn, LoggerOutputLevel)) // Deprecated
DYNALIB_FN(13, services, panic_, void(ePanicCode, void*, void(*)(uint32_t)))
 23fd40c:	b509      	push	{r0, r3, lr}
 23fd40e:	4804      	ldr	r0, [pc, #16]	; (23fd420 <panic_+0x14>)
 23fd410:	6800      	ldr	r0, [r0, #0]
 23fd412:	4b04      	ldr	r3, [pc, #16]	; (23fd424 <panic_+0x18>)
 23fd414:	4403      	add	r3, r0
 23fd416:	681b      	ldr	r3, [r3, #0]
 23fd418:	6b5b      	ldr	r3, [r3, #52]	; 0x34
 23fd41a:	9302      	str	r3, [sp, #8]
 23fd41c:	bd09      	pop	{r0, r3, pc}
 23fd41e:	0000      	.short	0x0000
 23fd420:	1007a7e0 	.word	0x1007a7e0
 23fd424:	00000048 	.word	0x00000048

023fd428 <log_message>:
DYNALIB_FN(16, services, log_print_, void(int, int, const char*, const char*, const char*, ...)) // Deprecated
DYNALIB_FN(17, services, LED_RGB_SetChangeHandler, void(led_update_handler_fn, void*))
DYNALIB_FN(18, services, log_print_direct_, void(int, void*, const char*, ...)) // Deprecated
DYNALIB_FN(19, services, LED_GetColor, uint32_t(uint32_t, void*))

DYNALIB_FN(20, services, log_message, void(int, const char*, LogAttributes*, void*, const char*, ...))
 23fd428:	b509      	push	{r0, r3, lr}
 23fd42a:	4804      	ldr	r0, [pc, #16]	; (23fd43c <log_message+0x14>)
 23fd42c:	6800      	ldr	r0, [r0, #0]
 23fd42e:	4b04      	ldr	r3, [pc, #16]	; (23fd440 <log_message+0x18>)
 23fd430:	4403      	add	r3, r0
 23fd432:	681b      	ldr	r3, [r3, #0]
 23fd434:	6d1b      	ldr	r3, [r3, #80]	; 0x50
 23fd436:	9302      	str	r3, [sp, #8]
 23fd438:	bd09      	pop	{r0, r3, pc}
 23fd43a:	0000      	.short	0x0000
 23fd43c:	1007a7e0 	.word	0x1007a7e0
 23fd440:	00000048 	.word	0x00000048

023fd444 <log_message_v>:
DYNALIB_FN(21, services, log_message_v, void(int, const char*, LogAttributes*, void*, const char*, va_list))
 23fd444:	b509      	push	{r0, r3, lr}
 23fd446:	4804      	ldr	r0, [pc, #16]	; (23fd458 <log_message_v+0x14>)
 23fd448:	6800      	ldr	r0, [r0, #0]
 23fd44a:	4b04      	ldr	r3, [pc, #16]	; (23fd45c <log_message_v+0x18>)
 23fd44c:	4403      	add	r3, r0
 23fd44e:	681b      	ldr	r3, [r3, #0]
 23fd450:	6d5b      	ldr	r3, [r3, #84]	; 0x54
 23fd452:	9302      	str	r3, [sp, #8]
 23fd454:	bd09      	pop	{r0, r3, pc}
 23fd456:	0000      	.short	0x0000
 23fd458:	1007a7e0 	.word	0x1007a7e0
 23fd45c:	00000048 	.word	0x00000048

023fd460 <set_system_mode>:
#endif

DYNALIB_BEGIN(system)

DYNALIB_FN(0, system, system_mode, System_Mode_TypeDef(void))
DYNALIB_FN(1, system, set_system_mode, void(System_Mode_TypeDef))
 23fd460:	b509      	push	{r0, r3, lr}
 23fd462:	4804      	ldr	r0, [pc, #16]	; (23fd474 <set_system_mode+0x14>)
 23fd464:	6800      	ldr	r0, [r0, #0]
 23fd466:	4b04      	ldr	r3, [pc, #16]	; (23fd478 <set_system_mode+0x18>)
 23fd468:	4403      	add	r3, r0
 23fd46a:	681b      	ldr	r3, [r3, #0]
 23fd46c:	685b      	ldr	r3, [r3, #4]
 23fd46e:	9302      	str	r3, [sp, #8]
 23fd470:	bd09      	pop	{r0, r3, pc}
 23fd472:	0000      	.short	0x0000
 23fd474:	1007a7e0 	.word	0x1007a7e0
 23fd478:	00000008 	.word	0x00000008

023fd47c <system_delay_ms>:

DYNALIB_FN(2, system, set_ymodem_serial_flash_update_handler, void(ymodem_serial_flash_update_handler))
DYNALIB_FN(3, system, system_firmwareUpdate, bool(Stream*, void*))
DYNALIB_FN(4, system, system_fileTransfer, bool(system_file_transfer_t*, void*))

DYNALIB_FN(5, system, system_delay_ms, void(unsigned long, bool))
 23fd47c:	b509      	push	{r0, r3, lr}
 23fd47e:	4804      	ldr	r0, [pc, #16]	; (23fd490 <system_delay_ms+0x14>)
 23fd480:	6800      	ldr	r0, [r0, #0]
 23fd482:	4b04      	ldr	r3, [pc, #16]	; (23fd494 <system_delay_ms+0x18>)
 23fd484:	4403      	add	r3, r0
 23fd486:	681b      	ldr	r3, [r3, #0]
 23fd488:	695b      	ldr	r3, [r3, #20]
 23fd48a:	9302      	str	r3, [sp, #8]
 23fd48c:	bd09      	pop	{r0, r3, pc}
 23fd48e:	0000      	.short	0x0000
 23fd490:	1007a7e0 	.word	0x1007a7e0
 23fd494:	00000008 	.word	0x00000008

023fd498 <system_ctrl_set_app_request_handler>:
DYNALIB_FN(BASE_IDX + 6, system, led_pattern_period, uint16_t(int, int, void*))
DYNALIB_FN(BASE_IDX + 7, system, system_set_tester_handlers, int(system_tester_handlers_t*, void*))
DYNALIB_FN(BASE_IDX + 8, system, system_format_diag_data, int(const uint16_t*, size_t, unsigned, appender_fn, void*, void*))

// Control requests
DYNALIB_FN(BASE_IDX + 9, system, system_ctrl_set_app_request_handler, int(ctrl_request_handler_fn, void*))
 23fd498:	b509      	push	{r0, r3, lr}
 23fd49a:	4804      	ldr	r0, [pc, #16]	; (23fd4ac <system_ctrl_set_app_request_handler+0x14>)
 23fd49c:	6800      	ldr	r0, [r0, #0]
 23fd49e:	4b04      	ldr	r3, [pc, #16]	; (23fd4b0 <system_ctrl_set_app_request_handler+0x18>)
 23fd4a0:	4403      	add	r3, r0
 23fd4a2:	681b      	ldr	r3, [r3, #0]
 23fd4a4:	f8d3 3088 	ldr.w	r3, [r3, #136]	; 0x88
 23fd4a8:	9302      	str	r3, [sp, #8]
 23fd4aa:	bd09      	pop	{r0, r3, pc}
 23fd4ac:	1007a7e0 	.word	0x1007a7e0
 23fd4b0:	00000008 	.word	0x00000008

023fd4b4 <system_ctrl_set_result>:
DYNALIB_FN(BASE_IDX + 10, system, system_ctrl_alloc_reply_data, int(ctrl_request*, size_t, void*))
DYNALIB_FN(BASE_IDX + 11, system, system_ctrl_free_request_data, void(ctrl_request*, void*))
DYNALIB_FN(BASE_IDX + 12, system, system_ctrl_set_result, void(ctrl_request*, int, ctrl_completion_handler_fn, void*, void*))
 23fd4b4:	b509      	push	{r0, r3, lr}
 23fd4b6:	4804      	ldr	r0, [pc, #16]	; (23fd4c8 <system_ctrl_set_result+0x14>)
 23fd4b8:	6800      	ldr	r0, [r0, #0]
 23fd4ba:	4b04      	ldr	r3, [pc, #16]	; (23fd4cc <system_ctrl_set_result+0x18>)
 23fd4bc:	4403      	add	r3, r0
 23fd4be:	681b      	ldr	r3, [r3, #0]
 23fd4c0:	f8d3 3094 	ldr.w	r3, [r3, #148]	; 0x94
 23fd4c4:	9302      	str	r3, [sp, #8]
 23fd4c6:	bd09      	pop	{r0, r3, pc}
 23fd4c8:	1007a7e0 	.word	0x1007a7e0
 23fd4cc:	00000008 	.word	0x00000008

023fd4d0 <network_connect>:
#endif

DYNALIB_BEGIN(system_net)

DYNALIB_FN(0, system_net, network_config, const void*(network_handle_t, uint32_t, void*))
DYNALIB_FN(1, system_net, network_connect, void(network_handle_t, uint32_t, uint32_t, void*))
 23fd4d0:	b509      	push	{r0, r3, lr}
 23fd4d2:	4804      	ldr	r0, [pc, #16]	; (23fd4e4 <network_connect+0x14>)
 23fd4d4:	6800      	ldr	r0, [r0, #0]
 23fd4d6:	4b04      	ldr	r3, [pc, #16]	; (23fd4e8 <network_connect+0x18>)
 23fd4d8:	4403      	add	r3, r0
 23fd4da:	681b      	ldr	r3, [r3, #0]
 23fd4dc:	685b      	ldr	r3, [r3, #4]
 23fd4de:	9302      	str	r3, [sp, #8]
 23fd4e0:	bd09      	pop	{r0, r3, pc}
 23fd4e2:	0000      	.short	0x0000
 23fd4e4:	1007a7e0 	.word	0x1007a7e0
 23fd4e8:	00000028 	.word	0x00000028

023fd4ec <network_connecting>:
DYNALIB_FN(2, system_net, network_connecting, bool(network_handle_t, uint32_t, void*))
 23fd4ec:	b509      	push	{r0, r3, lr}
 23fd4ee:	4804      	ldr	r0, [pc, #16]	; (23fd500 <network_connecting+0x14>)
 23fd4f0:	6800      	ldr	r0, [r0, #0]
 23fd4f2:	4b04      	ldr	r3, [pc, #16]	; (23fd504 <network_connecting+0x18>)
 23fd4f4:	4403      	add	r3, r0
 23fd4f6:	681b      	ldr	r3, [r3, #0]
 23fd4f8:	689b      	ldr	r3, [r3, #8]
 23fd4fa:	9302      	str	r3, [sp, #8]
 23fd4fc:	bd09      	pop	{r0, r3, pc}
 23fd4fe:	0000      	.short	0x0000
 23fd500:	1007a7e0 	.word	0x1007a7e0
 23fd504:	00000028 	.word	0x00000028

023fd508 <network_disconnect>:
DYNALIB_FN(3, system_net, network_disconnect, void(network_handle_t, uint32_t, void*))
 23fd508:	b509      	push	{r0, r3, lr}
 23fd50a:	4804      	ldr	r0, [pc, #16]	; (23fd51c <network_disconnect+0x14>)
 23fd50c:	6800      	ldr	r0, [r0, #0]
 23fd50e:	4b04      	ldr	r3, [pc, #16]	; (23fd520 <network_disconnect+0x18>)
 23fd510:	4403      	add	r3, r0
 23fd512:	681b      	ldr	r3, [r3, #0]
 23fd514:	68db      	ldr	r3, [r3, #12]
 23fd516:	9302      	str	r3, [sp, #8]
 23fd518:	bd09      	pop	{r0, r3, pc}
 23fd51a:	0000      	.short	0x0000
 23fd51c:	1007a7e0 	.word	0x1007a7e0
 23fd520:	00000028 	.word	0x00000028

023fd524 <network_ready>:
DYNALIB_FN(4, system_net, network_ready, bool(network_handle_t, uint32_t, void*))
 23fd524:	b509      	push	{r0, r3, lr}
 23fd526:	4804      	ldr	r0, [pc, #16]	; (23fd538 <network_ready+0x14>)
 23fd528:	6800      	ldr	r0, [r0, #0]
 23fd52a:	4b04      	ldr	r3, [pc, #16]	; (23fd53c <network_ready+0x18>)
 23fd52c:	4403      	add	r3, r0
 23fd52e:	681b      	ldr	r3, [r3, #0]
 23fd530:	691b      	ldr	r3, [r3, #16]
 23fd532:	9302      	str	r3, [sp, #8]
 23fd534:	bd09      	pop	{r0, r3, pc}
 23fd536:	0000      	.short	0x0000
 23fd538:	1007a7e0 	.word	0x1007a7e0
 23fd53c:	00000028 	.word	0x00000028

023fd540 <network_on>:
DYNALIB_FN(5, system_net, network_on, void(network_handle_t, uint32_t, uint32_t, void*))
 23fd540:	b509      	push	{r0, r3, lr}
 23fd542:	4804      	ldr	r0, [pc, #16]	; (23fd554 <network_on+0x14>)
 23fd544:	6800      	ldr	r0, [r0, #0]
 23fd546:	4b04      	ldr	r3, [pc, #16]	; (23fd558 <network_on+0x18>)
 23fd548:	4403      	add	r3, r0
 23fd54a:	681b      	ldr	r3, [r3, #0]
 23fd54c:	695b      	ldr	r3, [r3, #20]
 23fd54e:	9302      	str	r3, [sp, #8]
 23fd550:	bd09      	pop	{r0, r3, pc}
 23fd552:	0000      	.short	0x0000
 23fd554:	1007a7e0 	.word	0x1007a7e0
 23fd558:	00000028 	.word	0x00000028

023fd55c <network_off>:
DYNALIB_FN(6, system_net, network_off, void(network_handle_t, uint32_t, uint32_t, void*))
 23fd55c:	b509      	push	{r0, r3, lr}
 23fd55e:	4804      	ldr	r0, [pc, #16]	; (23fd570 <network_off+0x14>)
 23fd560:	6800      	ldr	r0, [r0, #0]
 23fd562:	4b04      	ldr	r3, [pc, #16]	; (23fd574 <network_off+0x18>)
 23fd564:	4403      	add	r3, r0
 23fd566:	681b      	ldr	r3, [r3, #0]
 23fd568:	699b      	ldr	r3, [r3, #24]
 23fd56a:	9302      	str	r3, [sp, #8]
 23fd56c:	bd09      	pop	{r0, r3, pc}
 23fd56e:	0000      	.short	0x0000
 23fd570:	1007a7e0 	.word	0x1007a7e0
 23fd574:	00000028 	.word	0x00000028

023fd578 <network_listen>:
DYNALIB_FN(7, system_net, network_listen, void(network_handle_t, uint32_t, void*))
 23fd578:	b509      	push	{r0, r3, lr}
 23fd57a:	4804      	ldr	r0, [pc, #16]	; (23fd58c <network_listen+0x14>)
 23fd57c:	6800      	ldr	r0, [r0, #0]
 23fd57e:	4b04      	ldr	r3, [pc, #16]	; (23fd590 <network_listen+0x18>)
 23fd580:	4403      	add	r3, r0
 23fd582:	681b      	ldr	r3, [r3, #0]
 23fd584:	69db      	ldr	r3, [r3, #28]
 23fd586:	9302      	str	r3, [sp, #8]
 23fd588:	bd09      	pop	{r0, r3, pc}
 23fd58a:	0000      	.short	0x0000
 23fd58c:	1007a7e0 	.word	0x1007a7e0
 23fd590:	00000028 	.word	0x00000028

023fd594 <network_listening>:
DYNALIB_FN(8, system_net, network_listening, bool(network_handle_t, uint32_t, void*))
 23fd594:	b509      	push	{r0, r3, lr}
 23fd596:	4804      	ldr	r0, [pc, #16]	; (23fd5a8 <network_listening+0x14>)
 23fd598:	6800      	ldr	r0, [r0, #0]
 23fd59a:	4b04      	ldr	r3, [pc, #16]	; (23fd5ac <network_listening+0x18>)
 23fd59c:	4403      	add	r3, r0
 23fd59e:	681b      	ldr	r3, [r3, #0]
 23fd5a0:	6a1b      	ldr	r3, [r3, #32]
 23fd5a2:	9302      	str	r3, [sp, #8]
 23fd5a4:	bd09      	pop	{r0, r3, pc}
 23fd5a6:	0000      	.short	0x0000
 23fd5a8:	1007a7e0 	.word	0x1007a7e0
 23fd5ac:	00000028 	.word	0x00000028

023fd5b0 <network_set_credentials>:
DYNALIB_FN(9, system_net, network_has_credentials, bool(network_handle_t, uint32_t, void*))
DYNALIB_FN(10, system_net, network_set_credentials, int(network_handle_t, uint32_t, NetworkCredentials*, void*))
 23fd5b0:	b509      	push	{r0, r3, lr}
 23fd5b2:	4804      	ldr	r0, [pc, #16]	; (23fd5c4 <network_set_credentials+0x14>)
 23fd5b4:	6800      	ldr	r0, [r0, #0]
 23fd5b6:	4b04      	ldr	r3, [pc, #16]	; (23fd5c8 <network_set_credentials+0x18>)
 23fd5b8:	4403      	add	r3, r0
 23fd5ba:	681b      	ldr	r3, [r3, #0]
 23fd5bc:	6a9b      	ldr	r3, [r3, #40]	; 0x28
 23fd5be:	9302      	str	r3, [sp, #8]
 23fd5c0:	bd09      	pop	{r0, r3, pc}
 23fd5c2:	0000      	.short	0x0000
 23fd5c4:	1007a7e0 	.word	0x1007a7e0
 23fd5c8:	00000028 	.word	0x00000028

023fd5cc <network_clear_credentials>:
DYNALIB_FN(11, system_net, network_clear_credentials, bool(network_handle_t, uint32_t, NetworkCredentials*, void*))
 23fd5cc:	b509      	push	{r0, r3, lr}
 23fd5ce:	4804      	ldr	r0, [pc, #16]	; (23fd5e0 <network_clear_credentials+0x14>)
 23fd5d0:	6800      	ldr	r0, [r0, #0]
 23fd5d2:	4b04      	ldr	r3, [pc, #16]	; (23fd5e4 <network_clear_credentials+0x18>)
 23fd5d4:	4403      	add	r3, r0
 23fd5d6:	681b      	ldr	r3, [r3, #0]
 23fd5d8:	6adb      	ldr	r3, [r3, #44]	; 0x2c
 23fd5da:	9302      	str	r3, [sp, #8]
 23fd5dc:	bd09      	pop	{r0, r3, pc}
 23fd5de:	0000      	.short	0x0000
 23fd5e0:	1007a7e0 	.word	0x1007a7e0
 23fd5e4:	00000028 	.word	0x00000028

023fd5e8 <network_set_listen_timeout>:
DYNALIB_FN(12, system_net, network_set_listen_timeout, void(network_handle_t, uint16_t, void*))
 23fd5e8:	b509      	push	{r0, r3, lr}
 23fd5ea:	4804      	ldr	r0, [pc, #16]	; (23fd5fc <network_set_listen_timeout+0x14>)
 23fd5ec:	6800      	ldr	r0, [r0, #0]
 23fd5ee:	4b04      	ldr	r3, [pc, #16]	; (23fd600 <network_set_listen_timeout+0x18>)
 23fd5f0:	4403      	add	r3, r0
 23fd5f2:	681b      	ldr	r3, [r3, #0]
 23fd5f4:	6b1b      	ldr	r3, [r3, #48]	; 0x30
 23fd5f6:	9302      	str	r3, [sp, #8]
 23fd5f8:	bd09      	pop	{r0, r3, pc}
 23fd5fa:	0000      	.short	0x0000
 23fd5fc:	1007a7e0 	.word	0x1007a7e0
 23fd600:	00000028 	.word	0x00000028

023fd604 <network_get_listen_timeout>:
DYNALIB_FN(13, system_net, network_get_listen_timeout, uint16_t(network_handle_t, uint32_t, void*))
 23fd604:	b509      	push	{r0, r3, lr}
 23fd606:	4804      	ldr	r0, [pc, #16]	; (23fd618 <network_get_listen_timeout+0x14>)
 23fd608:	6800      	ldr	r0, [r0, #0]
 23fd60a:	4b04      	ldr	r3, [pc, #16]	; (23fd61c <network_get_listen_timeout+0x18>)
 23fd60c:	4403      	add	r3, r0
 23fd60e:	681b      	ldr	r3, [r3, #0]
 23fd610:	6b5b      	ldr	r3, [r3, #52]	; 0x34
 23fd612:	9302      	str	r3, [sp, #8]
 23fd614:	bd09      	pop	{r0, r3, pc}
 23fd616:	0000      	.short	0x0000
 23fd618:	1007a7e0 	.word	0x1007a7e0
 23fd61c:	00000028 	.word	0x00000028

023fd620 <network_is_on>:
DYNALIB_FN(14, system_net, network_set_hostname, int(network_handle_t, uint32_t, const char*, void*))
DYNALIB_FN(15, system_net, network_get_hostname, int(network_handle_t, uint32_t, char*, size_t, void*))
DYNALIB_FN(16, system_net, network_is_on, bool(network_handle_t, void*))
 23fd620:	b509      	push	{r0, r3, lr}
 23fd622:	4804      	ldr	r0, [pc, #16]	; (23fd634 <network_is_on+0x14>)
 23fd624:	6800      	ldr	r0, [r0, #0]
 23fd626:	4b04      	ldr	r3, [pc, #16]	; (23fd638 <network_is_on+0x18>)
 23fd628:	4403      	add	r3, r0
 23fd62a:	681b      	ldr	r3, [r3, #0]
 23fd62c:	6c1b      	ldr	r3, [r3, #64]	; 0x40
 23fd62e:	9302      	str	r3, [sp, #8]
 23fd630:	bd09      	pop	{r0, r3, pc}
 23fd632:	0000      	.short	0x0000
 23fd634:	1007a7e0 	.word	0x1007a7e0
 23fd638:	00000028 	.word	0x00000028

023fd63c <network_is_off>:
DYNALIB_FN(17, system_net, network_is_off, bool(network_handle_t, void*))
 23fd63c:	b509      	push	{r0, r3, lr}
 23fd63e:	4804      	ldr	r0, [pc, #16]	; (23fd650 <network_is_off+0x14>)
 23fd640:	6800      	ldr	r0, [r0, #0]
 23fd642:	4b04      	ldr	r3, [pc, #16]	; (23fd654 <network_is_off+0x18>)
 23fd644:	4403      	add	r3, r0
 23fd646:	681b      	ldr	r3, [r3, #0]
 23fd648:	6c5b      	ldr	r3, [r3, #68]	; 0x44
 23fd64a:	9302      	str	r3, [sp, #8]
 23fd64c:	bd09      	pop	{r0, r3, pc}
 23fd64e:	0000      	.short	0x0000
 23fd650:	1007a7e0 	.word	0x1007a7e0
 23fd654:	00000028 	.word	0x00000028

023fd658 <network_prefer>:
DYNALIB_FN(18, system_net, network_set_configuration, int(network_handle_t, const network_configuration_t*, void*))
DYNALIB_FN(19, system_net, network_get_configuration, int(network_handle_t, network_configuration_t**, size_t*, const char*, size_t, void*))
DYNALIB_FN(20, system_net, network_free_configuration, int(network_configuration_t*, size_t, void*))
DYNALIB_FN(21, system_net, network_prefer, network_handle_t(network_handle_t, bool, void*))
 23fd658:	b509      	push	{r0, r3, lr}
 23fd65a:	4804      	ldr	r0, [pc, #16]	; (23fd66c <network_prefer+0x14>)
 23fd65c:	6800      	ldr	r0, [r0, #0]
 23fd65e:	4b04      	ldr	r3, [pc, #16]	; (23fd670 <network_prefer+0x18>)
 23fd660:	4403      	add	r3, r0
 23fd662:	681b      	ldr	r3, [r3, #0]
 23fd664:	6d5b      	ldr	r3, [r3, #84]	; 0x54
 23fd666:	9302      	str	r3, [sp, #8]
 23fd668:	bd09      	pop	{r0, r3, pc}
 23fd66a:	0000      	.short	0x0000
 23fd66c:	1007a7e0 	.word	0x1007a7e0
 23fd670:	00000028 	.word	0x00000028

023fd674 <network_is_preferred>:
DYNALIB_FN(22, system_net, network_is_preferred, bool(network_handle_t, void*))
 23fd674:	b509      	push	{r0, r3, lr}
 23fd676:	4804      	ldr	r0, [pc, #16]	; (23fd688 <network_is_preferred+0x14>)
 23fd678:	6800      	ldr	r0, [r0, #0]
 23fd67a:	4b04      	ldr	r3, [pc, #16]	; (23fd68c <network_is_preferred+0x18>)
 23fd67c:	4403      	add	r3, r0
 23fd67e:	681b      	ldr	r3, [r3, #0]
 23fd680:	6d9b      	ldr	r3, [r3, #88]	; 0x58
 23fd682:	9302      	str	r3, [sp, #8]
 23fd684:	bd09      	pop	{r0, r3, pc}
 23fd686:	0000      	.short	0x0000
 23fd688:	1007a7e0 	.word	0x1007a7e0
 23fd68c:	00000028 	.word	0x00000028

023fd690 <spark_process>:

DYNALIB_BEGIN(system_cloud)

DYNALIB_FN(0, system_cloud, spark_variable, bool(const char*, const void*, Spark_Data_TypeDef, spark_variable_t*))
DYNALIB_FN(1, system_cloud, spark_function, bool(const char*, p_user_function_int_str_t, void*))
DYNALIB_FN(2, system_cloud, spark_process, bool(void))
 23fd690:	b509      	push	{r0, r3, lr}
 23fd692:	4804      	ldr	r0, [pc, #16]	; (23fd6a4 <spark_process+0x14>)
 23fd694:	6800      	ldr	r0, [r0, #0]
 23fd696:	4b04      	ldr	r3, [pc, #16]	; (23fd6a8 <spark_process+0x18>)
 23fd698:	4403      	add	r3, r0
 23fd69a:	681b      	ldr	r3, [r3, #0]
 23fd69c:	689b      	ldr	r3, [r3, #8]
 23fd69e:	9302      	str	r3, [sp, #8]
 23fd6a0:	bd09      	pop	{r0, r3, pc}
 23fd6a2:	0000      	.short	0x0000
 23fd6a4:	1007a7e0 	.word	0x1007a7e0
 23fd6a8:	0000002c 	.word	0x0000002c

023fd6ac <spark_set_random_seed_from_cloud_handler>:
DYNALIB_FN(10, system_cloud, spark_unsubscribe, void(void*))
DYNALIB_FN(11, system_cloud, spark_sync_time, bool(void*))
DYNALIB_FN(12, system_cloud, spark_sync_time_pending, bool(void*))
DYNALIB_FN(13, system_cloud, spark_sync_time_last, system_tick_t(time32_t*, time_t*))
DYNALIB_FN(14, system_cloud, spark_set_connection_property, int(unsigned, unsigned, const void*, void*))
DYNALIB_FN(15, system_cloud, spark_set_random_seed_from_cloud_handler, int(void (*handler)(unsigned int), void*))
 23fd6ac:	b509      	push	{r0, r3, lr}
 23fd6ae:	4804      	ldr	r0, [pc, #16]	; (23fd6c0 <spark_set_random_seed_from_cloud_handler+0x14>)
 23fd6b0:	6800      	ldr	r0, [r0, #0]
 23fd6b2:	4b04      	ldr	r3, [pc, #16]	; (23fd6c4 <spark_set_random_seed_from_cloud_handler+0x18>)
 23fd6b4:	4403      	add	r3, r0
 23fd6b6:	681b      	ldr	r3, [r3, #0]
 23fd6b8:	6bdb      	ldr	r3, [r3, #60]	; 0x3c
 23fd6ba:	9302      	str	r3, [sp, #8]
 23fd6bc:	bd09      	pop	{r0, r3, pc}
 23fd6be:	0000      	.short	0x0000
 23fd6c0:	1007a7e0 	.word	0x1007a7e0
 23fd6c4:	0000002c 	.word	0x0000002c

023fd6c8 <malloc>:
#include "hal_platform.h"
#endif // defined(DYNALIB_EXPORT) || (defined(DYNALIB_IMPORT) && !defined(RT_DYNALIB_NO_DEPENDENCY_BREAKING_IMPORTS))

DYNALIB_BEGIN(rt)

DYNALIB_FN(0, rt, malloc, void*(size_t))
 23fd6c8:	b509      	push	{r0, r3, lr}
 23fd6ca:	4804      	ldr	r0, [pc, #16]	; (23fd6dc <malloc+0x14>)
 23fd6cc:	6800      	ldr	r0, [r0, #0]
 23fd6ce:	4b04      	ldr	r3, [pc, #16]	; (23fd6e0 <malloc+0x18>)
 23fd6d0:	4403      	add	r3, r0
 23fd6d2:	681b      	ldr	r3, [r3, #0]
 23fd6d4:	681b      	ldr	r3, [r3, #0]
 23fd6d6:	9302      	str	r3, [sp, #8]
 23fd6d8:	bd09      	pop	{r0, r3, pc}
 23fd6da:	0000      	.short	0x0000
 23fd6dc:	1007a7e0 	.word	0x1007a7e0
 23fd6e0:	00000004 	.word	0x00000004

023fd6e4 <free>:
DYNALIB_FN(1, rt, free, void(void*))
 23fd6e4:	b509      	push	{r0, r3, lr}
 23fd6e6:	4804      	ldr	r0, [pc, #16]	; (23fd6f8 <free+0x14>)
 23fd6e8:	6800      	ldr	r0, [r0, #0]
 23fd6ea:	4b04      	ldr	r3, [pc, #16]	; (23fd6fc <free+0x18>)
 23fd6ec:	4403      	add	r3, r0
 23fd6ee:	681b      	ldr	r3, [r3, #0]
 23fd6f0:	685b      	ldr	r3, [r3, #4]
 23fd6f2:	9302      	str	r3, [sp, #8]
 23fd6f4:	bd09      	pop	{r0, r3, pc}
 23fd6f6:	0000      	.short	0x0000
 23fd6f8:	1007a7e0 	.word	0x1007a7e0
 23fd6fc:	00000004 	.word	0x00000004

023fd700 <realloc>:
DYNALIB_FN(2, rt, realloc, void*(void*, size_t))
 23fd700:	b509      	push	{r0, r3, lr}
 23fd702:	4804      	ldr	r0, [pc, #16]	; (23fd714 <realloc+0x14>)
 23fd704:	6800      	ldr	r0, [r0, #0]
 23fd706:	4b04      	ldr	r3, [pc, #16]	; (23fd718 <realloc+0x18>)
 23fd708:	4403      	add	r3, r0
 23fd70a:	681b      	ldr	r3, [r3, #0]
 23fd70c:	689b      	ldr	r3, [r3, #8]
 23fd70e:	9302      	str	r3, [sp, #8]
 23fd710:	bd09      	pop	{r0, r3, pc}
 23fd712:	0000      	.short	0x0000
 23fd714:	1007a7e0 	.word	0x1007a7e0
 23fd718:	00000004 	.word	0x00000004

023fd71c <vsnprintf>:
DYNALIB_FN(4, rt, siprintf, int(char*, const char*, ...))
DYNALIB_FN(5, rt, sscanf, int(const char*, const char*, ...))
DYNALIB_FN(6, rt, siscanf, int(const char*, const char*, ...))
DYNALIB_FN(7, rt, snprintf, int(char*, size_t, const char*, ...))
DYNALIB_FN(8, rt, sniprintf, int(char*, size_t, const char*, ...))
DYNALIB_FN(9, rt, vsnprintf, int(char*, size_t, const char*, va_list))
 23fd71c:	b509      	push	{r0, r3, lr}
 23fd71e:	4804      	ldr	r0, [pc, #16]	; (23fd730 <vsnprintf+0x14>)
 23fd720:	6800      	ldr	r0, [r0, #0]
 23fd722:	4b04      	ldr	r3, [pc, #16]	; (23fd734 <vsnprintf+0x18>)
 23fd724:	4403      	add	r3, r0
 23fd726:	681b      	ldr	r3, [r3, #0]
 23fd728:	6a5b      	ldr	r3, [r3, #36]	; 0x24
 23fd72a:	9302      	str	r3, [sp, #8]
 23fd72c:	bd09      	pop	{r0, r3, pc}
 23fd72e:	0000      	.short	0x0000
 23fd730:	1007a7e0 	.word	0x1007a7e0
 23fd734:	00000004 	.word	0x00000004

023fd738 <abort>:
DYNALIB_FN(10, rt, vsniprintf, int(char*, size_t, const char*, va_list))
DYNALIB_FN(11, rt, abort, void(void))
 23fd738:	b509      	push	{r0, r3, lr}
 23fd73a:	4804      	ldr	r0, [pc, #16]	; (23fd74c <abort+0x14>)
 23fd73c:	6800      	ldr	r0, [r0, #0]
 23fd73e:	4b04      	ldr	r3, [pc, #16]	; (23fd750 <abort+0x18>)
 23fd740:	4403      	add	r3, r0
 23fd742:	681b      	ldr	r3, [r3, #0]
 23fd744:	6adb      	ldr	r3, [r3, #44]	; 0x2c
 23fd746:	9302      	str	r3, [sp, #8]
 23fd748:	bd09      	pop	{r0, r3, pc}
 23fd74a:	0000      	.short	0x0000
 23fd74c:	1007a7e0 	.word	0x1007a7e0
 23fd750:	00000004 	.word	0x00000004

023fd754 <__errno>:
DYNALIB_FN(12, rt, _malloc_r, void*(struct _reent*, size_t))
DYNALIB_FN(13, rt, _free_r, void(struct _reent*, void*))
DYNALIB_FN(14, rt, _realloc_r, void*(struct _reent*, void*, size_t))
DYNALIB_FN(15, rt, __errno, int*())
 23fd754:	b509      	push	{r0, r3, lr}
 23fd756:	4804      	ldr	r0, [pc, #16]	; (23fd768 <__errno+0x14>)
 23fd758:	6800      	ldr	r0, [r0, #0]
 23fd75a:	4b04      	ldr	r3, [pc, #16]	; (23fd76c <__errno+0x18>)
 23fd75c:	4403      	add	r3, r0
 23fd75e:	681b      	ldr	r3, [r3, #0]
 23fd760:	6bdb      	ldr	r3, [r3, #60]	; 0x3c
 23fd762:	9302      	str	r3, [sp, #8]
 23fd764:	bd09      	pop	{r0, r3, pc}
 23fd766:	0000      	.short	0x0000
 23fd768:	1007a7e0 	.word	0x1007a7e0
 23fd76c:	00000004 	.word	0x00000004

023fd770 <__assert_func>:

#if defined(DYNALIB_EXPORT) || (defined(DYNALIB_IMPORT) && !defined(RT_DYNALIB_NO_DEPENDENCY_BREAKING_IMPORTS))
DYNALIB_FN(16, rt, __assert_func, void(const char*, int, const char*, const char*))
 23fd770:	b509      	push	{r0, r3, lr}
 23fd772:	4804      	ldr	r0, [pc, #16]	; (23fd784 <__assert_func+0x14>)
 23fd774:	6800      	ldr	r0, [r0, #0]
 23fd776:	4b04      	ldr	r3, [pc, #16]	; (23fd788 <__assert_func+0x18>)
 23fd778:	4403      	add	r3, r0
 23fd77a:	681b      	ldr	r3, [r3, #0]
 23fd77c:	6c1b      	ldr	r3, [r3, #64]	; 0x40
 23fd77e:	9302      	str	r3, [sp, #8]
 23fd780:	bd09      	pop	{r0, r3, pc}
 23fd782:	0000      	.short	0x0000
 23fd784:	1007a7e0 	.word	0x1007a7e0
 23fd788:	00000004 	.word	0x00000004

023fd78c <newlib_impure_ptr_callback>:
DYNALIB_FN(17, rt, newlib_impure_ptr_callback, void(void (*)(struct _reent*, size_t, uint32_t, void*), void*))
 23fd78c:	b509      	push	{r0, r3, lr}
 23fd78e:	4804      	ldr	r0, [pc, #16]	; (23fd7a0 <newlib_impure_ptr_callback+0x14>)
 23fd790:	6800      	ldr	r0, [r0, #0]
 23fd792:	4b04      	ldr	r3, [pc, #16]	; (23fd7a4 <newlib_impure_ptr_callback+0x18>)
 23fd794:	4403      	add	r3, r0
 23fd796:	681b      	ldr	r3, [r3, #0]
 23fd798:	6c5b      	ldr	r3, [r3, #68]	; 0x44
 23fd79a:	9302      	str	r3, [sp, #8]
 23fd79c:	bd09      	pop	{r0, r3, pc}
 23fd79e:	0000      	.short	0x0000
 23fd7a0:	1007a7e0 	.word	0x1007a7e0
 23fd7a4:	00000004 	.word	0x00000004

023fd7a8 <_ZN5spark13EthernetClass9listeningEv>:
    uint16_t getListenTimeout(void) {
        return network_get_listen_timeout(*this, 0, NULL);
    }

    bool listening(void) {
        return network_listening(*this, 0, NULL);
 23fd7a8:	2200      	movs	r2, #0
 23fd7aa:	6840      	ldr	r0, [r0, #4]
 23fd7ac:	4611      	mov	r1, r2
 23fd7ae:	f7ff bef1 	b.w	23fd594 <network_listening>

023fd7b2 <_ZN5spark13EthernetClass16getListenTimeoutEv>:
        return network_get_listen_timeout(*this, 0, NULL);
 23fd7b2:	2200      	movs	r2, #0
 23fd7b4:	6840      	ldr	r0, [r0, #4]
 23fd7b6:	4611      	mov	r1, r2
 23fd7b8:	f7ff bf24 	b.w	23fd604 <network_get_listen_timeout>

023fd7bc <_ZN5spark13EthernetClass16setListenTimeoutEt>:
        network_set_listen_timeout(*this, timeout, NULL);
 23fd7bc:	2200      	movs	r2, #0
 23fd7be:	6840      	ldr	r0, [r0, #4]
 23fd7c0:	f7ff bf12 	b.w	23fd5e8 <network_set_listen_timeout>

023fd7c4 <_ZN5spark13EthernetClass6listenEb>:
        network_listen(*this, begin ? 0 : 1, NULL);
 23fd7c4:	2200      	movs	r2, #0
 23fd7c6:	6840      	ldr	r0, [r0, #4]
 23fd7c8:	f081 0101 	eor.w	r1, r1, #1
 23fd7cc:	f7ff bed4 	b.w	23fd578 <network_listen>

023fd7d0 <_ZN5spark13EthernetClass3offEv>:
        network_off(*this, 0, 0, NULL);
 23fd7d0:	2300      	movs	r3, #0
 23fd7d2:	6840      	ldr	r0, [r0, #4]
 23fd7d4:	461a      	mov	r2, r3
 23fd7d6:	4619      	mov	r1, r3
 23fd7d8:	f7ff bec0 	b.w	23fd55c <network_off>

023fd7dc <_ZN5spark13EthernetClass2onEv>:
        network_on(*this, 0, 0, NULL);
 23fd7dc:	2300      	movs	r3, #0
 23fd7de:	6840      	ldr	r0, [r0, #4]
 23fd7e0:	461a      	mov	r2, r3
 23fd7e2:	4619      	mov	r1, r3
 23fd7e4:	f7ff beac 	b.w	23fd540 <network_on>

023fd7e8 <_ZN5spark13EthernetClass5readyEv>:
    }

    bool ready() {
        return network_ready(*this, 0,  NULL);
 23fd7e8:	2200      	movs	r2, #0
 23fd7ea:	6840      	ldr	r0, [r0, #4]
 23fd7ec:	4611      	mov	r1, r2
 23fd7ee:	f7ff be99 	b.w	23fd524 <network_ready>

023fd7f2 <_ZN5spark13EthernetClass10connectingEv>:
        return network_connecting(*this, 0, NULL);
 23fd7f2:	2200      	movs	r2, #0
 23fd7f4:	6840      	ldr	r0, [r0, #4]
 23fd7f6:	4611      	mov	r1, r2
 23fd7f8:	f7ff be78 	b.w	23fd4ec <network_connecting>

023fd7fc <_ZN5spark13EthernetClass10disconnectEv>:
        network_disconnect(*this, NETWORK_DISCONNECT_REASON_USER, NULL);
 23fd7fc:	2200      	movs	r2, #0
 23fd7fe:	2102      	movs	r1, #2
 23fd800:	6840      	ldr	r0, [r0, #4]
 23fd802:	f7ff be81 	b.w	23fd508 <network_disconnect>

023fd806 <_ZN5spark13EthernetClass7connectEj>:
        network_connect(*this, flags, 0, NULL);
 23fd806:	2300      	movs	r3, #0
 23fd808:	6840      	ldr	r0, [r0, #4]
 23fd80a:	461a      	mov	r2, r3
 23fd80c:	f7ff be60 	b.w	23fd4d0 <network_connect>

023fd810 <_GLOBAL__sub_I__ZN5spark8EthernetE>:
    static NetworkClass& from(network_interface_t nif);

    virtual IPAddress resolve(const char* name);

    explicit NetworkClass(network_interface_t iface)
            : iface_(iface) {
 23fd810:	2203      	movs	r2, #3
 23fd812:	4b02      	ldr	r3, [pc, #8]	; (23fd81c <_GLOBAL__sub_I__ZN5spark8EthernetE+0xc>)
 23fd814:	605a      	str	r2, [r3, #4]
            NetworkClass(NETWORK_INTERFACE_ETHERNET) {
 23fd816:	4a02      	ldr	r2, [pc, #8]	; (23fd820 <_GLOBAL__sub_I__ZN5spark8EthernetE+0x10>)
 23fd818:	601a      	str	r2, [r3, #0]

namespace spark {

EthernetClass Ethernet;

} // spark
 23fd81a:	4770      	bx	lr
 23fd81c:	1007ae1c 	.word	0x1007ae1c
 23fd820:	023ffc14 	.word	0x023ffc14

023fd824 <_ZN8SPIClass6unlockEv.isra.0>:
  }

  void unlock()
  {
#if HAL_PLATFORM_SPI_HAL_THREAD_SAFETY
    hal_spi_release(_spi, nullptr);
 23fd824:	2100      	movs	r1, #0
 23fd826:	f7ff bd73 	b.w	23fd310 <hal_spi_release>

023fd82a <_ZN8SPIClass4lockEv.isra.0>:
    return hal_spi_acquire(_spi, nullptr);
 23fd82a:	2100      	movs	r1, #0
 23fd82c:	f7ff bd62 	b.w	23fd2f4 <hal_spi_acquire>

023fd830 <_ZN8SPIClassC1E19hal_spi_interface_t>:
    }
    return particle::SPISettings(info->clock, info->bit_order, info->data_mode);
}
} // namespace

SPIClass::SPIClass(hal_spi_interface_t spi)
 23fd830:	b510      	push	{r4, lr}
 23fd832:	4604      	mov	r4, r0
 23fd834:	4608      	mov	r0, r1
{
    _spi = spi;
 23fd836:	7021      	strb	r1, [r4, #0]
    hal_spi_init(_spi);
 23fd838:	f7ff fcfa 	bl	23fd230 <hal_spi_init>
    _dividerReference = SPI_CLK_SYSTEM; // 0 indicates the system clock
 23fd83c:	2300      	movs	r3, #0
}
 23fd83e:	4620      	mov	r0, r4
    _dividerReference = SPI_CLK_SYSTEM; // 0 indicates the system clock
 23fd840:	6063      	str	r3, [r4, #4]
}
 23fd842:	bd10      	pop	{r4, pc}

023fd844 <_ZN8SPIClass5beginEv>:

void SPIClass::begin()
{
 23fd844:	b513      	push	{r0, r1, r4, lr}
 23fd846:	4604      	mov	r4, r0
    // TODO: Fetch default pin from HAL
    if (!lock())
 23fd848:	7800      	ldrb	r0, [r0, #0]
 23fd84a:	f7ff ffee 	bl	23fd82a <_ZN8SPIClass4lockEv.isra.0>
 23fd84e:	b958      	cbnz	r0, 23fd868 <_ZN8SPIClass5beginEv+0x24>
 23fd850:	7820      	ldrb	r0, [r4, #0]
    {
        hal_spi_begin(_spi, SPI_DEFAULT_SS);
 23fd852:	f64f 71ff 	movw	r1, #65535	; 0xffff
 23fd856:	9001      	str	r0, [sp, #4]
 23fd858:	f7ff fca4 	bl	23fd1a4 <hal_spi_begin>
        unlock();
 23fd85c:	9801      	ldr	r0, [sp, #4]
    }
}
 23fd85e:	b002      	add	sp, #8
 23fd860:	e8bd 4010 	ldmia.w	sp!, {r4, lr}
 23fd864:	f7ff bfde 	b.w	23fd824 <_ZN8SPIClass6unlockEv.isra.0>
 23fd868:	b002      	add	sp, #8
 23fd86a:	bd10      	pop	{r4, pc}

023fd86c <_ZN8SPIClass11setBitOrderEh>:
        unlock();
    }
}

void SPIClass::setBitOrder(uint8_t bitOrder)
{
 23fd86c:	b513      	push	{r0, r1, r4, lr}
 23fd86e:	4604      	mov	r4, r0
    if (!lock())
 23fd870:	7800      	ldrb	r0, [r0, #0]
{
 23fd872:	9101      	str	r1, [sp, #4]
    if (!lock())
 23fd874:	f7ff ffd9 	bl	23fd82a <_ZN8SPIClass4lockEv.isra.0>
 23fd878:	9901      	ldr	r1, [sp, #4]
 23fd87a:	b948      	cbnz	r0, 23fd890 <_ZN8SPIClass11setBitOrderEh+0x24>
 23fd87c:	7820      	ldrb	r0, [r4, #0]
    {
        hal_spi_set_bit_order(_spi, bitOrder);
 23fd87e:	9001      	str	r0, [sp, #4]
 23fd880:	f7ff fc9e 	bl	23fd1c0 <hal_spi_set_bit_order>
        unlock();
 23fd884:	9801      	ldr	r0, [sp, #4]
    }
}
 23fd886:	b002      	add	sp, #8
 23fd888:	e8bd 4010 	ldmia.w	sp!, {r4, lr}
 23fd88c:	f7ff bfca 	b.w	23fd824 <_ZN8SPIClass6unlockEv.isra.0>
 23fd890:	b002      	add	sp, #8
 23fd892:	bd10      	pop	{r4, pc}

023fd894 <_ZN8SPIClass11setDataModeEh>:

void SPIClass::setDataMode(uint8_t mode)
{
 23fd894:	b513      	push	{r0, r1, r4, lr}
 23fd896:	4604      	mov	r4, r0
    if (!lock())
 23fd898:	7800      	ldrb	r0, [r0, #0]
{
 23fd89a:	9101      	str	r1, [sp, #4]
    if (!lock())
 23fd89c:	f7ff ffc5 	bl	23fd82a <_ZN8SPIClass4lockEv.isra.0>
 23fd8a0:	9901      	ldr	r1, [sp, #4]
 23fd8a2:	b948      	cbnz	r0, 23fd8b8 <_ZN8SPIClass11setDataModeEh+0x24>
 23fd8a4:	7820      	ldrb	r0, [r4, #0]
    {
        hal_spi_set_data_mode(_spi, mode);
 23fd8a6:	9001      	str	r0, [sp, #4]
 23fd8a8:	f7ff fc98 	bl	23fd1dc <hal_spi_set_data_mode>
        unlock();
 23fd8ac:	9801      	ldr	r0, [sp, #4]
    }
}
 23fd8ae:	b002      	add	sp, #8
 23fd8b0:	e8bd 4010 	ldmia.w	sp!, {r4, lr}
 23fd8b4:	f7ff bfb6 	b.w	23fd824 <_ZN8SPIClass6unlockEv.isra.0>
 23fd8b8:	b002      	add	sp, #8
 23fd8ba:	bd10      	pop	{r4, pc}

023fd8bc <_ZN8SPIClass16beginTransactionEv>:

int32_t SPIClass::beginTransaction()
{
    return lock();
 23fd8bc:	7800      	ldrb	r0, [r0, #0]
 23fd8be:	f7ff bfb4 	b.w	23fd82a <_ZN8SPIClass4lockEv.isra.0>

023fd8c2 <_ZN8SPIClass14endTransactionEv>:
}

void SPIClass::endTransaction()
{
    // Release peripheral
    unlock();
 23fd8c2:	7800      	ldrb	r0, [r0, #0]
 23fd8c4:	f7ff bfae 	b.w	23fd824 <_ZN8SPIClass6unlockEv.isra.0>

023fd8c8 <_ZN8SPIClass19computeClockDividerEjjRhRj>:
    }
}

void SPIClass::computeClockDivider(unsigned reference, unsigned targetSpeed, uint8_t& divider,
                                   unsigned& clock)
{
 23fd8c8:	b530      	push	{r4, r5, lr}
    clock = reference;
    uint8_t scale = 0;
    clock >>= 1; // div2 is the first
 23fd8ca:	2400      	movs	r4, #0
 23fd8cc:	0840      	lsrs	r0, r0, #1
 23fd8ce:	6018      	str	r0, [r3, #0]
    while (clock > targetSpeed && scale < 7)
 23fd8d0:	6818      	ldr	r0, [r3, #0]
 23fd8d2:	b2e5      	uxtb	r5, r4
 23fd8d4:	4288      	cmp	r0, r1
 23fd8d6:	d906      	bls.n	23fd8e6 <_ZN8SPIClass19computeClockDividerEjjRhRj+0x1e>
 23fd8d8:	3401      	adds	r4, #1
 23fd8da:	2c08      	cmp	r4, #8
 23fd8dc:	d002      	beq.n	23fd8e4 <_ZN8SPIClass19computeClockDividerEjjRhRj+0x1c>
    {
        clock >>= 1;
 23fd8de:	0840      	lsrs	r0, r0, #1
 23fd8e0:	6018      	str	r0, [r3, #0]
    while (clock > targetSpeed && scale < 7)
 23fd8e2:	e7f5      	b.n	23fd8d0 <_ZN8SPIClass19computeClockDividerEjjRhRj+0x8>
 23fd8e4:	2507      	movs	r5, #7
        scale++;
    }
    divider = clock_divisors[scale];
 23fd8e6:	4b02      	ldr	r3, [pc, #8]	; (23fd8f0 <_ZN8SPIClass19computeClockDividerEjjRhRj+0x28>)
 23fd8e8:	5d5b      	ldrb	r3, [r3, r5]
 23fd8ea:	7013      	strb	r3, [r2, #0]
}
 23fd8ec:	bd30      	pop	{r4, r5, pc}
 23fd8ee:	bf00      	nop
 23fd8f0:	023ffc50 	.word	0x023ffc50

023fd8f4 <_ZN8SPIClass16beginTransactionERKN8particle11SPISettingsE>:
{
 23fd8f4:	e92d 43f0 	stmdb	sp!, {r4, r5, r6, r7, r8, r9, lr}
 23fd8f8:	4606      	mov	r6, r0
 23fd8fa:	b08f      	sub	sp, #60	; 0x3c
    CHECK(lock());
 23fd8fc:	7800      	ldrb	r0, [r0, #0]
{
 23fd8fe:	460c      	mov	r4, r1
    CHECK(lock());
 23fd900:	f7ff ff93 	bl	23fd82a <_ZN8SPIClass4lockEv.isra.0>
 23fd904:	2800      	cmp	r0, #0
 23fd906:	db1b      	blt.n	23fd940 <_ZN8SPIClass16beginTransactionERKN8particle11SPISettingsE+0x4c>
    memset(info, 0, sizeof(hal_spi_info_t));
 23fd908:	2214      	movs	r2, #20
 23fd90a:	2100      	movs	r1, #0
 23fd90c:	a809      	add	r0, sp, #36	; 0x24
    querySpiInfo(_spi, &spi_info);
 23fd90e:	7835      	ldrb	r5, [r6, #0]
    memset(info, 0, sizeof(hal_spi_info_t));
 23fd910:	f001 fbd9 	bl	23ff0c6 <memset>
    info->version = HAL_SPI_INFO_VERSION_1;
 23fd914:	230b      	movs	r3, #11
    hal_spi_info(spi, info, nullptr);
 23fd916:	2200      	movs	r2, #0
 23fd918:	4628      	mov	r0, r5
 23fd91a:	a909      	add	r1, sp, #36	; 0x24
    info->version = HAL_SPI_INFO_VERSION_1;
 23fd91c:	f8ad 3024 	strh.w	r3, [sp, #36]	; 0x24
    hal_spi_info(spi, info, nullptr);
 23fd920:	f7ff fca2 	bl	23fd268 <hal_spi_info>
    if (!info || !info->enabled || info->default_settings)
 23fd924:	f89d 302d 	ldrb.w	r3, [sp, #45]	; 0x2d
 23fd928:	b113      	cbz	r3, 23fd930 <_ZN8SPIClass16beginTransactionERKN8particle11SPISettingsE+0x3c>
 23fd92a:	f89d 502c 	ldrb.w	r5, [sp, #44]	; 0x2c
 23fd92e:	b155      	cbz	r5, 23fd946 <_ZN8SPIClass16beginTransactionERKN8particle11SPISettingsE+0x52>
  {
 23fd930:	2700      	movs	r7, #0
 23fd932:	2501      	movs	r5, #1
 23fd934:	46b9      	mov	r9, r7
 23fd936:	46b8      	mov	r8, r7
    if (default_ && other.default_)
 23fd938:	7923      	ldrb	r3, [r4, #4]
 23fd93a:	b15d      	cbz	r5, 23fd954 <_ZN8SPIClass16beginTransactionERKN8particle11SPISettingsE+0x60>
 23fd93c:	b1c3      	cbz	r3, 23fd970 <_ZN8SPIClass16beginTransactionERKN8particle11SPISettingsE+0x7c>
    return 0;
 23fd93e:	2000      	movs	r0, #0
}
 23fd940:	b00f      	add	sp, #60	; 0x3c
 23fd942:	e8bd 83f0 	ldmia.w	sp!, {r4, r5, r6, r7, r8, r9, pc}
    return particle::SPISettings(info->clock, info->bit_order, info->data_mode);
 23fd946:	f8dd 8030 	ldr.w	r8, [sp, #48]	; 0x30
 23fd94a:	f89d 9034 	ldrb.w	r9, [sp, #52]	; 0x34
 23fd94e:	f89d 7035 	ldrb.w	r7, [sp, #53]	; 0x35
  }
 23fd952:	e7f1      	b.n	23fd938 <_ZN8SPIClass16beginTransactionERKN8particle11SPISettingsE+0x44>
    if (default_ == other.default_ &&
 23fd954:	2b00      	cmp	r3, #0
 23fd956:	d135      	bne.n	23fd9c4 <_ZN8SPIClass16beginTransactionERKN8particle11SPISettingsE+0xd0>
 23fd958:	68a3      	ldr	r3, [r4, #8]
 23fd95a:	4543      	cmp	r3, r8
 23fd95c:	d108      	bne.n	23fd970 <_ZN8SPIClass16beginTransactionERKN8particle11SPISettingsE+0x7c>
        bitOrder_ == other.bitOrder_ &&
 23fd95e:	f88d 9020 	strb.w	r9, [sp, #32]
 23fd962:	f88d 7021 	strb.w	r7, [sp, #33]	; 0x21
 23fd966:	f8bd 2020 	ldrh.w	r2, [sp, #32]
 23fd96a:	89a3      	ldrh	r3, [r4, #12]
 23fd96c:	429a      	cmp	r2, r3
 23fd96e:	d0e6      	beq.n	23fd93e <_ZN8SPIClass16beginTransactionERKN8particle11SPISettingsE+0x4a>
            uint8_t divisor = 0;
 23fd970:	2300      	movs	r3, #0
            computeClockDivider((unsigned int)spi_info.system_clock, settings.clock_, divisor,
 23fd972:	68a1      	ldr	r1, [r4, #8]
            uint8_t divisor = 0;
 23fd974:	f88d 300f 	strb.w	r3, [sp, #15]
            computeClockDivider((unsigned int)spi_info.system_clock, settings.clock_, divisor,
 23fd978:	980a      	ldr	r0, [sp, #40]	; 0x28
 23fd97a:	ab04      	add	r3, sp, #16
 23fd97c:	f10d 020f 	add.w	r2, sp, #15
 23fd980:	f7ff ffa2 	bl	23fd8c8 <_ZN8SPIClass19computeClockDividerEjjRhRj>
    if (default_ && other.default_)
 23fd984:	7921      	ldrb	r1, [r4, #4]
 23fd986:	b985      	cbnz	r5, 23fd9aa <_ZN8SPIClass16beginTransactionERKN8particle11SPISettingsE+0xb6>
    if (default_ == other.default_ &&
 23fd988:	b989      	cbnz	r1, 23fd9ae <_ZN8SPIClass16beginTransactionERKN8particle11SPISettingsE+0xba>
 23fd98a:	68a3      	ldr	r3, [r4, #8]
 23fd98c:	4543      	cmp	r3, r8
 23fd98e:	d30e      	bcc.n	23fd9ae <_ZN8SPIClass16beginTransactionERKN8particle11SPISettingsE+0xba>
        bitOrder_ == other.bitOrder_ &&
 23fd990:	f88d 9020 	strb.w	r9, [sp, #32]
 23fd994:	f88d 7021 	strb.w	r7, [sp, #33]	; 0x21
 23fd998:	f8bd 2020 	ldrh.w	r2, [sp, #32]
 23fd99c:	89a3      	ldrh	r3, [r4, #12]
 23fd99e:	429a      	cmp	r2, r3
 23fd9a0:	d105      	bne.n	23fd9ae <_ZN8SPIClass16beginTransactionERKN8particle11SPISettingsE+0xba>
            if (!(spi_settings <= settings && clock == spi_settings.clock_))
 23fd9a2:	9b04      	ldr	r3, [sp, #16]
 23fd9a4:	4543      	cmp	r3, r8
 23fd9a6:	d102      	bne.n	23fd9ae <_ZN8SPIClass16beginTransactionERKN8particle11SPISettingsE+0xba>
 23fd9a8:	e7c9      	b.n	23fd93e <_ZN8SPIClass16beginTransactionERKN8particle11SPISettingsE+0x4a>
    if (default_ && other.default_)
 23fd9aa:	2900      	cmp	r1, #0
 23fd9ac:	d1f9      	bne.n	23fd9a2 <_ZN8SPIClass16beginTransactionERKN8particle11SPISettingsE+0xae>
                hal_spi_set_settings(_spi, settings.default_, divisor, settings.bitOrder_,
 23fd9ae:	2300      	movs	r3, #0
 23fd9b0:	9301      	str	r3, [sp, #4]
 23fd9b2:	7b63      	ldrb	r3, [r4, #13]
 23fd9b4:	f89d 200f 	ldrb.w	r2, [sp, #15]
 23fd9b8:	9300      	str	r3, [sp, #0]
 23fd9ba:	7b23      	ldrb	r3, [r4, #12]
            hal_spi_set_settings(_spi, settings.default_, 0, 0, 0, nullptr);
 23fd9bc:	7830      	ldrb	r0, [r6, #0]
 23fd9be:	f7ff fc8b 	bl	23fd2d8 <hal_spi_set_settings>
 23fd9c2:	e7bc      	b.n	23fd93e <_ZN8SPIClass16beginTransactionERKN8particle11SPISettingsE+0x4a>
 23fd9c4:	462b      	mov	r3, r5
 23fd9c6:	462a      	mov	r2, r5
 23fd9c8:	2101      	movs	r1, #1
 23fd9ca:	e9cd 5500 	strd	r5, r5, [sp]
 23fd9ce:	e7f5      	b.n	23fd9bc <_ZN8SPIClass16beginTransactionERKN8particle11SPISettingsE+0xc8>

023fd9d0 <_ZN8SPIClass13setClockSpeedEjj>:

unsigned SPIClass::setClockSpeed(unsigned value, unsigned value_scale)
{
    unsigned clock = 0;
 23fd9d0:	2300      	movs	r3, #0
{
 23fd9d2:	e92d 41f0 	stmdb	sp!, {r4, r5, r6, r7, r8, lr}
 23fd9d6:	4604      	mov	r4, r0
 23fd9d8:	b088      	sub	sp, #32

    // actual speed is the system clock divided by some scalar
    unsigned targetSpeed = value * value_scale;

    if (!lock())
 23fd9da:	7800      	ldrb	r0, [r0, #0]
{
 23fd9dc:	460e      	mov	r6, r1
 23fd9de:	4617      	mov	r7, r2
    unsigned clock = 0;
 23fd9e0:	9302      	str	r3, [sp, #8]
    if (!lock())
 23fd9e2:	f7ff ff22 	bl	23fd82a <_ZN8SPIClass4lockEv.isra.0>
 23fd9e6:	4605      	mov	r5, r0
 23fd9e8:	bb00      	cbnz	r0, 23fda2c <_ZN8SPIClass13setClockSpeedEjj+0x5c>
    memset(info, 0, sizeof(hal_spi_info_t));
 23fd9ea:	4601      	mov	r1, r0
 23fd9ec:	2214      	movs	r2, #20
 23fd9ee:	a803      	add	r0, sp, #12
    {
        // Query SPI info
        hal_spi_info_t info;
        querySpiInfo(_spi, &info);
 23fd9f0:	f894 8000 	ldrb.w	r8, [r4]
    memset(info, 0, sizeof(hal_spi_info_t));
 23fd9f4:	f001 fb67 	bl	23ff0c6 <memset>
    info->version = HAL_SPI_INFO_VERSION_1;
 23fd9f8:	230b      	movs	r3, #11
    hal_spi_info(spi, info, nullptr);
 23fd9fa:	462a      	mov	r2, r5
 23fd9fc:	4640      	mov	r0, r8
 23fd9fe:	a903      	add	r1, sp, #12
    info->version = HAL_SPI_INFO_VERSION_1;
 23fda00:	f8ad 300c 	strh.w	r3, [sp, #12]
    hal_spi_info(spi, info, nullptr);
 23fda04:	f7ff fc30 	bl	23fd268 <hal_spi_info>

        // Calculate clock divider
        uint8_t divisor = 0;
        computeClockDivider(info.system_clock, targetSpeed, divisor, clock);
 23fda08:	fb07 f106 	mul.w	r1, r7, r6
 23fda0c:	9804      	ldr	r0, [sp, #16]
 23fda0e:	ab02      	add	r3, sp, #8
 23fda10:	f10d 0207 	add.w	r2, sp, #7
        uint8_t divisor = 0;
 23fda14:	f88d 5007 	strb.w	r5, [sp, #7]
        computeClockDivider(info.system_clock, targetSpeed, divisor, clock);
 23fda18:	f7ff ff56 	bl	23fd8c8 <_ZN8SPIClass19computeClockDividerEjjRhRj>

        // Update SPI peripheral
        hal_spi_set_clock_divider(_spi, divisor);
 23fda1c:	7820      	ldrb	r0, [r4, #0]
 23fda1e:	f89d 1007 	ldrb.w	r1, [sp, #7]
 23fda22:	f7ff fbe9 	bl	23fd1f8 <hal_spi_set_clock_divider>
        unlock();
 23fda26:	7820      	ldrb	r0, [r4, #0]
 23fda28:	f7ff fefc 	bl	23fd824 <_ZN8SPIClass6unlockEv.isra.0>
    }

    return clock;
}
 23fda2c:	9802      	ldr	r0, [sp, #8]
 23fda2e:	b008      	add	sp, #32
 23fda30:	e8bd 81f0 	ldmia.w	sp!, {r4, r5, r6, r7, r8, pc}

023fda34 <_ZN8SPIClass15setClockDividerEh>:
{
 23fda34:	b538      	push	{r3, r4, r5, lr}
 23fda36:	4604      	mov	r4, r0
    if (!lock())
 23fda38:	7800      	ldrb	r0, [r0, #0]
{
 23fda3a:	460d      	mov	r5, r1
    if (!lock())
 23fda3c:	f7ff fef5 	bl	23fd82a <_ZN8SPIClass4lockEv.isra.0>
 23fda40:	4603      	mov	r3, r0
 23fda42:	b9d0      	cbnz	r0, 23fda7a <_ZN8SPIClass15setClockDividerEh+0x46>
        if (_dividerReference)
 23fda44:	6861      	ldr	r1, [r4, #4]
 23fda46:	b199      	cbz	r1, 23fda70 <_ZN8SPIClass15setClockDividerEh+0x3c>
 23fda48:	4a0c      	ldr	r2, [pc, #48]	; (23fda7c <_ZN8SPIClass15setClockDividerEh+0x48>)
        if (clock_divisors[result] == divider)
 23fda4a:	f812 0b01 	ldrb.w	r0, [r2], #1
 23fda4e:	4285      	cmp	r5, r0
 23fda50:	d002      	beq.n	23fda58 <_ZN8SPIClass15setClockDividerEh+0x24>
    for (; result < arraySize(clock_divisors); result++)
 23fda52:	3301      	adds	r3, #1
 23fda54:	2b08      	cmp	r3, #8
 23fda56:	d1f8      	bne.n	23fda4a <_ZN8SPIClass15setClockDividerEh+0x16>
    return result + 1;
 23fda58:	3301      	adds	r3, #1
            unsigned targetSpeed = _dividerReference >> scale;
 23fda5a:	b2db      	uxtb	r3, r3
            setClockSpeed(targetSpeed);
 23fda5c:	2201      	movs	r2, #1
 23fda5e:	4620      	mov	r0, r4
 23fda60:	40d9      	lsrs	r1, r3
 23fda62:	f7ff ffb5 	bl	23fd9d0 <_ZN8SPIClass13setClockSpeedEjj>
        unlock();
 23fda66:	7820      	ldrb	r0, [r4, #0]
}
 23fda68:	e8bd 4038 	ldmia.w	sp!, {r3, r4, r5, lr}
        unlock();
 23fda6c:	f7ff beda 	b.w	23fd824 <_ZN8SPIClass6unlockEv.isra.0>
            hal_spi_set_clock_divider(_spi, rate);
 23fda70:	4629      	mov	r1, r5
 23fda72:	7820      	ldrb	r0, [r4, #0]
 23fda74:	f7ff fbc0 	bl	23fd1f8 <hal_spi_set_clock_divider>
 23fda78:	e7f5      	b.n	23fda66 <_ZN8SPIClass15setClockDividerEh+0x32>
}
 23fda7a:	bd38      	pop	{r3, r4, r5, pc}
 23fda7c:	023ffc50 	.word	0x023ffc50

023fda80 <_ZN8SPIClass8transferEh>:

byte SPIClass::transfer(byte _data)
{
 23fda80:	b508      	push	{r3, lr}
    return static_cast<byte>(hal_spi_transfer(_spi, _data));
 23fda82:	7800      	ldrb	r0, [r0, #0]
 23fda84:	f7ff fbc6 	bl	23fd214 <hal_spi_transfer>
}
 23fda88:	b2c0      	uxtb	r0, r0
 23fda8a:	bd08      	pop	{r3, pc}

023fda8c <_ZN8SPIClass8transferEPKvPvjPFvvE>:

void SPIClass::transfer(const void* tx_buffer, void* rx_buffer, size_t length,
                        wiring_spi_dma_transfercomplete_callback_t user_callback)
{
 23fda8c:	b530      	push	{r4, r5, lr}
 23fda8e:	b087      	sub	sp, #28
 23fda90:	9d0a      	ldr	r5, [sp, #40]	; 0x28
 23fda92:	4604      	mov	r4, r0
    hal_spi_transfer_dma(_spi, tx_buffer, rx_buffer, length, user_callback);
 23fda94:	9500      	str	r5, [sp, #0]
 23fda96:	7800      	ldrb	r0, [r0, #0]
 23fda98:	f7ff fbf4 	bl	23fd284 <hal_spi_transfer_dma>
    if (user_callback == NULL)
 23fda9c:	b93d      	cbnz	r5, 23fdaae <_ZN8SPIClass8transferEPKvPvjPFvvE+0x22>
    {
        hal_spi_transfer_status_t st;
        do
        {
            hal_spi_transfer_dma_status(_spi, &st);
 23fda9e:	7820      	ldrb	r0, [r4, #0]
 23fdaa0:	a902      	add	r1, sp, #8
 23fdaa2:	f7ff fc0b 	bl	23fd2bc <hal_spi_transfer_dma_status>
        } while (st.transfer_ongoing);
 23fdaa6:	f89d 3014 	ldrb.w	r3, [sp, #20]
 23fdaaa:	07db      	lsls	r3, r3, #31
 23fdaac:	d4f7      	bmi.n	23fda9e <_ZN8SPIClass8transferEPKvPvjPFvvE+0x12>
    }
}
 23fdaae:	b007      	add	sp, #28
 23fdab0:	bd30      	pop	{r4, r5, pc}

023fdab2 <_ZNSt14_Function_baseD1Ev>:
    ~_Function_base()
 23fdab2:	b510      	push	{r4, lr}
      if (_M_manager)
 23fdab4:	6883      	ldr	r3, [r0, #8]
    ~_Function_base()
 23fdab6:	4604      	mov	r4, r0
      if (_M_manager)
 23fdab8:	b113      	cbz	r3, 23fdac0 <_ZNSt14_Function_baseD1Ev+0xe>
	_M_manager(_M_functor, _M_functor, __destroy_functor);
 23fdaba:	2203      	movs	r2, #3
 23fdabc:	4601      	mov	r1, r0
 23fdabe:	4798      	blx	r3
    }
 23fdac0:	4620      	mov	r0, r4
 23fdac2:	bd10      	pop	{r4, pc}

023fdac4 <_GLOBAL__sub_I_System>:
} // namespace particle

// particle::Flag<TagT, ValueT>
template<typename TagT, typename ValueT>
inline particle::Flag<TagT, ValueT>::Flag(ValueT val) :
        val_(val) {
 23fdac4:	2202      	movs	r2, #2

class SystemSleepResult {
public:
    SystemSleepResult()
            : wakeupSource_(nullptr),
              error_(SYSTEM_ERROR_NONE) {
 23fdac6:	2000      	movs	r0, #0
 23fdac8:	4b04      	ldr	r3, [pc, #16]	; (23fdadc <_GLOBAL__sub_I_System+0x18>)
 23fdaca:	601a      	str	r2, [r3, #0]
 23fdacc:	4b04      	ldr	r3, [pc, #16]	; (23fdae0 <_GLOBAL__sub_I_System+0x1c>)
    SleepResult() {}
 23fdace:	4a05      	ldr	r2, [pc, #20]	; (23fdae4 <_GLOBAL__sub_I_System+0x20>)
              error_(SYSTEM_ERROR_NONE) {
 23fdad0:	e9c3 0000 	strd	r0, r0, [r3]
    SleepResult() {}
 23fdad4:	609a      	str	r2, [r3, #8]

class SystemClass {
public:

    SystemClass(System_Mode_TypeDef mode = DEFAULT) {
        set_system_mode(mode);
 23fdad6:	f7ff bcc3 	b.w	23fd460 <set_system_mode>
 23fdada:	bf00      	nop
 23fdadc:	1007ae30 	.word	0x1007ae30
 23fdae0:	1007ae24 	.word	0x1007ae24
 23fdae4:	ffff0000 	.word	0xffff0000

023fdae8 <_ZN6String10invalidateEv>:
    len = 0;
    flags = 0;
}

void String::invalidate(void)
{
 23fdae8:	b510      	push	{r4, lr}
 23fdaea:	4604      	mov	r4, r0
    if (buffer) {
 23fdaec:	6800      	ldr	r0, [r0, #0]
 23fdaee:	b108      	cbz	r0, 23fdaf4 <_ZN6String10invalidateEv+0xc>
        free(buffer);
 23fdaf0:	f7ff fdf8 	bl	23fd6e4 <free>
    }
    buffer = nullptr;
 23fdaf4:	2300      	movs	r3, #0
    capacity_ = len = 0;
 23fdaf6:	e9c4 3301 	strd	r3, r3, [r4, #4]
    buffer = nullptr;
 23fdafa:	6023      	str	r3, [r4, #0]
}
 23fdafc:	bd10      	pop	{r4, pc}

023fdafe <_ZN6String12changeBufferEj>:
    }
    return 0;
}

unsigned char String::changeBuffer(unsigned int maxStrLen)
{
 23fdafe:	b538      	push	{r3, r4, r5, lr}
 23fdb00:	4604      	mov	r4, r0
 23fdb02:	460d      	mov	r5, r1
    char *newbuffer = (char *)realloc(buffer, maxStrLen + 1);
 23fdb04:	6800      	ldr	r0, [r0, #0]
 23fdb06:	3101      	adds	r1, #1
 23fdb08:	f7ff fdfa 	bl	23fd700 <realloc>
    if (newbuffer) {
 23fdb0c:	b110      	cbz	r0, 23fdb14 <_ZN6String12changeBufferEj+0x16>
        buffer = newbuffer;
        capacity_ = maxStrLen;
 23fdb0e:	e9c4 0500 	strd	r0, r5, [r4]
        return 1;
 23fdb12:	2001      	movs	r0, #1
    }
    return 0;
}
 23fdb14:	bd38      	pop	{r3, r4, r5, pc}

023fdb16 <_ZN6String7reserveEj>:
{
 23fdb16:	b510      	push	{r4, lr}
    if (buffer && capacity_ >= size) {
 23fdb18:	6803      	ldr	r3, [r0, #0]
{
 23fdb1a:	4604      	mov	r4, r0
    if (buffer && capacity_ >= size) {
 23fdb1c:	b123      	cbz	r3, 23fdb28 <_ZN6String7reserveEj+0x12>
 23fdb1e:	6843      	ldr	r3, [r0, #4]
 23fdb20:	428b      	cmp	r3, r1
 23fdb22:	d301      	bcc.n	23fdb28 <_ZN6String7reserveEj+0x12>
 23fdb24:	2001      	movs	r0, #1
}
 23fdb26:	bd10      	pop	{r4, pc}
    if (changeBuffer(size)) {
 23fdb28:	4620      	mov	r0, r4
 23fdb2a:	f7ff ffe8 	bl	23fdafe <_ZN6String12changeBufferEj>
 23fdb2e:	2800      	cmp	r0, #0
 23fdb30:	d0f9      	beq.n	23fdb26 <_ZN6String7reserveEj+0x10>
        if (len == 0) {
 23fdb32:	68a3      	ldr	r3, [r4, #8]
 23fdb34:	2b00      	cmp	r3, #0
 23fdb36:	d1f5      	bne.n	23fdb24 <_ZN6String7reserveEj+0xe>
            buffer[0] = 0;
 23fdb38:	6822      	ldr	r2, [r4, #0]
 23fdb3a:	7013      	strb	r3, [r2, #0]
 23fdb3c:	e7f2      	b.n	23fdb24 <_ZN6String7reserveEj+0xe>

023fdb3e <_ZN6String4copyEPKcj>:
/*********************************************/
/*  Copy and Move                            */
/*********************************************/

String & String::copy(const char *cstr, unsigned int length)
{
 23fdb3e:	b537      	push	{r0, r1, r2, r4, r5, lr}
 23fdb40:	460d      	mov	r5, r1
    if (!reserve(length)) {
 23fdb42:	4611      	mov	r1, r2
 23fdb44:	9201      	str	r2, [sp, #4]
{
 23fdb46:	4604      	mov	r4, r0
    if (!reserve(length)) {
 23fdb48:	f7ff ffe5 	bl	23fdb16 <_ZN6String7reserveEj>
 23fdb4c:	9a01      	ldr	r2, [sp, #4]
 23fdb4e:	b928      	cbnz	r0, 23fdb5c <_ZN6String4copyEPKcj+0x1e>
        invalidate();
 23fdb50:	4620      	mov	r0, r4
 23fdb52:	f7ff ffc9 	bl	23fdae8 <_ZN6String10invalidateEv>
    }
    len = length;
    memcpy(buffer, cstr, length);
    buffer[len] = 0;
    return *this;
}
 23fdb56:	4620      	mov	r0, r4
 23fdb58:	b003      	add	sp, #12
 23fdb5a:	bd30      	pop	{r4, r5, pc}
    memcpy(buffer, cstr, length);
 23fdb5c:	4629      	mov	r1, r5
    len = length;
 23fdb5e:	60a2      	str	r2, [r4, #8]
    memcpy(buffer, cstr, length);
 23fdb60:	6820      	ldr	r0, [r4, #0]
 23fdb62:	f001 faa3 	bl	23ff0ac <memcpy>
    buffer[len] = 0;
 23fdb66:	2100      	movs	r1, #0
 23fdb68:	6822      	ldr	r2, [r4, #0]
 23fdb6a:	68a3      	ldr	r3, [r4, #8]
 23fdb6c:	54d1      	strb	r1, [r2, r3]
    return *this;
 23fdb6e:	e7f2      	b.n	23fdb56 <_ZN6String4copyEPKcj+0x18>

023fdb70 <_ZN6StringC1EPK19__FlashStringHelper>:
    buffer = nullptr;
 23fdb70:	2300      	movs	r3, #0
String::String(const __FlashStringHelper *pstr)
 23fdb72:	b513      	push	{r0, r1, r4, lr}
 23fdb74:	4604      	mov	r4, r0
    capacity_ = 0;
 23fdb76:	e9c0 3300 	strd	r3, r3, [r0]
    len = 0;
 23fdb7a:	6083      	str	r3, [r0, #8]
    flags = 0;
 23fdb7c:	7303      	strb	r3, [r0, #12]
    if (cstr) {
 23fdb7e:	b141      	cbz	r1, 23fdb92 <_ZN6StringC1EPK19__FlashStringHelper+0x22>
        copy(cstr, strlen(cstr));
 23fdb80:	4608      	mov	r0, r1
 23fdb82:	9101      	str	r1, [sp, #4]
 23fdb84:	f7fc ff3e 	bl	23faa04 <strlen>
 23fdb88:	9901      	ldr	r1, [sp, #4]
 23fdb8a:	4602      	mov	r2, r0
 23fdb8c:	4620      	mov	r0, r4
 23fdb8e:	f7ff ffd6 	bl	23fdb3e <_ZN6String4copyEPKcj>
}
 23fdb92:	4620      	mov	r0, r4
 23fdb94:	b002      	add	sp, #8
 23fdb96:	bd10      	pop	{r4, pc}

023fdb98 <_GLOBAL__sub_I__ZN8particle3ble13WiringBleLock6mutex_E>:
    /**
     * Creates a shared mutex.
     */
    RecursiveMutex(os_mutex_recursive_t handle) : handle_(handle) {}

    RecursiveMutex() : handle_(nullptr)
 23fdb98:	2300      	movs	r3, #0
 23fdb9a:	4802      	ldr	r0, [pc, #8]	; (23fdba4 <_GLOBAL__sub_I__ZN8particle3ble13WiringBleLock6mutex_E+0xc>)
 23fdb9c:	6003      	str	r3, [r0, #0]
    {
        os_mutex_recursive_create(&handle_);
 23fdb9e:	f7ff b95d 	b.w	23fce5c <os_mutex_recursive_create>
 23fdba2:	bf00      	nop
 23fdba4:	1007ae34 	.word	0x1007ae34

023fdba8 <_ZN5Print5writeEPKhj>:

// Public Methods //////////////////////////////////////////////////////////////

/* default implementation: may be overridden */
size_t Print::write(const uint8_t *buffer, size_t size)
{
 23fdba8:	b5f8      	push	{r3, r4, r5, r6, r7, lr}
 23fdbaa:	4606      	mov	r6, r0
 23fdbac:	460d      	mov	r5, r1
  size_t n = 0;
 23fdbae:	2400      	movs	r4, #0
 23fdbb0:	188f      	adds	r7, r1, r2
  while (size--) {
 23fdbb2:	42bd      	cmp	r5, r7
 23fdbb4:	d00c      	beq.n	23fdbd0 <_ZN5Print5writeEPKhj+0x28>
     int chunk = write(*buffer++);
 23fdbb6:	6833      	ldr	r3, [r6, #0]
 23fdbb8:	4630      	mov	r0, r6
 23fdbba:	689b      	ldr	r3, [r3, #8]
 23fdbbc:	f815 1b01 	ldrb.w	r1, [r5], #1
 23fdbc0:	4798      	blx	r3
     if (chunk>=0)
 23fdbc2:	1e03      	subs	r3, r0, #0
 23fdbc4:	db01      	blt.n	23fdbca <_ZN5Print5writeEPKhj+0x22>
         n += chunk;
 23fdbc6:	441c      	add	r4, r3
  while (size--) {
 23fdbc8:	e7f3      	b.n	23fdbb2 <_ZN5Print5writeEPKhj+0xa>
     int chunk = write(*buffer++);
 23fdbca:	2c00      	cmp	r4, #0
 23fdbcc:	bf08      	it	eq
 23fdbce:	461c      	moveq	r4, r3
             n = chunk;
         break;
     }
  }
  return n;
}
 23fdbd0:	4620      	mov	r0, r4
 23fdbd2:	bdf8      	pop	{r3, r4, r5, r6, r7, pc}

023fdbd4 <_ZN5Print5writeEPKc>:

    int getWriteError() const { return write_error; }
    void clearWriteError() { setWriteError(0); }

    virtual size_t write(uint8_t) = 0;
    size_t write(const char *str) {
 23fdbd4:	b513      	push	{r0, r1, r4, lr}
 23fdbd6:	4604      	mov	r4, r0
      if (str == NULL) return 0;
      return write((const uint8_t *)str, strlen(str));
    }
 23fdbd8:	4608      	mov	r0, r1
      if (str == NULL) return 0;
 23fdbda:	b159      	cbz	r1, 23fdbf4 <_ZN5Print5writeEPKc+0x20>
      return write((const uint8_t *)str, strlen(str));
 23fdbdc:	9101      	str	r1, [sp, #4]
 23fdbde:	f7fc ff11 	bl	23faa04 <strlen>
 23fdbe2:	4602      	mov	r2, r0
 23fdbe4:	4620      	mov	r0, r4
 23fdbe6:	6823      	ldr	r3, [r4, #0]
 23fdbe8:	9901      	ldr	r1, [sp, #4]
 23fdbea:	68db      	ldr	r3, [r3, #12]
    }
 23fdbec:	b002      	add	sp, #8
 23fdbee:	e8bd 4010 	ldmia.w	sp!, {r4, lr}
      return write((const uint8_t *)str, strlen(str));
 23fdbf2:	4718      	bx	r3
    }
 23fdbf4:	b002      	add	sp, #8
 23fdbf6:	bd10      	pop	{r4, pc}

023fdbf8 <_ZN5Print5printEPKc>:

size_t Print::print(const char str[])
{
 23fdbf8:	b508      	push	{r3, lr}
  return write(str);
 23fdbfa:	f7ff ffeb 	bl	23fdbd4 <_ZN5Print5writeEPKc>
}
 23fdbfe:	bd08      	pop	{r3, pc}

023fdc00 <_ZN5Print5printEc>:

size_t Print::print(char c)
{
  return write(c);
 23fdc00:	6803      	ldr	r3, [r0, #0]
 23fdc02:	689b      	ldr	r3, [r3, #8]
 23fdc04:	4718      	bx	r3

023fdc06 <_ZN5Print7printlnEv>:
{
  return print(reinterpret_cast<const char*>(str));
}

size_t Print::println(void)
{
 23fdc06:	b538      	push	{r3, r4, r5, lr}
  size_t n = print('\r');
 23fdc08:	210d      	movs	r1, #13
{
 23fdc0a:	4605      	mov	r5, r0
  size_t n = print('\r');
 23fdc0c:	f7ff fff8 	bl	23fdc00 <_ZN5Print5printEc>
  n += print('\n');
 23fdc10:	210a      	movs	r1, #10
  size_t n = print('\r');
 23fdc12:	4604      	mov	r4, r0
  n += print('\n');
 23fdc14:	4628      	mov	r0, r5
 23fdc16:	f7ff fff3 	bl	23fdc00 <_ZN5Print5printEc>
  return n;
}
 23fdc1a:	4420      	add	r0, r4
 23fdc1c:	bd38      	pop	{r3, r4, r5, pc}

023fdc1e <_ZN5Print7printlnEPKc>:

size_t Print::println(const char c[])
{
 23fdc1e:	b538      	push	{r3, r4, r5, lr}
 23fdc20:	4605      	mov	r5, r0
  return write(str);
 23fdc22:	f7ff ffd7 	bl	23fdbd4 <_ZN5Print5writeEPKc>
 23fdc26:	4604      	mov	r4, r0
  size_t n = print(c);
  n += println();
 23fdc28:	4628      	mov	r0, r5
 23fdc2a:	f7ff ffec 	bl	23fdc06 <_ZN5Print7printlnEv>
  return n;
}
 23fdc2e:	4420      	add	r0, r4
 23fdc30:	bd38      	pop	{r3, r4, r5, pc}

023fdc32 <_ZN5Print11printNumberEmh>:

size_t Print::printNumber(unsigned long n, uint8_t base) {
  char buf[8 * sizeof(n) + 1]; // Assumes 8-bit chars plus zero byte.
  char *str = &buf[sizeof(buf) - 1];

  *str = '\0';
 23fdc32:	2300      	movs	r3, #0

  // prevent crash if called with base == 1
  if (base < 2) base = 10;
 23fdc34:	2a01      	cmp	r2, #1
 23fdc36:	bf98      	it	ls
 23fdc38:	220a      	movls	r2, #10
size_t Print::printNumber(unsigned long n, uint8_t base) {
 23fdc3a:	b530      	push	{r4, r5, lr}
 23fdc3c:	b08b      	sub	sp, #44	; 0x2c
  *str = '\0';
 23fdc3e:	f88d 3024 	strb.w	r3, [sp, #36]	; 0x24
  if (base < 2) base = 10;
 23fdc42:	ac09      	add	r4, sp, #36	; 0x24

  do {
   decltype(n) m = n;
   n /= base;
 23fdc44:	460d      	mov	r5, r1
 23fdc46:	fbb1 f1f2 	udiv	r1, r1, r2
   char c = m - base * n;
 23fdc4a:	fb01 5312 	mls	r3, r1, r2, r5
 23fdc4e:	f003 03ff 	and.w	r3, r3, #255	; 0xff
   *--str = c < 10 ? c + '0' : c + 'A' - 10;
 23fdc52:	2b09      	cmp	r3, #9
 23fdc54:	bf94      	ite	ls
 23fdc56:	3330      	addls	r3, #48	; 0x30
 23fdc58:	3337      	addhi	r3, #55	; 0x37
 23fdc5a:	b2db      	uxtb	r3, r3
  } while(n);
 23fdc5c:	42aa      	cmp	r2, r5
   *--str = c < 10 ? c + '0' : c + 'A' - 10;
 23fdc5e:	f804 3d01 	strb.w	r3, [r4, #-1]!
  } while(n);
 23fdc62:	d9ef      	bls.n	23fdc44 <_ZN5Print11printNumberEmh+0x12>

  return write(str);
 23fdc64:	4621      	mov	r1, r4
 23fdc66:	f7ff ffb5 	bl	23fdbd4 <_ZN5Print5writeEPKc>
}
 23fdc6a:	b00b      	add	sp, #44	; 0x2c
 23fdc6c:	bd30      	pop	{r4, r5, pc}

023fdc6e <_ZN5Print7vprintfEbPKcSt9__va_list>:
    writeVariant(var, writer);
    return writer.bytesWritten();
}

size_t Print::vprintf(bool newline, const char* format, va_list args)
{
 23fdc6e:	e92d 41f0 	stmdb	sp!, {r4, r5, r6, r7, r8, lr}
 23fdc72:	b086      	sub	sp, #24
 23fdc74:	af00      	add	r7, sp, #0
 23fdc76:	4605      	mov	r5, r0
 23fdc78:	460e      	mov	r6, r1
    const int bufsize = 20;
    char test[bufsize];
    va_list args2;
    va_copy(args2, args);
    size_t n = vsnprintf(test, bufsize, format, args);
 23fdc7a:	1d38      	adds	r0, r7, #4
 23fdc7c:	2114      	movs	r1, #20
{
 23fdc7e:	4614      	mov	r4, r2
    va_copy(args2, args);
 23fdc80:	603b      	str	r3, [r7, #0]
    size_t n = vsnprintf(test, bufsize, format, args);
 23fdc82:	f7ff fd4b 	bl	23fd71c <vsnprintf>

    if (n<bufsize)
 23fdc86:	2813      	cmp	r0, #19
 23fdc88:	d80e      	bhi.n	23fdca8 <_ZN5Print7vprintfEbPKcSt9__va_list+0x3a>
  return write(str);
 23fdc8a:	4628      	mov	r0, r5
 23fdc8c:	1d39      	adds	r1, r7, #4
 23fdc8e:	f7ff ffa1 	bl	23fdbd4 <_ZN5Print5writeEPKc>
 23fdc92:	4604      	mov	r4, r0
    {
        char bigger[n+1];
        n = vsnprintf(bigger, n+1, format, args2);
        n = print(bigger);
    }
    if (newline)
 23fdc94:	b11e      	cbz	r6, 23fdc9e <_ZN5Print7vprintfEbPKcSt9__va_list+0x30>
        n += println();
 23fdc96:	4628      	mov	r0, r5
 23fdc98:	f7ff ffb5 	bl	23fdc06 <_ZN5Print7printlnEv>
 23fdc9c:	4404      	add	r4, r0

    va_end(args2);
    return n;
}
 23fdc9e:	4620      	mov	r0, r4
 23fdca0:	3718      	adds	r7, #24
 23fdca2:	46bd      	mov	sp, r7
 23fdca4:	e8bd 81f0 	ldmia.w	sp!, {r4, r5, r6, r7, r8, pc}
        char bigger[n+1];
 23fdca8:	f100 0308 	add.w	r3, r0, #8
 23fdcac:	f023 0307 	bic.w	r3, r3, #7
        n = print(bigger);
 23fdcb0:	46e8      	mov	r8, sp
        char bigger[n+1];
 23fdcb2:	ebad 0d03 	sub.w	sp, sp, r3
        n = vsnprintf(bigger, n+1, format, args2);
 23fdcb6:	4622      	mov	r2, r4
 23fdcb8:	1c41      	adds	r1, r0, #1
 23fdcba:	683b      	ldr	r3, [r7, #0]
 23fdcbc:	4668      	mov	r0, sp
 23fdcbe:	f7ff fd2d 	bl	23fd71c <vsnprintf>
  return write(str);
 23fdcc2:	4669      	mov	r1, sp
 23fdcc4:	4628      	mov	r0, r5
 23fdcc6:	f7ff ff85 	bl	23fdbd4 <_ZN5Print5writeEPKc>
 23fdcca:	4604      	mov	r4, r0
 23fdccc:	46c5      	mov	sp, r8
 23fdcce:	e7e1      	b.n	23fdc94 <_ZN5Print7vprintfEbPKcSt9__va_list+0x26>

023fdcd0 <_ZN6Stream9timedReadEv>:
#define PARSE_TIMEOUT 1000  // default number of milli-seconds to wait
#define NO_SKIP_CHAR  1  // a magic char not found in a valid ASCII numeric field

// private method to read stream with timeout
int Stream::timedRead()
{
 23fdcd0:	b510      	push	{r4, lr}
 23fdcd2:	4604      	mov	r4, r0

#ifdef __cplusplus
extern "C" {
#endif

inline system_tick_t millis(void) { return HAL_Timer_Get_Milli_Seconds(); }
 23fdcd4:	f7ff f8a6 	bl	23fce24 <HAL_Timer_Get_Milli_Seconds>
  int c;
  _startMillis = millis();
 23fdcd8:	60e0      	str	r0, [r4, #12]
  do {
    c = read();
 23fdcda:	6823      	ldr	r3, [r4, #0]
 23fdcdc:	4620      	mov	r0, r4
 23fdcde:	695b      	ldr	r3, [r3, #20]
 23fdce0:	4798      	blx	r3
    if (c >= 0) return c;
 23fdce2:	2800      	cmp	r0, #0
 23fdce4:	da08      	bge.n	23fdcf8 <_ZN6Stream9timedReadEv+0x28>
 23fdce6:	f7ff f89d 	bl	23fce24 <HAL_Timer_Get_Milli_Seconds>
  } while(millis() - _startMillis < _timeout);
 23fdcea:	68e3      	ldr	r3, [r4, #12]
 23fdcec:	1ac0      	subs	r0, r0, r3
 23fdcee:	68a3      	ldr	r3, [r4, #8]
 23fdcf0:	4298      	cmp	r0, r3
 23fdcf2:	d3f2      	bcc.n	23fdcda <_ZN6Stream9timedReadEv+0xa>
  return -1;     // -1 indicates timeout
 23fdcf4:	f04f 30ff 	mov.w	r0, #4294967295
}
 23fdcf8:	bd10      	pop	{r4, pc}

023fdcfa <_ZN6Stream9readBytesEPcj>:
// terminates if length characters have been read, or timeout (see setTimeout)
// returns the number of characters placed in the buffer
// the buffer is NOT null terminated.
//
size_t Stream::readBytes(char *buffer, size_t length)
{
 23fdcfa:	e92d 41f0 	stmdb	sp!, {r4, r5, r6, r7, r8, lr}
 23fdcfe:	4607      	mov	r7, r0
 23fdd00:	460c      	mov	r4, r1
 23fdd02:	460d      	mov	r5, r1
 23fdd04:	188e      	adds	r6, r1, r2
  size_t count = 0;
  while (count < length) {
 23fdd06:	42b5      	cmp	r5, r6
 23fdd08:	eba5 0804 	sub.w	r8, r5, r4
 23fdd0c:	d007      	beq.n	23fdd1e <_ZN6Stream9readBytesEPcj+0x24>
    int c = timedRead();
 23fdd0e:	4638      	mov	r0, r7
 23fdd10:	f7ff ffde 	bl	23fdcd0 <_ZN6Stream9timedReadEv>
    if (c < 0) break;
 23fdd14:	1e03      	subs	r3, r0, #0
 23fdd16:	db02      	blt.n	23fdd1e <_ZN6Stream9readBytesEPcj+0x24>
    *buffer++ = (char)c;
 23fdd18:	f805 3b01 	strb.w	r3, [r5], #1
  while (count < length) {
 23fdd1c:	e7f3      	b.n	23fdd06 <_ZN6Stream9readBytesEPcj+0xc>
    count++;
  }
  return count;
}
 23fdd1e:	4640      	mov	r0, r8
 23fdd20:	e8bd 81f0 	ldmia.w	sp!, {r4, r5, r6, r7, r8, pc}

023fdd24 <_GLOBAL__sub_I__ZN5spark3LogE>:
    // This handler doesn't support direct logging
}

// spark::Logger
inline spark::Logger::Logger(const char *name) :
        name_(name) {
 23fdd24:	4b01      	ldr	r3, [pc, #4]	; (23fdd2c <_GLOBAL__sub_I__ZN5spark3LogE+0x8>)
 23fdd26:	4a02      	ldr	r2, [pc, #8]	; (23fdd30 <_GLOBAL__sub_I__ZN5spark3LogE+0xc>)
 23fdd28:	601a      	str	r2, [r3, #0]
#if Wiring_LogConfig

// spark::
void spark::logProcessControlRequest(ctrl_request* req) {
    JSONRequestHandler::process(req);
}
 23fdd2a:	4770      	bx	lr
 23fdd2c:	1007ae38 	.word	0x1007ae38
 23fdd30:	023ffc60 	.word	0x023ffc60

023fdd34 <_GLOBAL__sub_I_TIME_FORMAT_DEFAULT>:
            calendar_time_cache = Convert_UnixTime_To_CalendarTime(unix_time);
            unix_time_cache = unix_time;
    }
}

const char* TimeClass::format_spec = TIME_FORMAT_DEFAULT;
 23fdd34:	4b02      	ldr	r3, [pc, #8]	; (23fdd40 <_GLOBAL__sub_I_TIME_FORMAT_DEFAULT+0xc>)
 23fdd36:	681a      	ldr	r2, [r3, #0]
 23fdd38:	4b02      	ldr	r3, [pc, #8]	; (23fdd44 <_GLOBAL__sub_I_TIME_FORMAT_DEFAULT+0x10>)
 23fdd3a:	601a      	str	r2, [r3, #0]
{
  return isValid();
}


TimeClass Time;
 23fdd3c:	4770      	bx	lr
 23fdd3e:	bf00      	nop
 23fdd40:	1007ac10 	.word	0x1007ac10
 23fdd44:	1007ae3c 	.word	0x1007ae3c

023fdd48 <delay>:
    return (value - fromStart) * (toEnd - toStart) / (fromEnd - fromStart) + toStart;
}

void delay(unsigned long ms)
{
    system_delay_ms(ms, false);
 23fdd48:	2100      	movs	r1, #0
 23fdd4a:	f7ff bb97 	b.w	23fd47c <system_delay_ms>
	...

023fdd50 <_GLOBAL__sub_I_RGB>:
    _Function_base() : _M_manager(nullptr) { }
 23fdd50:	2200      	movs	r2, #0
 23fdd52:	4b01      	ldr	r3, [pc, #4]	; (23fdd58 <_GLOBAL__sub_I_RGB+0x8>)
 23fdd54:	609a      	str	r2, [r3, #8]
{
    RGBClass* const d = static_cast<RGBClass*>(data);
    if (d->changeHandler_) {
        d->changeHandler_(r, g, b);
    }
}
 23fdd56:	4770      	bx	lr
 23fdd58:	1007ae40 	.word	0x1007ae40

023fdd5c <_ZZ21module_user_init_hookENUlP6_reentjmPvE_4_FUNES0_jmS1_>:

void module_user_init_hook()
{
#if HAL_PLATFORM_NEWLIB
    newlib_impure_ptr_callback([](struct _reent* r, size_t size, uint32_t version, void* ctx) -> void {
        _impure_ptr = r;
 23fdd5c:	4b01      	ldr	r3, [pc, #4]	; (23fdd64 <_ZZ21module_user_init_hookENUlP6_reentjmPvE_4_FUNES0_jmS1_+0x8>)
 23fdd5e:	6018      	str	r0, [r3, #0]
    }, nullptr);
 23fdd60:	4770      	bx	lr
 23fdd62:	bf00      	nop
 23fdd64:	1007ac14 	.word	0x1007ac14

023fdd68 <serialEventRun>:
{
 23fdd68:	b508      	push	{r3, lr}
    if (serialEvent && Serial.available()>0)
 23fdd6a:	4b0f      	ldr	r3, [pc, #60]	; (23fdda8 <serialEventRun+0x40>)
 23fdd6c:	b143      	cbz	r3, 23fdd80 <serialEventRun+0x18>
 23fdd6e:	f000 f98d 	bl	23fe08c <_Z16_fetch_usbserialv>
 23fdd72:	6803      	ldr	r3, [r0, #0]
 23fdd74:	691b      	ldr	r3, [r3, #16]
 23fdd76:	4798      	blx	r3
 23fdd78:	2800      	cmp	r0, #0
 23fdd7a:	dd01      	ble.n	23fdd80 <serialEventRun+0x18>
        serialEvent();
 23fdd7c:	e000      	b.n	23fdd80 <serialEventRun+0x18>
 23fdd7e:	bf00      	nop
    if (serialEvent1 && Serial1.available()>0)
 23fdd80:	4b0a      	ldr	r3, [pc, #40]	; (23fddac <serialEventRun+0x44>)
 23fdd82:	b143      	cbz	r3, 23fdd96 <serialEventRun+0x2e>
 23fdd84:	f000 ffa4 	bl	23fecd0 <_Z22__fetch_global_Serial1v>
 23fdd88:	6803      	ldr	r3, [r0, #0]
 23fdd8a:	691b      	ldr	r3, [r3, #16]
 23fdd8c:	4798      	blx	r3
 23fdd8e:	2800      	cmp	r0, #0
 23fdd90:	dd01      	ble.n	23fdd96 <serialEventRun+0x2e>
        serialEvent1();
 23fdd92:	e000      	b.n	23fdd96 <serialEventRun+0x2e>
 23fdd94:	bf00      	nop
    if (serialEvent2) serialEventRun2();
 23fdd96:	4b06      	ldr	r3, [pc, #24]	; (23fddb0 <serialEventRun+0x48>)
 23fdd98:	b10b      	cbz	r3, 23fdd9e <serialEventRun+0x36>
 23fdd9a:	f000 ffdf 	bl	23fed5c <_Z15serialEventRun2v>
    if (serialEvent3) serialEventRun3();
 23fdd9e:	4b05      	ldr	r3, [pc, #20]	; (23fddb4 <serialEventRun+0x4c>)
 23fdda0:	b10b      	cbz	r3, 23fdda6 <serialEventRun+0x3e>
 23fdda2:	f001 f811 	bl	23fedc8 <_Z15serialEventRun3v>
}
 23fdda6:	bd08      	pop	{r3, pc}
	...

023fddb8 <_post_loop>:
{
 23fddb8:	b508      	push	{r3, lr}
	serialEventRun();
 23fddba:	f7ff ffd5 	bl	23fdd68 <serialEventRun>
		return !thread || !thread->isRunning();
	}

	static inline system_tick_t current_time()
	{
		return HAL_Timer_Get_Milli_Seconds();
 23fddbe:	f7ff f831 	bl	23fce24 <HAL_Timer_Get_Milli_Seconds>
	/**
	 * Lifesign that the application is still working normally.
	 */
	static void checkin()
	{
		last_checkin = current_time();
 23fddc2:	4b01      	ldr	r3, [pc, #4]	; (23fddc8 <_post_loop+0x10>)
 23fddc4:	6018      	str	r0, [r3, #0]
}
 23fddc6:	bd08      	pop	{r3, pc}
 23fddc8:	1007af4c 	.word	0x1007af4c

023fddcc <_Z33system_initialize_user_backup_ramv>:
    memcpy(&link_global_retained_start, &link_global_retained_initial_values, len);
 23fddcc:	4805      	ldr	r0, [pc, #20]	; (23fdde4 <_Z33system_initialize_user_backup_ramv+0x18>)
 23fddce:	4a06      	ldr	r2, [pc, #24]	; (23fdde8 <_Z33system_initialize_user_backup_ramv+0x1c>)
{
 23fddd0:	b508      	push	{r3, lr}
    memcpy(&link_global_retained_start, &link_global_retained_initial_values, len);
 23fddd2:	1a12      	subs	r2, r2, r0
 23fddd4:	4905      	ldr	r1, [pc, #20]	; (23fddec <_Z33system_initialize_user_backup_ramv+0x20>)
 23fddd6:	f001 f969 	bl	23ff0ac <memcpy>
    __backup_sram_signature = signature;
 23fddda:	4b05      	ldr	r3, [pc, #20]	; (23fddf0 <_Z33system_initialize_user_backup_ramv+0x24>)
 23fdddc:	4a05      	ldr	r2, [pc, #20]	; (23fddf4 <_Z33system_initialize_user_backup_ramv+0x28>)
 23fddde:	601a      	str	r2, [r3, #0]
}
 23fdde0:	bd08      	pop	{r3, pc}
 23fdde2:	bf00      	nop
 23fdde4:	1007b400 	.word	0x1007b400
 23fdde8:	1007b404 	.word	0x1007b404
 23fddec:	085ff4b8 	.word	0x085ff4b8
 23fddf0:	1007b400 	.word	0x1007b400
 23fddf4:	9a271c1e 	.word	0x9a271c1e

023fddf8 <_Z27ctrl_request_custom_handlerP12ctrl_request>:
    system_ctrl_set_result(req, SYSTEM_ERROR_NOT_SUPPORTED, nullptr, nullptr, nullptr);
 23fddf8:	2300      	movs	r3, #0
void __attribute((weak)) ctrl_request_custom_handler(ctrl_request* req) {
 23fddfa:	b507      	push	{r0, r1, r2, lr}
    system_ctrl_set_result(req, SYSTEM_ERROR_NOT_SUPPORTED, nullptr, nullptr, nullptr);
 23fddfc:	461a      	mov	r2, r3
 23fddfe:	f06f 0177 	mvn.w	r1, #119	; 0x77
 23fde02:	9300      	str	r3, [sp, #0]
 23fde04:	f7ff fb56 	bl	23fd4b4 <system_ctrl_set_result>
}
 23fde08:	b003      	add	sp, #12
 23fde0a:	f85d fb04 	ldr.w	pc, [sp], #4
	...

023fde10 <_ZL20ctrl_request_handlerP12ctrl_request>:
static void ctrl_request_handler(ctrl_request* req) {
 23fde10:	b507      	push	{r0, r1, r2, lr}
    switch (req->type) {
 23fde12:	8843      	ldrh	r3, [r0, #2]
 23fde14:	2b0a      	cmp	r3, #10
 23fde16:	d008      	beq.n	23fde2a <_ZL20ctrl_request_handlerP12ctrl_request+0x1a>
 23fde18:	2b50      	cmp	r3, #80	; 0x50
 23fde1a:	d10b      	bne.n	23fde34 <_ZL20ctrl_request_handlerP12ctrl_request+0x24>
        if (log_process_ctrl_request_callback) {
 23fde1c:	4b09      	ldr	r3, [pc, #36]	; (23fde44 <_ZL20ctrl_request_handlerP12ctrl_request+0x34>)
 23fde1e:	681b      	ldr	r3, [r3, #0]
 23fde20:	b14b      	cbz	r3, 23fde36 <_ZL20ctrl_request_handlerP12ctrl_request+0x26>
}
 23fde22:	b003      	add	sp, #12
 23fde24:	f85d eb04 	ldr.w	lr, [sp], #4
            log_process_ctrl_request_callback(req);
 23fde28:	4718      	bx	r3
        ctrl_request_custom_handler(req);
 23fde2a:	f7ff ffe5 	bl	23fddf8 <_Z27ctrl_request_custom_handlerP12ctrl_request>
}
 23fde2e:	b003      	add	sp, #12
 23fde30:	f85d fb04 	ldr.w	pc, [sp], #4
        system_ctrl_set_result(req, SYSTEM_ERROR_NOT_SUPPORTED, nullptr, nullptr, nullptr);
 23fde34:	2300      	movs	r3, #0
 23fde36:	461a      	mov	r2, r3
 23fde38:	f06f 0177 	mvn.w	r1, #119	; 0x77
 23fde3c:	9300      	str	r3, [sp, #0]
 23fde3e:	f7ff fb39 	bl	23fd4b4 <system_ctrl_set_result>
}
 23fde42:	e7f4      	b.n	23fde2e <_ZL20ctrl_request_handlerP12ctrl_request+0x1e>
 23fde44:	1007ae54 	.word	0x1007ae54

023fde48 <module_user_init_hook>:
    newlib_impure_ptr_callback([](struct _reent* r, size_t size, uint32_t version, void* ctx) -> void {
 23fde48:	2100      	movs	r1, #0
{
 23fde4a:	b510      	push	{r4, lr}
    newlib_impure_ptr_callback([](struct _reent* r, size_t size, uint32_t version, void* ctx) -> void {
 23fde4c:	4811      	ldr	r0, [pc, #68]	; (23fde94 <module_user_init_hook+0x4c>)
 23fde4e:	f7ff fc9d 	bl	23fd78c <newlib_impure_ptr_callback>
#endif // HAL_PLATFORM_NEWLIB

#if HAL_PLATFORM_BACKUP_RAM
    backup_ram_was_valid_ = __backup_sram_signature == signature;
 23fde52:	4b11      	ldr	r3, [pc, #68]	; (23fde98 <module_user_init_hook+0x50>)
 23fde54:	681a      	ldr	r2, [r3, #0]
 23fde56:	4b11      	ldr	r3, [pc, #68]	; (23fde9c <module_user_init_hook+0x54>)
 23fde58:	429a      	cmp	r2, r3
 23fde5a:	bf0c      	ite	eq
 23fde5c:	2201      	moveq	r2, #1
 23fde5e:	2200      	movne	r2, #0
 23fde60:	4b0f      	ldr	r3, [pc, #60]	; (23fdea0 <module_user_init_hook+0x58>)
 23fde62:	701a      	strb	r2, [r3, #0]
    if (!backup_ram_was_valid_) {
 23fde64:	d001      	beq.n	23fde6a <module_user_init_hook+0x22>
        system_initialize_user_backup_ram();
 23fde66:	f7ff ffb1 	bl	23fddcc <_Z33system_initialize_user_backup_ramv>
    }
#endif

#if HAL_PLATFORM_RNG
    // Initialize the default stdlib PRNG using hardware RNG as a seed
    const uint32_t seed = HAL_RNG_GetRandomNumber();
 23fde6a:	f7fe ffb1 	bl	23fcdd0 <HAL_RNG_GetRandomNumber>
 23fde6e:	4604      	mov	r4, r0
    srand(seed);
 23fde70:	f001 f932 	bl	23ff0d8 <srand>

    // If the user defines random_seed_from_cloud, call it with a seed value
    // generated by a hardware RNG as well.
    if (random_seed_from_cloud) {
 23fde74:	4b0b      	ldr	r3, [pc, #44]	; (23fdea4 <module_user_init_hook+0x5c>)
 23fde76:	b113      	cbz	r3, 23fde7e <module_user_init_hook+0x36>
        random_seed_from_cloud(seed);
 23fde78:	4620      	mov	r0, r4
 23fde7a:	e000      	b.n	23fde7e <module_user_init_hook+0x36>
 23fde7c:	bf00      	nop
    }
#endif
    // Register the random_seed_from_cloud handler
    spark_set_random_seed_from_cloud_handler(&random_seed_from_cloud, nullptr);
 23fde7e:	2100      	movs	r1, #0
 23fde80:	4808      	ldr	r0, [pc, #32]	; (23fdea4 <module_user_init_hook+0x5c>)
 23fde82:	f7ff fc13 	bl	23fd6ac <spark_set_random_seed_from_cloud_handler>

    // Register application handler for the control requests
    system_ctrl_set_app_request_handler(ctrl_request_handler, nullptr);
}
 23fde86:	e8bd 4010 	ldmia.w	sp!, {r4, lr}
    system_ctrl_set_app_request_handler(ctrl_request_handler, nullptr);
 23fde8a:	2100      	movs	r1, #0
 23fde8c:	4806      	ldr	r0, [pc, #24]	; (23fdea8 <module_user_init_hook+0x60>)
 23fde8e:	f7ff bb03 	b.w	23fd498 <system_ctrl_set_app_request_handler>
 23fde92:	bf00      	nop
 23fde94:	023fdd5d 	.word	0x023fdd5d
 23fde98:	1007b400 	.word	0x1007b400
 23fde9c:	9a271c1e 	.word	0x9a271c1e
 23fdea0:	1007ae50 	.word	0x1007ae50
 23fdea4:	00000000 	.word	0x00000000
 23fdea8:	023fde11 	.word	0x023fde11

023fdeac <_ZN9IPAddressD1Ev>:
    IPAddress(uint32_t address);
    // 4 bytes defining the IP address in network order
    IPAddress(const uint8_t* address);
    IPAddress(const HAL_IPAddress& address);

    virtual ~IPAddress() {}
 23fdeac:	4770      	bx	lr

023fdeae <_ZN9IPAddressD0Ev>:
 23fdeae:	b510      	push	{r4, lr}
 23fdeb0:	4604      	mov	r4, r0
 23fdeb2:	2118      	movs	r1, #24
 23fdeb4:	f7fc fdcf 	bl	23faa56 <_ZdlPvj>
 23fdeb8:	4620      	mov	r0, r4
 23fdeba:	bd10      	pop	{r4, pc}

023fdebc <_ZNK9IPAddress7printToER5Print>:
#endif // Wiring_IPv6
	return address.ipv4==that.address.ipv4;
}

size_t IPAddress::printTo(Print& p) const
{
 23fdebc:	b5f0      	push	{r4, r5, r6, r7, lr}
#if Wiring_IPv6
#if HAL_USE_INET_HAL_POSIX
	if (address.v==6) {
 23fdebe:	7d03      	ldrb	r3, [r0, #20]
{
 23fdec0:	460e      	mov	r6, r1
	if (address.v==6) {
 23fdec2:	2b06      	cmp	r3, #6
 23fdec4:	f04f 0400 	mov.w	r4, #0
{
 23fdec8:	b08d      	sub	sp, #52	; 0x34
		char buf[INET6_ADDRSTRLEN+1];
		buf[0] = 0;
		inet_inet_ntop(AF_INET6, address.ipv6, buf, sizeof(buf));
 23fdeca:	f100 0704 	add.w	r7, r0, #4
	if (address.v==6) {
 23fdece:	d012      	beq.n	23fdef6 <_ZNK9IPAddress7printToER5Print+0x3a>
 23fded0:	f100 0508 	add.w	r5, r0, #8
            val = n;
        }
#if __GNUC__ >= 9
#pragma GCC diagnostic pop
#endif // __GNUC__ >= 9
        return printNumber(val, base) + t;
 23fded4:	f815 1d01 	ldrb.w	r1, [r5, #-1]!
 23fded8:	220a      	movs	r2, #10
 23fdeda:	4630      	mov	r0, r6
 23fdedc:	f7ff fea9 	bl	23fdc32 <_ZN5Print11printNumberEmh>
#else
#pragma message "HAL_USE_INET_HAL_POSIX is required for IPv6 support in IPAddress::printTo()"
#endif // HAL_USE_INET_HAL_POSIX
#endif // Wiring_IPv6
    size_t n = 0;
    for (int i = 0; i < 4; i++)
 23fdee0:	42af      	cmp	r7, r5
    {
        if (n)
            n += p.print('.');
        n += p.print((*this)[i], DEC);
 23fdee2:	4404      	add	r4, r0
    for (int i = 0; i < 4; i++)
 23fdee4:	d019      	beq.n	23fdf1a <_ZNK9IPAddress7printToER5Print+0x5e>
        if (n)
 23fdee6:	2c00      	cmp	r4, #0
 23fdee8:	d0f4      	beq.n	23fded4 <_ZNK9IPAddress7printToER5Print+0x18>
            n += p.print('.');
 23fdeea:	212e      	movs	r1, #46	; 0x2e
 23fdeec:	4630      	mov	r0, r6
 23fdeee:	f7ff fe87 	bl	23fdc00 <_ZN5Print5printEc>
 23fdef2:	4404      	add	r4, r0
 23fdef4:	e7ee      	b.n	23fded4 <_ZNK9IPAddress7printToER5Print+0x18>
		inet_inet_ntop(AF_INET6, address.ipv6, buf, sizeof(buf));
 23fdef6:	232f      	movs	r3, #47	; 0x2f
 23fdef8:	466a      	mov	r2, sp
 23fdefa:	4639      	mov	r1, r7
 23fdefc:	200a      	movs	r0, #10
		buf[0] = 0;
 23fdefe:	f88d 4000 	strb.w	r4, [sp]
		inet_inet_ntop(AF_INET6, address.ipv6, buf, sizeof(buf));
 23fdf02:	f7fe ffb9 	bl	23fce78 <inet_inet_ntop>
      return write((const uint8_t *)str, strlen(str));
 23fdf06:	4668      	mov	r0, sp
 23fdf08:	f7fc fd7c 	bl	23faa04 <strlen>
 23fdf0c:	6833      	ldr	r3, [r6, #0]
 23fdf0e:	4602      	mov	r2, r0
 23fdf10:	4669      	mov	r1, sp
 23fdf12:	4630      	mov	r0, r6
 23fdf14:	68db      	ldr	r3, [r3, #12]
 23fdf16:	4798      	blx	r3
 23fdf18:	4604      	mov	r4, r0
    }
    return n;
}
 23fdf1a:	4620      	mov	r0, r4
 23fdf1c:	b00d      	add	sp, #52	; 0x34
 23fdf1e:	bdf0      	pop	{r4, r5, r6, r7, pc}

023fdf20 <_ZN9IPAddressC1Ev>:
IPAddress::IPAddress()
 23fdf20:	b510      	push	{r4, lr}
 23fdf22:	4604      	mov	r4, r0
 23fdf24:	4b04      	ldr	r3, [pc, #16]	; (23fdf38 <_ZN9IPAddressC1Ev+0x18>)
        return address;
    }

    virtual size_t printTo(Print& p) const;

    void clear() { memset(&address, 0, sizeof (address)); }
 23fdf26:	2211      	movs	r2, #17
 23fdf28:	2100      	movs	r1, #0
 23fdf2a:	f840 3b04 	str.w	r3, [r0], #4
 23fdf2e:	f001 f8ca 	bl	23ff0c6 <memset>
}
 23fdf32:	4620      	mov	r0, r4
 23fdf34:	bd10      	pop	{r4, pc}
 23fdf36:	bf00      	nop
 23fdf38:	023ffc88 	.word	0x023ffc88

023fdf3c <_ZN9IPAddressC1ERK16_HAL_IPAddress_t>:
IPAddress::IPAddress(const HAL_IPAddress& address)
 23fdf3c:	4603      	mov	r3, r0
 23fdf3e:	4a07      	ldr	r2, [pc, #28]	; (23fdf5c <_ZN9IPAddressC1ERK16_HAL_IPAddress_t+0x20>)
 23fdf40:	b510      	push	{r4, lr}
 23fdf42:	f843 2b04 	str.w	r2, [r3], #4
    memcpy(&this->address, &address, sizeof(address));
 23fdf46:	f101 0210 	add.w	r2, r1, #16
 23fdf4a:	f851 4b04 	ldr.w	r4, [r1], #4
 23fdf4e:	4291      	cmp	r1, r2
 23fdf50:	f843 4b04 	str.w	r4, [r3], #4
 23fdf54:	d1f9      	bne.n	23fdf4a <_ZN9IPAddressC1ERK16_HAL_IPAddress_t+0xe>
 23fdf56:	780a      	ldrb	r2, [r1, #0]
 23fdf58:	701a      	strb	r2, [r3, #0]
}
 23fdf5a:	bd10      	pop	{r4, pc}
 23fdf5c:	023ffc88 	.word	0x023ffc88

023fdf60 <_ZNK9IPAddresscvbEv>:

    String toString() const { return String(*this); }

    uint8_t version() const {
#if HAL_IPv6
    		return address.v;
 23fdf60:	7d03      	ldrb	r3, [r0, #20]
    if (version() == 4) {
 23fdf62:	2b04      	cmp	r3, #4
 23fdf64:	d104      	bne.n	23fdf70 <_ZNK9IPAddresscvbEv+0x10>
        return address.ipv4 != 0;
 23fdf66:	6840      	ldr	r0, [r0, #4]
        return address.ipv6[0] != 0 || address.ipv6[1] != 0 || address.ipv6[2] != 0 || address.ipv6[3] != 0;
 23fdf68:	3800      	subs	r0, #0
 23fdf6a:	bf18      	it	ne
 23fdf6c:	2001      	movne	r0, #1
 23fdf6e:	4770      	bx	lr
    } else if (version() == 6) {
 23fdf70:	2b06      	cmp	r3, #6
 23fdf72:	d107      	bne.n	23fdf84 <_ZNK9IPAddresscvbEv+0x24>
        return address.ipv6[0] != 0 || address.ipv6[1] != 0 || address.ipv6[2] != 0 || address.ipv6[3] != 0;
 23fdf74:	6843      	ldr	r3, [r0, #4]
 23fdf76:	b93b      	cbnz	r3, 23fdf88 <_ZNK9IPAddresscvbEv+0x28>
 23fdf78:	6883      	ldr	r3, [r0, #8]
 23fdf7a:	b92b      	cbnz	r3, 23fdf88 <_ZNK9IPAddresscvbEv+0x28>
 23fdf7c:	68c3      	ldr	r3, [r0, #12]
 23fdf7e:	b91b      	cbnz	r3, 23fdf88 <_ZNK9IPAddresscvbEv+0x28>
 23fdf80:	6900      	ldr	r0, [r0, #16]
 23fdf82:	e7f1      	b.n	23fdf68 <_ZNK9IPAddresscvbEv+0x8>
        return false;
 23fdf84:	2000      	movs	r0, #0
 23fdf86:	4770      	bx	lr
        return address.ipv6[0] != 0 || address.ipv6[1] != 0 || address.ipv6[2] != 0 || address.ipv6[3] != 0;
 23fdf88:	2001      	movs	r0, #1
}
 23fdf8a:	4770      	bx	lr

023fdf8c <_ZN9IPAddress8set_ipv4Ehhhh>:
{
 23fdf8c:	b510      	push	{r4, lr}
    address.ipv4 = b0<<24 | b1 << 16 | b2 << 8 | b3;
 23fdf8e:	f89d 4008 	ldrb.w	r4, [sp, #8]
 23fdf92:	ea44 2303 	orr.w	r3, r4, r3, lsl #8
 23fdf96:	ea43 4202 	orr.w	r2, r3, r2, lsl #16
        address.v = version;
 23fdf9a:	2304      	movs	r3, #4
 23fdf9c:	ea42 6101 	orr.w	r1, r2, r1, lsl #24
 23fdfa0:	6041      	str	r1, [r0, #4]
 23fdfa2:	7503      	strb	r3, [r0, #20]
}
 23fdfa4:	bd10      	pop	{r4, pc}
	...

023fdfa8 <_ZN9IPAddressC1EPKh>:
IPAddress::IPAddress(const uint8_t* addr)
 23fdfa8:	b507      	push	{r0, r1, r2, lr}
 23fdfaa:	4b06      	ldr	r3, [pc, #24]	; (23fdfc4 <_ZN9IPAddressC1EPKh+0x1c>)
 23fdfac:	6003      	str	r3, [r0, #0]
    set_ipv4(addr[0], addr[1], addr[2], addr[3]);
 23fdfae:	78cb      	ldrb	r3, [r1, #3]
 23fdfb0:	9300      	str	r3, [sp, #0]
 23fdfb2:	788b      	ldrb	r3, [r1, #2]
 23fdfb4:	784a      	ldrb	r2, [r1, #1]
 23fdfb6:	7809      	ldrb	r1, [r1, #0]
 23fdfb8:	f7ff ffe8 	bl	23fdf8c <_ZN9IPAddress8set_ipv4Ehhhh>
}
 23fdfbc:	b003      	add	sp, #12
 23fdfbe:	f85d fb04 	ldr.w	pc, [sp], #4
 23fdfc2:	bf00      	nop
 23fdfc4:	023ffc88 	.word	0x023ffc88

023fdfc8 <_ZN9USBSerial14blockOnOverrunEb>:
  HAL_USB_USART_Flush_Data(_serial);
}

void USBSerial::blockOnOverrun(bool block)
{
  _blocking = block;
 23fdfc8:	7441      	strb	r1, [r0, #17]
}
 23fdfca:	4770      	bx	lr

023fdfcc <__tcf_0>:
}

USBSerial& _fetch_usbserial()
{
  HAL_USB_USART_Config conf = acquireSerialBuffer();
	static USBSerial _usbserial(HAL_USB_USART_SERIAL, conf);
 23fdfcc:	4770      	bx	lr

023fdfce <_ZN9USBSerialD1Ev>:
#include "usb_hal.h"
#include "system_task.h"
#include "spark_wiring_startup.h"
#include "concurrent_hal.h"

class USBSerial : public Stream
 23fdfce:	4770      	bx	lr

023fdfd0 <_ZN9USBSerial4readEv>:
{
 23fdfd0:	b508      	push	{r3, lr}
	return std::max(-1, (int)HAL_USB_USART_Receive_Data(_serial, false));
 23fdfd2:	2100      	movs	r1, #0
 23fdfd4:	7c00      	ldrb	r0, [r0, #16]
 23fdfd6:	f7ff f9e1 	bl	23fd39c <HAL_USB_USART_Receive_Data>
}
 23fdfda:	ea40 70e0 	orr.w	r0, r0, r0, asr #31
 23fdfde:	bd08      	pop	{r3, pc}

023fdfe0 <_ZN9USBSerial4peekEv>:
{
 23fdfe0:	b508      	push	{r3, lr}
	return std::max(-1, (int)HAL_USB_USART_Receive_Data(_serial, true));
 23fdfe2:	2101      	movs	r1, #1
 23fdfe4:	7c00      	ldrb	r0, [r0, #16]
 23fdfe6:	f7ff f9d9 	bl	23fd39c <HAL_USB_USART_Receive_Data>
}
 23fdfea:	ea40 70e0 	orr.w	r0, r0, r0, asr #31
 23fdfee:	bd08      	pop	{r3, pc}

023fdff0 <_ZN9USBSerial17availableForWriteEv>:
{
 23fdff0:	b508      	push	{r3, lr}
  return std::max(0, (int)HAL_USB_USART_Available_Data_For_Write(_serial));
 23fdff2:	7c00      	ldrb	r0, [r0, #16]
 23fdff4:	f7ff f9c4 	bl	23fd380 <HAL_USB_USART_Available_Data_For_Write>
}
 23fdff8:	ea20 70e0 	bic.w	r0, r0, r0, asr #31
 23fdffc:	bd08      	pop	{r3, pc}

023fdffe <_ZN9USBSerial9availableEv>:
{
 23fdffe:	b508      	push	{r3, lr}
	return std::max(0, (int)HAL_USB_USART_Available_Data(_serial));
 23fe000:	7c00      	ldrb	r0, [r0, #16]
 23fe002:	f7ff f9af 	bl	23fd364 <HAL_USB_USART_Available_Data>
}
 23fe006:	ea20 70e0 	bic.w	r0, r0, r0, asr #31
 23fe00a:	bd08      	pop	{r3, pc}

023fe00c <_ZN9USBSerial5writeEh>:
{
 23fe00c:	b513      	push	{r0, r1, r4, lr}
 23fe00e:	4604      	mov	r4, r0
  if (HAL_USB_USART_Available_Data_For_Write(_serial) > 0 || _blocking) {
 23fe010:	7c00      	ldrb	r0, [r0, #16]
{
 23fe012:	9101      	str	r1, [sp, #4]
  if (HAL_USB_USART_Available_Data_For_Write(_serial) > 0 || _blocking) {
 23fe014:	f7ff f9b4 	bl	23fd380 <HAL_USB_USART_Available_Data_For_Write>
 23fe018:	2800      	cmp	r0, #0
 23fe01a:	9901      	ldr	r1, [sp, #4]
 23fe01c:	dc01      	bgt.n	23fe022 <_ZN9USBSerial5writeEh+0x16>
 23fe01e:	7c60      	ldrb	r0, [r4, #17]
 23fe020:	b120      	cbz	r0, 23fe02c <_ZN9USBSerial5writeEh+0x20>
    return std::max(0, (int)HAL_USB_USART_Send_Data(_serial, byte));
 23fe022:	7c20      	ldrb	r0, [r4, #16]
 23fe024:	f7ff f9c8 	bl	23fd3b8 <HAL_USB_USART_Send_Data>
 23fe028:	ea20 70e0 	bic.w	r0, r0, r0, asr #31
}
 23fe02c:	b002      	add	sp, #8
 23fe02e:	bd10      	pop	{r4, pc}

023fe030 <_ZN9USBSerial5flushEv>:
  HAL_USB_USART_Flush_Data(_serial);
 23fe030:	7c00      	ldrb	r0, [r0, #16]
 23fe032:	f7ff b9cf 	b.w	23fd3d4 <HAL_USB_USART_Flush_Data>

023fe036 <_ZN9USBSerialD0Ev>:
 23fe036:	b510      	push	{r4, lr}
 23fe038:	4604      	mov	r4, r0
 23fe03a:	2114      	movs	r1, #20
 23fe03c:	f7fc fd0b 	bl	23faa56 <_ZdlPvj>
 23fe040:	4620      	mov	r0, r4
 23fe042:	bd10      	pop	{r4, pc}

023fe044 <_ZN9USBSerialC1E20HAL_USB_USART_SerialRK20HAL_USB_USART_Config>:
USBSerial::USBSerial(HAL_USB_USART_Serial serial, const HAL_USB_USART_Config& conf)
 23fe044:	b510      	push	{r4, lr}
    virtual int available() = 0;
    virtual int read() = 0;
    virtual int peek() = 0;
    virtual void flush() = 0;

    Stream() {_timeout=1000;}
 23fe046:	f44f 737a 	mov.w	r3, #1000	; 0x3e8
 23fe04a:	4604      	mov	r4, r0
 23fe04c:	4608      	mov	r0, r1
 23fe04e:	2100      	movs	r1, #0
 23fe050:	e9c4 1301 	strd	r1, r3, [r4, #4]
 23fe054:	4b04      	ldr	r3, [pc, #16]	; (23fe068 <_ZN9USBSerialC1E20HAL_USB_USART_SerialRK20HAL_USB_USART_Config+0x24>)
  _serial = serial;
 23fe056:	7420      	strb	r0, [r4, #16]
USBSerial::USBSerial(HAL_USB_USART_Serial serial, const HAL_USB_USART_Config& conf)
 23fe058:	6023      	str	r3, [r4, #0]
  _blocking = true;
 23fe05a:	2301      	movs	r3, #1
  HAL_USB_USART_Init(_serial, &conf);
 23fe05c:	4611      	mov	r1, r2
  _blocking = true;
 23fe05e:	7463      	strb	r3, [r4, #17]
  HAL_USB_USART_Init(_serial, &conf);
 23fe060:	f7ff f964 	bl	23fd32c <HAL_USB_USART_Init>
}
 23fe064:	4620      	mov	r0, r4
 23fe066:	bd10      	pop	{r4, pc}
 23fe068:	023ffc9c 	.word	0x023ffc9c

023fe06c <_ZN9USBSerial5beginEl>:
    HAL_USB_USART_Begin(_serial, speed, NULL);
 23fe06c:	2200      	movs	r2, #0
 23fe06e:	7c00      	ldrb	r0, [r0, #16]
 23fe070:	f7ff b96a 	b.w	23fd348 <HAL_USB_USART_Begin>

023fe074 <_ZN9USBSerial11isConnectedEv>:
  return HAL_USB_USART_Is_Connected(_serial);
 23fe074:	7c00      	ldrb	r0, [r0, #16]
 23fe076:	f7ff b9bb 	b.w	23fd3f0 <HAL_USB_USART_Is_Connected>

023fe07a <_Z19acquireSerialBufferv>:
{
 23fe07a:	b510      	push	{r4, lr}
 23fe07c:	4604      	mov	r4, r0
  HAL_USB_USART_Config conf = {};
 23fe07e:	2214      	movs	r2, #20
 23fe080:	2100      	movs	r1, #0
 23fe082:	f001 f820 	bl	23ff0c6 <memset>
}
 23fe086:	4620      	mov	r0, r4
 23fe088:	bd10      	pop	{r4, pc}
	...

023fe08c <_Z16_fetch_usbserialv>:
{
 23fe08c:	b510      	push	{r4, lr}
 23fe08e:	b088      	sub	sp, #32
  HAL_USB_USART_Config conf = acquireSerialBuffer();
 23fe090:	a803      	add	r0, sp, #12
 23fe092:	f7ff fff2 	bl	23fe07a <_Z19acquireSerialBufferv>
	static USBSerial _usbserial(HAL_USB_USART_SERIAL, conf);
 23fe096:	4c0c      	ldr	r4, [pc, #48]	; (23fe0c8 <_Z16_fetch_usbserialv+0x3c>)
 23fe098:	e8d4 1f8f 	ldab	r1, [r4]
 23fe09c:	f011 0101 	ands.w	r1, r1, #1
 23fe0a0:	d10f      	bne.n	23fe0c2 <_Z16_fetch_usbserialv+0x36>
 23fe0a2:	4620      	mov	r0, r4
 23fe0a4:	9101      	str	r1, [sp, #4]
 23fe0a6:	f7fc fce5 	bl	23faa74 <__cxa_guard_acquire>
 23fe0aa:	9901      	ldr	r1, [sp, #4]
 23fe0ac:	b148      	cbz	r0, 23fe0c2 <_Z16_fetch_usbserialv+0x36>
 23fe0ae:	aa03      	add	r2, sp, #12
 23fe0b0:	4806      	ldr	r0, [pc, #24]	; (23fe0cc <_Z16_fetch_usbserialv+0x40>)
 23fe0b2:	f7ff ffc7 	bl	23fe044 <_ZN9USBSerialC1E20HAL_USB_USART_SerialRK20HAL_USB_USART_Config>
 23fe0b6:	4620      	mov	r0, r4
 23fe0b8:	f7fc fce1 	bl	23faa7e <__cxa_guard_release>
 23fe0bc:	4804      	ldr	r0, [pc, #16]	; (23fe0d0 <_Z16_fetch_usbserialv+0x44>)
 23fe0be:	f000 ffef 	bl	23ff0a0 <atexit>
	return _usbserial;
}
 23fe0c2:	4802      	ldr	r0, [pc, #8]	; (23fe0cc <_Z16_fetch_usbserialv+0x40>)
 23fe0c4:	b008      	add	sp, #32
 23fe0c6:	bd10      	pop	{r4, pc}
 23fe0c8:	1007ae58 	.word	0x1007ae58
 23fe0cc:	1007ae5c 	.word	0x1007ae5c
 23fe0d0:	023fdfcd 	.word	0x023fdfcd

023fe0d4 <_Z29call_wiring_interrupt_handlerPv>:
  template<typename _Res, typename... _ArgTypes>
    _Res
    function<_Res(_ArgTypes...)>::
    operator()(_ArgTypes... __args) const
    {
      if (_M_empty())
 23fe0d4:	6882      	ldr	r2, [r0, #8]
    delete handlers[pin];
    return handlers[pin] = new wiring_interrupt_handler_t(fn);
}

void call_wiring_interrupt_handler(void* data)
{
 23fe0d6:	b510      	push	{r4, lr}
 23fe0d8:	b90a      	cbnz	r2, 23fe0de <_Z29call_wiring_interrupt_handlerPv+0xa>
	__throw_bad_function_call();
 23fe0da:	f000 fecb 	bl	23fee74 <_ZSt25__throw_bad_function_callv>
      return _M_invoker(_M_functor, std::forward<_ArgTypes>(__args)...);
 23fe0de:	68c3      	ldr	r3, [r0, #12]
    wiring_interrupt_handler_t* handler = (wiring_interrupt_handler_t*)data;
    (*handler)();
}
 23fe0e0:	e8bd 4010 	ldmia.w	sp!, {r4, lr}
 23fe0e4:	4718      	bx	r3
	...

023fe0e8 <_Z16allocate_handlertRSt8functionIFvvEE>:
{
 23fe0e8:	b5f8      	push	{r3, r4, r5, r6, r7, lr}
    delete handlers[pin];
 23fe0ea:	4f10      	ldr	r7, [pc, #64]	; (23fe12c <_Z16allocate_handlertRSt8functionIFvvEE+0x44>)
{
 23fe0ec:	4606      	mov	r6, r0
    delete handlers[pin];
 23fe0ee:	f857 4020 	ldr.w	r4, [r7, r0, lsl #2]
{
 23fe0f2:	460d      	mov	r5, r1
    delete handlers[pin];
 23fe0f4:	b134      	cbz	r4, 23fe104 <_Z16allocate_handlertRSt8functionIFvvEE+0x1c>
    class function<_Res(_ArgTypes...)>
 23fe0f6:	4620      	mov	r0, r4
 23fe0f8:	f7ff fcdb 	bl	23fdab2 <_ZNSt14_Function_baseD1Ev>
 23fe0fc:	2110      	movs	r1, #16
 23fe0fe:	4620      	mov	r0, r4
 23fe100:	f7fc fca9 	bl	23faa56 <_ZdlPvj>
    return handlers[pin] = new wiring_interrupt_handler_t(fn);
 23fe104:	2010      	movs	r0, #16
 23fe106:	f7fc fca2 	bl	23faa4e <_Znwj>
 23fe10a:	4604      	mov	r4, r0
 23fe10c:	b150      	cbz	r0, 23fe124 <_Z16allocate_handlertRSt8functionIFvvEE+0x3c>
    _Function_base() : _M_manager(nullptr) { }
 23fe10e:	2300      	movs	r3, #0
 23fe110:	6083      	str	r3, [r0, #8]
    bool _M_empty() const { return !_M_manager; }
 23fe112:	68ab      	ldr	r3, [r5, #8]
      if (static_cast<bool>(__x))
 23fe114:	b133      	cbz	r3, 23fe124 <_Z16allocate_handlertRSt8functionIFvvEE+0x3c>
	  __x._M_manager(_M_functor, __x._M_functor, __clone_functor);
 23fe116:	2202      	movs	r2, #2
 23fe118:	4629      	mov	r1, r5
 23fe11a:	4798      	blx	r3
	  _M_invoker = __x._M_invoker;
 23fe11c:	68eb      	ldr	r3, [r5, #12]
 23fe11e:	60e3      	str	r3, [r4, #12]
	  _M_manager = __x._M_manager;
 23fe120:	68ab      	ldr	r3, [r5, #8]
 23fe122:	60a3      	str	r3, [r4, #8]
}
 23fe124:	4620      	mov	r0, r4
    return handlers[pin] = new wiring_interrupt_handler_t(fn);
 23fe126:	f847 4026 	str.w	r4, [r7, r6, lsl #2]
}
 23fe12a:	bdf8      	pop	{r3, r4, r5, r6, r7, pc}
 23fe12c:	1007ae70 	.word	0x1007ae70

023fe130 <_Z15attachInterrupttSt8functionIFvvEE13InterruptModeah>:
  }
  return nullptr;
}

bool attachInterrupt(uint16_t pin, wiring_interrupt_handler_t fn, InterruptMode mode, int8_t priority, uint8_t subpriority)
{
 23fe130:	b5f0      	push	{r4, r5, r6, r7, lr}
 23fe132:	4605      	mov	r5, r0
 23fe134:	b087      	sub	sp, #28
 23fe136:	4617      	mov	r7, r2
 23fe138:	461e      	mov	r6, r3
 23fe13a:	9103      	str	r1, [sp, #12]
    hal_interrupt_detach(pin);
 23fe13c:	f7fe fe10 	bl	23fcd60 <hal_interrupt_detach>
    wiring_interrupt_handler_t* handler = allocate_handler(pin, fn);
 23fe140:	4628      	mov	r0, r5
 23fe142:	9903      	ldr	r1, [sp, #12]
 23fe144:	f7ff ffd0 	bl	23fe0e8 <_Z16allocate_handlertRSt8functionIFvvEE>
    if (handler) {
 23fe148:	4604      	mov	r4, r0
 23fe14a:	b1d8      	cbz	r0, 23fe184 <_Z15attachInterrupttSt8functionIFvvEE13InterruptModeah+0x54>
        hal_interrupt_extra_configuration_t extra = {};
 23fe14c:	2100      	movs	r1, #0
  extra.version = HAL_INTERRUPT_EXTRA_CONFIGURATION_VERSION_1;
 23fe14e:	2304      	movs	r3, #4
  if (priority >= 0) {
 23fe150:	428e      	cmp	r6, r1
  extra.version = HAL_INTERRUPT_EXTRA_CONFIGURATION_VERSION_1;
 23fe152:	f88d 3010 	strb.w	r3, [sp, #16]
    extra.IRQChannelSubPriority = subpriority;
 23fe156:	bfa8      	it	ge
 23fe158:	f89d 3030 	ldrbge.w	r3, [sp, #48]	; 0x30
        hal_interrupt_extra_configuration_t extra = {};
 23fe15c:	f8cd 1011 	str.w	r1, [sp, #17]
    return &extra;
 23fe160:	bfa4      	itt	ge
 23fe162:	a904      	addge	r1, sp, #16
    extra.IRQChannelSubPriority = subpriority;
 23fe164:	f88d 3012 	strbge.w	r3, [sp, #18]
        if (SYSTEM_ERROR_NONE != hal_interrupt_attach(pin, call_wiring_interrupt_handler, handler, mode, configure_interrupt(extra, priority, subpriority))) {
 23fe168:	4602      	mov	r2, r0
 23fe16a:	9100      	str	r1, [sp, #0]
 23fe16c:	463b      	mov	r3, r7
 23fe16e:	4628      	mov	r0, r5
 23fe170:	4906      	ldr	r1, [pc, #24]	; (23fe18c <_Z15attachInterrupttSt8functionIFvvEE13InterruptModeah+0x5c>)
    extra.IRQChannelPreemptionPriority = (uint8_t)priority;
 23fe172:	bfa8      	it	ge
 23fe174:	f88d 6011 	strbge.w	r6, [sp, #17]
        if (SYSTEM_ERROR_NONE != hal_interrupt_attach(pin, call_wiring_interrupt_handler, handler, mode, configure_interrupt(extra, priority, subpriority))) {
 23fe178:	f7fe fde4 	bl	23fcd44 <hal_interrupt_attach>
 23fe17c:	b110      	cbz	r0, 23fe184 <_Z15attachInterrupttSt8functionIFvvEE13InterruptModeah+0x54>
            return false;
 23fe17e:	2000      	movs	r0, #0
        }
    }
    return handler!=NULL;
}
 23fe180:	b007      	add	sp, #28
 23fe182:	bdf0      	pop	{r4, r5, r6, r7, pc}
    return handler!=NULL;
 23fe184:	1e20      	subs	r0, r4, #0
 23fe186:	bf18      	it	ne
 23fe188:	2001      	movne	r0, #1
 23fe18a:	e7f9      	b.n	23fe180 <_Z15attachInterrupttSt8functionIFvvEE13InterruptModeah+0x50>
 23fe18c:	023fe0d5 	.word	0x023fe0d5

023fe190 <_Z12noInterruptsv>:
 * Return         : None.
 *******************************************************************************/
void noInterrupts(void)
{
  //Only disable the interrupts that are exposed to the user
  hal_interrupt_disable_all();
 23fe190:	f7fe be02 	b.w	23fcd98 <hal_interrupt_disable_all>

023fe194 <_Z10interruptsv>:
 * Return         : None.
 *******************************************************************************/
void interrupts(void)
{
  //Only enable the interrupts that are exposed to the user
  hal_interrupt_enable_all();
 23fe194:	f7fe bdf2 	b.w	23fcd7c <hal_interrupt_enable_all>

023fe198 <_ZN11USARTSerialD1Ev>:
private:
  hal_usart_interface_t _serial;
  bool _blocking;
public:
  USARTSerial(hal_usart_interface_t serial, const hal_usart_buffer_config_t& config);
  virtual ~USARTSerial() {};
 23fe198:	4770      	bx	lr

023fe19a <_ZN11USARTSerial14blockOnOverrunEb>:
    hal_usart_half_duplex(_serial, Enable);
}

void USARTSerial::blockOnOverrun(bool block)
{
  _blocking = block;
 23fe19a:	7441      	strb	r1, [r0, #17]
}
 23fe19c:	4770      	bx	lr

023fe19e <_ZN11USARTSerial17availableForWriteEv>:


int USARTSerial::availableForWrite(void)
{
 23fe19e:	b508      	push	{r3, lr}
  return std::max(0, (int)hal_usart_available_data_for_write(_serial));
 23fe1a0:	7c00      	ldrb	r0, [r0, #16]
 23fe1a2:	f7fe fee7 	bl	23fcf74 <hal_usart_available_data_for_write>
}
 23fe1a6:	ea20 70e0 	bic.w	r0, r0, r0, asr #31
 23fe1aa:	bd08      	pop	{r3, pc}

023fe1ac <_ZN11USARTSerial9availableEv>:

int USARTSerial::available(void)
{
 23fe1ac:	b508      	push	{r3, lr}
  return std::max(0, (int)hal_usart_available(_serial));
 23fe1ae:	7c00      	ldrb	r0, [r0, #16]
 23fe1b0:	f7fe fe9a 	bl	23fcee8 <hal_usart_available>
}
 23fe1b4:	ea20 70e0 	bic.w	r0, r0, r0, asr #31
 23fe1b8:	bd08      	pop	{r3, pc}

023fe1ba <_ZN11USARTSerial4peekEv>:

int USARTSerial::peek(void)
{
 23fe1ba:	b508      	push	{r3, lr}
  return std::max(-1, (int)hal_usart_peek(_serial));
 23fe1bc:	7c00      	ldrb	r0, [r0, #16]
 23fe1be:	f7fe feaf 	bl	23fcf20 <hal_usart_peek>
}
 23fe1c2:	ea40 70e0 	orr.w	r0, r0, r0, asr #31
 23fe1c6:	bd08      	pop	{r3, pc}

023fe1c8 <_ZN11USARTSerial4readEv>:

int USARTSerial::read(void)
{
 23fe1c8:	b508      	push	{r3, lr}
  return std::max(-1, (int)hal_usart_read(_serial));
 23fe1ca:	7c00      	ldrb	r0, [r0, #16]
 23fe1cc:	f7fe fe9a 	bl	23fcf04 <hal_usart_read>
}
 23fe1d0:	ea40 70e0 	orr.w	r0, r0, r0, asr #31
 23fe1d4:	bd08      	pop	{r3, pc}

023fe1d6 <_ZN11USARTSerial5flushEv>:

void USARTSerial::flush()
{
  hal_usart_flush(_serial);
 23fe1d6:	7c00      	ldrb	r0, [r0, #16]
 23fe1d8:	f7fe beb0 	b.w	23fcf3c <hal_usart_flush>

023fe1dc <_ZN11USARTSerial5writeEh>:
}

size_t USARTSerial::write(uint8_t c)
{
 23fe1dc:	b537      	push	{r0, r1, r2, r4, r5, lr}
  // attempt a write if blocking, or for non-blocking if there is room.
  if (_blocking || hal_usart_available_data_for_write(_serial) > 0) {
 23fe1de:	7c45      	ldrb	r5, [r0, #17]
{
 23fe1e0:	4604      	mov	r4, r0
  if (_blocking || hal_usart_available_data_for_write(_serial) > 0) {
 23fe1e2:	b12d      	cbz	r5, 23fe1f0 <_ZN11USARTSerial5writeEh+0x14>
    // the HAL always blocks.
	  return hal_usart_write(_serial, c);
 23fe1e4:	7c20      	ldrb	r0, [r4, #16]
  }
  return 0;
}
 23fe1e6:	b003      	add	sp, #12
 23fe1e8:	e8bd 4030 	ldmia.w	sp!, {r4, r5, lr}
	  return hal_usart_write(_serial, c);
 23fe1ec:	f7fe be6e 	b.w	23fcecc <hal_usart_write>
  if (_blocking || hal_usart_available_data_for_write(_serial) > 0) {
 23fe1f0:	7c00      	ldrb	r0, [r0, #16]
 23fe1f2:	9101      	str	r1, [sp, #4]
 23fe1f4:	f7fe febe 	bl	23fcf74 <hal_usart_available_data_for_write>
 23fe1f8:	2800      	cmp	r0, #0
 23fe1fa:	9901      	ldr	r1, [sp, #4]
 23fe1fc:	dcf2      	bgt.n	23fe1e4 <_ZN11USARTSerial5writeEh+0x8>
}
 23fe1fe:	4628      	mov	r0, r5
 23fe200:	b003      	add	sp, #12
 23fe202:	bd30      	pop	{r4, r5, pc}

023fe204 <_ZN11USARTSerialD0Ev>:
 23fe204:	b510      	push	{r4, lr}
 23fe206:	4604      	mov	r4, r0
 23fe208:	2114      	movs	r1, #20
 23fe20a:	f7fc fc24 	bl	23faa56 <_ZdlPvj>
 23fe20e:	4620      	mov	r0, r4
 23fe210:	bd10      	pop	{r4, pc}
	...

023fe214 <_ZN11USARTSerialC1E21hal_usart_interface_tRK25hal_usart_buffer_config_t>:
USARTSerial::USARTSerial(hal_usart_interface_t serial, const hal_usart_buffer_config_t& config)
 23fe214:	b510      	push	{r4, lr}
 23fe216:	f44f 737a 	mov.w	r3, #1000	; 0x3e8
 23fe21a:	4604      	mov	r4, r0
 23fe21c:	4608      	mov	r0, r1
 23fe21e:	4611      	mov	r1, r2
 23fe220:	2200      	movs	r2, #0
 23fe222:	e9c4 2301 	strd	r2, r3, [r4, #4]
 23fe226:	4b04      	ldr	r3, [pc, #16]	; (23fe238 <_ZN11USARTSerialC1E21hal_usart_interface_tRK25hal_usart_buffer_config_t+0x24>)
  _serial = serial;
 23fe228:	7420      	strb	r0, [r4, #16]
USARTSerial::USARTSerial(hal_usart_interface_t serial, const hal_usart_buffer_config_t& config)
 23fe22a:	6023      	str	r3, [r4, #0]
  _blocking = true;
 23fe22c:	2301      	movs	r3, #1
 23fe22e:	7463      	strb	r3, [r4, #17]
  hal_usart_init_ex(serial, &config, nullptr);
 23fe230:	f7fe febc 	bl	23fcfac <hal_usart_init_ex>
}
 23fe234:	4620      	mov	r0, r4
 23fe236:	bd10      	pop	{r4, pc}
 23fe238:	023ffcd0 	.word	0x023ffcd0

023fe23c <_ZN11USARTSerial5beginEmm>:
  hal_usart_begin_config(_serial, baud, config, nullptr);
 23fe23c:	2300      	movs	r3, #0
 23fe23e:	7c00      	ldrb	r0, [r0, #16]
 23fe240:	f7fe bea6 	b.w	23fcf90 <hal_usart_begin_config>

023fe244 <_ZN11USARTSerial5beginEm>:
  begin(baud, SERIAL_8N1);
 23fe244:	2200      	movs	r2, #0
 23fe246:	f7ff bff9 	b.w	23fe23c <_ZN11USARTSerial5beginEmm>

023fe24a <_ZN11USARTSerial9isEnabledEv>:
USARTSerial::operator bool() {
  return true;
}

bool USARTSerial::isEnabled() {
  return hal_usart_is_enabled(_serial);
 23fe24a:	7c00      	ldrb	r0, [r0, #16]
 23fe24c:	f7fe be84 	b.w	23fcf58 <hal_usart_is_enabled>

023fe250 <_ZN7TwoWireD1Ev>:
private:
  hal_i2c_interface_t _i2c;

public:
  TwoWire(hal_i2c_interface_t i2c, const hal_i2c_config_t& config);
  virtual ~TwoWire() {};
 23fe250:	4770      	bx	lr

023fe252 <_ZN7TwoWire5writeEPKhj>:

// must be called in:
// slave tx event callback
// or after beginTransmission(address)
size_t TwoWire::write(const uint8_t *data, size_t quantity)
{
 23fe252:	b5f8      	push	{r3, r4, r5, r6, r7, lr}
 23fe254:	4606      	mov	r6, r0
 23fe256:	4615      	mov	r5, r2
 23fe258:	460c      	mov	r4, r1
 23fe25a:	188f      	adds	r7, r1, r2
  // in master/slave transmitter mode
  for(size_t i = 0; i < quantity; ++i)
 23fe25c:	42bc      	cmp	r4, r7
 23fe25e:	d006      	beq.n	23fe26e <_ZN7TwoWire5writeEPKhj+0x1c>
  {
    write(data[i]);
 23fe260:	6833      	ldr	r3, [r6, #0]
 23fe262:	4630      	mov	r0, r6
 23fe264:	689b      	ldr	r3, [r3, #8]
 23fe266:	f814 1b01 	ldrb.w	r1, [r4], #1
 23fe26a:	4798      	blx	r3
  for(size_t i = 0; i < quantity; ++i)
 23fe26c:	e7f6      	b.n	23fe25c <_ZN7TwoWire5writeEPKhj+0xa>
  }

  return quantity;
}
 23fe26e:	4628      	mov	r0, r5
 23fe270:	bdf8      	pop	{r3, r4, r5, r6, r7, pc}

023fe272 <_ZN7TwoWire5writeEh>:
  return hal_i2c_write(_i2c, data, NULL);
 23fe272:	2200      	movs	r2, #0
 23fe274:	7c00      	ldrb	r0, [r0, #16]
 23fe276:	f7fe bed1 	b.w	23fd01c <hal_i2c_write>

023fe27a <_ZN7TwoWire9availableEv>:
// must be called in:
// slave rx event callback
// or after requestFrom(address, numBytes)
int TwoWire::available(void)
{
  return hal_i2c_available(_i2c, NULL);
 23fe27a:	2100      	movs	r1, #0
 23fe27c:	7c00      	ldrb	r0, [r0, #16]
 23fe27e:	f7fe bedb 	b.w	23fd038 <hal_i2c_available>

023fe282 <_ZN7TwoWire4readEv>:
// must be called in:
// slave rx event callback
// or after requestFrom(address, numBytes)
int TwoWire::read(void)
{
  return hal_i2c_read(_i2c, NULL);
 23fe282:	2100      	movs	r1, #0
 23fe284:	7c00      	ldrb	r0, [r0, #16]
 23fe286:	f7fe bee5 	b.w	23fd054 <hal_i2c_read>

023fe28a <_ZN7TwoWire4peekEv>:
// must be called in:
// slave rx event callback
// or after requestFrom(address, numBytes)
int TwoWire::peek(void)
{
  return hal_i2c_peek(_i2c, NULL);
 23fe28a:	2100      	movs	r1, #0
 23fe28c:	7c00      	ldrb	r0, [r0, #16]
 23fe28e:	f7fe beef 	b.w	23fd070 <hal_i2c_peek>

023fe292 <_ZN7TwoWire5flushEv>:
}

void TwoWire::flush(void)
{
  hal_i2c_flush(_i2c, NULL);
 23fe292:	2100      	movs	r1, #0
 23fe294:	7c00      	ldrb	r0, [r0, #16]
 23fe296:	f7fe bef9 	b.w	23fd08c <hal_i2c_flush>

023fe29a <_ZN7TwoWireD0Ev>:
 23fe29a:	b510      	push	{r4, lr}
 23fe29c:	4604      	mov	r4, r0
 23fe29e:	2114      	movs	r1, #20
 23fe2a0:	f7fc fbd9 	bl	23faa56 <_ZdlPvj>
 23fe2a4:	4620      	mov	r0, r4
 23fe2a6:	bd10      	pop	{r4, pc}

023fe2a8 <_ZNK16WireTransmission9halConfigEv>:
    hal_i2c_transmission_config_t conf = {
 23fe2a8:	2200      	movs	r2, #0
 23fe2aa:	e9c0 2200 	strd	r2, r2, [r0]
 23fe2ae:	2218      	movs	r2, #24
 23fe2b0:	8002      	strh	r2, [r0, #0]
    };
 23fe2b2:	780a      	ldrb	r2, [r1, #0]
 23fe2b4:	7102      	strb	r2, [r0, #4]
 23fe2b6:	684a      	ldr	r2, [r1, #4]
 23fe2b8:	6082      	str	r2, [r0, #8]
 23fe2ba:	68ca      	ldr	r2, [r1, #12]
 23fe2bc:	60c2      	str	r2, [r0, #12]
      .flags = (uint32_t)(stop_ ? HAL_I2C_TRANSMISSION_FLAG_STOP : 0),
 23fe2be:	7a0a      	ldrb	r2, [r1, #8]
 23fe2c0:	6102      	str	r2, [r0, #16]
    };
 23fe2c2:	690a      	ldr	r2, [r1, #16]
 23fe2c4:	6142      	str	r2, [r0, #20]
  }
 23fe2c6:	4770      	bx	lr

023fe2c8 <_ZN7TwoWireC1E19hal_i2c_interface_tRK16hal_i2c_config_t>:
TwoWire::TwoWire(hal_i2c_interface_t i2c, const hal_i2c_config_t& conf)
 23fe2c8:	b538      	push	{r3, r4, r5, lr}
 23fe2ca:	4604      	mov	r4, r0
 23fe2cc:	4615      	mov	r5, r2
 23fe2ce:	f44f 737a 	mov.w	r3, #1000	; 0x3e8
 23fe2d2:	2200      	movs	r2, #0
 23fe2d4:	e9c4 2301 	strd	r2, r3, [r4, #4]
 23fe2d8:	4b09      	ldr	r3, [pc, #36]	; (23fe300 <_ZN7TwoWireC1E19hal_i2c_interface_tRK16hal_i2c_config_t+0x38>)
 23fe2da:	4608      	mov	r0, r1
  _i2c = i2c;
 23fe2dc:	7421      	strb	r1, [r4, #16]
TwoWire::TwoWire(hal_i2c_interface_t i2c, const hal_i2c_config_t& conf)
 23fe2de:	6023      	str	r3, [r4, #0]
  int result = hal_i2c_init(_i2c, &conf);
 23fe2e0:	4629      	mov	r1, r5
 23fe2e2:	f7fe feef 	bl	23fd0c4 <hal_i2c_init>
  if (result == SYSTEM_ERROR_NOT_ENOUGH_DATA && 
 23fe2e6:	30bf      	adds	r0, #191	; 0xbf
 23fe2e8:	d108      	bne.n	23fe2fc <_ZN7TwoWireC1E19hal_i2c_interface_tRK16hal_i2c_config_t+0x34>
      (conf.flags & HAL_I2C_CONFIG_FLAG_FREEABLE)) {
 23fe2ea:	696b      	ldr	r3, [r5, #20]
  if (result == SYSTEM_ERROR_NOT_ENOUGH_DATA && 
 23fe2ec:	07db      	lsls	r3, r3, #31
 23fe2ee:	d505      	bpl.n	23fe2fc <_ZN7TwoWireC1E19hal_i2c_interface_tRK16hal_i2c_config_t+0x34>
    free(conf.rx_buffer);
 23fe2f0:	6868      	ldr	r0, [r5, #4]
 23fe2f2:	f7ff f9f7 	bl	23fd6e4 <free>
    free(conf.tx_buffer);
 23fe2f6:	68e8      	ldr	r0, [r5, #12]
 23fe2f8:	f7ff f9f4 	bl	23fd6e4 <free>
}
 23fe2fc:	4620      	mov	r0, r4
 23fe2fe:	bd38      	pop	{r3, r4, r5, pc}
 23fe300:	023ffd04 	.word	0x023ffd04

023fe304 <_ZN7TwoWire5beginEv>:
	hal_i2c_begin(_i2c, I2C_MODE_MASTER, 0x00, NULL);
 23fe304:	2300      	movs	r3, #0
 23fe306:	7c00      	ldrb	r0, [r0, #16]
 23fe308:	461a      	mov	r2, r3
 23fe30a:	4619      	mov	r1, r3
 23fe30c:	f7fe be5c 	b.w	23fcfc8 <hal_i2c_begin>

023fe310 <_ZN7TwoWire11requestFromERK16WireTransmission>:
size_t TwoWire::requestFrom(const WireTransmission& transfer) {
 23fe310:	b510      	push	{r4, lr}
 23fe312:	4604      	mov	r4, r0
 23fe314:	b086      	sub	sp, #24
  auto conf = transfer.halConfig();
 23fe316:	4668      	mov	r0, sp
 23fe318:	f7ff ffc6 	bl	23fe2a8 <_ZNK16WireTransmission9halConfigEv>
  return hal_i2c_request_ex(_i2c, &conf, nullptr);
 23fe31c:	2200      	movs	r2, #0
 23fe31e:	4669      	mov	r1, sp
 23fe320:	7c20      	ldrb	r0, [r4, #16]
 23fe322:	f7fe fedd 	bl	23fd0e0 <hal_i2c_request_ex>
}
 23fe326:	b006      	add	sp, #24
 23fe328:	bd10      	pop	{r4, pc}

023fe32a <_ZN7TwoWire11requestFromEhjh>:
{
 23fe32a:	b57f      	push	{r0, r1, r2, r3, r4, r5, r6, lr}
        buffer_(nullptr) {
 23fe32c:	f88d 1004 	strb.w	r1, [sp, #4]
 23fe330:	2100      	movs	r1, #0
 23fe332:	f04f 0c64 	mov.w	ip, #100	; 0x64
  return requestFrom(WireTransmission(address).quantity(quantity).stop(sendStop));
 23fe336:	1a5b      	subs	r3, r3, r1
 23fe338:	bf18      	it	ne
 23fe33a:	2301      	movne	r3, #1
 23fe33c:	e9cd c104 	strd	ip, r1, [sp, #16]
 23fe340:	a901      	add	r1, sp, #4
    size_ = size;
 23fe342:	9202      	str	r2, [sp, #8]
 23fe344:	f88d 300c 	strb.w	r3, [sp, #12]
 23fe348:	f7ff ffe2 	bl	23fe310 <_ZN7TwoWire11requestFromERK16WireTransmission>
}
 23fe34c:	b007      	add	sp, #28
 23fe34e:	f85d fb04 	ldr.w	pc, [sp], #4

023fe352 <_ZN7TwoWire11requestFromEhj>:
  return requestFrom(address, quantity, (uint8_t)true);
 23fe352:	2301      	movs	r3, #1
 23fe354:	f7ff bfe9 	b.w	23fe32a <_ZN7TwoWire11requestFromEhjh>

023fe358 <_ZN7TwoWire17beginTransmissionEh>:
	hal_i2c_begin_transmission(_i2c, address, NULL);
 23fe358:	2200      	movs	r2, #0
 23fe35a:	7c00      	ldrb	r0, [r0, #16]
 23fe35c:	f7fe be42 	b.w	23fcfe4 <hal_i2c_begin_transmission>

023fe360 <_ZN7TwoWire17beginTransmissionEi>:
  beginTransmission((uint8_t)address);
 23fe360:	b2c9      	uxtb	r1, r1
 23fe362:	f7ff bff9 	b.w	23fe358 <_ZN7TwoWire17beginTransmissionEh>

023fe366 <_ZN7TwoWire15endTransmissionEh>:
	return hal_i2c_end_transmission(_i2c, sendStop, NULL);
 23fe366:	2200      	movs	r2, #0
 23fe368:	7c00      	ldrb	r0, [r0, #16]
 23fe36a:	f7fe be49 	b.w	23fd000 <hal_i2c_end_transmission>

023fe36e <_ZN7TwoWire15endTransmissionEv>:
  return endTransmission(true);
 23fe36e:	2101      	movs	r1, #1
 23fe370:	f7ff bff9 	b.w	23fe366 <_ZN7TwoWire15endTransmissionEh>

023fe374 <_GLOBAL__sub_I__ZN7TwoWireC2E19hal_i2c_interface_tRK16hal_i2c_config_t>:
        buffer_(nullptr) {
 23fe374:	21ff      	movs	r1, #255	; 0xff
 23fe376:	2200      	movs	r2, #0
      : address_{address},
 23fe378:	4b04      	ldr	r3, [pc, #16]	; (23fe38c <_GLOBAL__sub_I__ZN7TwoWireC2E19hal_i2c_interface_tRK16hal_i2c_config_t+0x18>)
        buffer_(nullptr) {
 23fe37a:	2001      	movs	r0, #1
 23fe37c:	e9c3 1200 	strd	r1, r2, [r3]
 23fe380:	2164      	movs	r1, #100	; 0x64
 23fe382:	611a      	str	r2, [r3, #16]
 23fe384:	e9c3 0102 	strd	r0, r1, [r3, #8]

namespace particle {
namespace detail {
const WireTransmission WIRE_INVALID_TRANSMISSION(0xff);
} // detail
} // particle
 23fe388:	4770      	bx	lr
 23fe38a:	bf00      	nop
 23fe38c:	1007aee0 	.word	0x1007aee0

023fe390 <_ZN9TCPClient5writeEh>:
    done.dismiss();

    return 1; // success
}

size_t TCPClient::write(uint8_t b) {
 23fe390:	b513      	push	{r0, r1, r4, lr}
    return write(&b, 1, SOCKET_WAIT_FOREVER);
 23fe392:	6803      	ldr	r3, [r0, #0]
size_t TCPClient::write(uint8_t b) {
 23fe394:	f88d 1007 	strb.w	r1, [sp, #7]
    return write(&b, 1, SOCKET_WAIT_FOREVER);
 23fe398:	6c1c      	ldr	r4, [r3, #64]	; 0x40
 23fe39a:	2201      	movs	r2, #1
 23fe39c:	f04f 33ff 	mov.w	r3, #4294967295
 23fe3a0:	f10d 0107 	add.w	r1, sp, #7
 23fe3a4:	47a0      	blx	r4
}
 23fe3a6:	b002      	add	sp, #8
 23fe3a8:	bd10      	pop	{r4, pc}

023fe3aa <_ZN9TCPClient5writeEPKhj>:

size_t TCPClient::write(const uint8_t *buffer, size_t size) {
 23fe3aa:	b410      	push	{r4}
    return write(buffer, size, SOCKET_WAIT_FOREVER);
 23fe3ac:	6803      	ldr	r3, [r0, #0]
 23fe3ae:	6c1c      	ldr	r4, [r3, #64]	; 0x40
 23fe3b0:	f04f 33ff 	mov.w	r3, #4294967295
 23fe3b4:	46a4      	mov	ip, r4
}
 23fe3b6:	f85d 4b04 	ldr.w	r4, [sp], #4
    return write(buffer, size, SOCKET_WAIT_FOREVER);
 23fe3ba:	4760      	bx	ip

023fe3bc <_ZN9TCPClient5writeEhm>:

size_t TCPClient::write(uint8_t b, system_tick_t timeout) {
 23fe3bc:	b513      	push	{r0, r1, r4, lr}
 23fe3be:	4613      	mov	r3, r2
    return write(&b, 1, timeout);
 23fe3c0:	6802      	ldr	r2, [r0, #0]
size_t TCPClient::write(uint8_t b, system_tick_t timeout) {
 23fe3c2:	f88d 1007 	strb.w	r1, [sp, #7]
    return write(&b, 1, timeout);
 23fe3c6:	6c14      	ldr	r4, [r2, #64]	; 0x40
 23fe3c8:	f10d 0107 	add.w	r1, sp, #7
 23fe3cc:	2201      	movs	r2, #1
 23fe3ce:	47a0      	blx	r4
}
 23fe3d0:	b002      	add	sp, #8
 23fe3d2:	bd10      	pop	{r4, pc}

023fe3d4 <_ZN9TCPClient4readEv>:
    } // isOpen(d_->sock)
    avail = bufferCount();
    return avail;
}

int TCPClient::read() {
 23fe3d4:	b510      	push	{r4, lr}
        { __shared_ptr(__p, std::move(__d), std::move(__a)).swap(*this); }

      /// Return the stored pointer.
      element_type*
      get() const noexcept
      { return _M_ptr; }
 23fe3d6:	6943      	ldr	r3, [r0, #20]
 23fe3d8:	4604      	mov	r4, r0
    return (bufferCount() || available()) ? d_->buffer[d_->offset++] : -1;
 23fe3da:	f8b3 2086 	ldrh.w	r2, [r3, #134]	; 0x86
 23fe3de:	f8b3 3084 	ldrh.w	r3, [r3, #132]	; 0x84
 23fe3e2:	429a      	cmp	r2, r3
 23fe3e4:	d008      	beq.n	23fe3f8 <_ZN9TCPClient4readEv+0x24>
 23fe3e6:	6963      	ldr	r3, [r4, #20]
 23fe3e8:	f8b3 2084 	ldrh.w	r2, [r3, #132]	; 0x84
 23fe3ec:	1c51      	adds	r1, r2, #1
 23fe3ee:	f8a3 1084 	strh.w	r1, [r3, #132]	; 0x84
 23fe3f2:	4413      	add	r3, r2
 23fe3f4:	7918      	ldrb	r0, [r3, #4]
}
 23fe3f6:	bd10      	pop	{r4, pc}
    return (bufferCount() || available()) ? d_->buffer[d_->offset++] : -1;
 23fe3f8:	6803      	ldr	r3, [r0, #0]
 23fe3fa:	691b      	ldr	r3, [r3, #16]
 23fe3fc:	4798      	blx	r3
 23fe3fe:	2800      	cmp	r0, #0
 23fe400:	d1f1      	bne.n	23fe3e6 <_ZN9TCPClient4readEv+0x12>
 23fe402:	f04f 30ff 	mov.w	r0, #4294967295
 23fe406:	e7f6      	b.n	23fe3f6 <_ZN9TCPClient4readEv+0x22>

023fe408 <_ZN9TCPClient5flushEv>:
    d_->offset = 0;
    d_->total = 0;
}

void TCPClient::flush() {
}
 23fe408:	4770      	bx	lr

023fe40a <_ZN9TCPClientcvbEv>:
    }
    return rv;
}

uint8_t TCPClient::status() {
    return (isOpen(d_->sock));
 23fe40a:	6943      	ldr	r3, [r0, #20]
    return socket_handle_valid(sd);
 23fe40c:	6818      	ldr	r0, [r3, #0]
}

TCPClient::operator bool() {
   return (status() != 0);
}
 23fe40e:	43c0      	mvns	r0, r0
 23fe410:	0fc0      	lsrs	r0, r0, #31
 23fe412:	4770      	bx	lr

023fe414 <_ZNSt23_Sp_counted_ptr_inplaceIN9TCPClient4DataESaIS1_ELN9__gnu_cxx12_Lock_policyE0EED1Ev>:
      ~_Sp_counted_ptr_inplace() noexcept { }
 23fe414:	4770      	bx	lr
	...

023fe418 <_ZNSt23_Sp_counted_ptr_inplaceIN9TCPClient4DataESaIS1_ELN9__gnu_cxx12_Lock_policyE0EE14_M_get_deleterERKSt9type_info>:
	    ||
 23fe418:	4b06      	ldr	r3, [pc, #24]	; (23fe434 <_ZNSt23_Sp_counted_ptr_inplaceIN9TCPClient4DataESaIS1_ELN9__gnu_cxx12_Lock_policyE0EE14_M_get_deleterERKSt9type_info+0x1c>)
      _M_get_deleter(const std::type_info& __ti) noexcept override
 23fe41a:	b510      	push	{r4, lr}
	    ||
 23fe41c:	4299      	cmp	r1, r3
      __aligned_buffer(std::nullptr_t) { }

      void*
      _M_addr() noexcept
      {
        return static_cast<void*>(&_M_storage);
 23fe41e:	f100 040c 	add.w	r4, r0, #12
 23fe422:	d005      	beq.n	23fe430 <_ZNSt23_Sp_counted_ptr_inplaceIN9TCPClient4DataESaIS1_ELN9__gnu_cxx12_Lock_policyE0EE14_M_get_deleterERKSt9type_info+0x18>
	    _Sp_make_shared_tag::_S_eq(__ti)
 23fe424:	4608      	mov	r0, r1
 23fe426:	f000 fd29 	bl	23fee7c <_ZNSt19_Sp_make_shared_tag5_S_eqERKSt9type_info>
	return nullptr;
 23fe42a:	2800      	cmp	r0, #0
 23fe42c:	bf08      	it	eq
 23fe42e:	2400      	moveq	r4, #0
      }
 23fe430:	4620      	mov	r0, r4
 23fe432:	bd10      	pop	{r4, pc}
 23fe434:	023ffc58 	.word	0x023ffc58

023fe438 <_ZNSt23_Sp_counted_ptr_inplaceIN9TCPClient4DataESaIS1_ELN9__gnu_cxx12_Lock_policyE0EED0Ev>:
      ~_Sp_counted_ptr_inplace() noexcept { }
 23fe438:	b510      	push	{r4, lr}
 23fe43a:	4604      	mov	r4, r0
 23fe43c:	21ac      	movs	r1, #172	; 0xac
 23fe43e:	f7fc fb0a 	bl	23faa56 <_ZdlPvj>
 23fe442:	4620      	mov	r0, r4
 23fe444:	bd10      	pop	{r4, pc}

023fe446 <_ZNSt23_Sp_counted_ptr_inplaceIN9TCPClient4DataESaIS1_ELN9__gnu_cxx12_Lock_policyE0EE10_M_destroyEv>:
# endif
			      std::align_val_t(alignof(_Tp)));
	    return;
	  }
#endif
	::operator delete(__p
 23fe446:	21ac      	movs	r1, #172	; 0xac
 23fe448:	f7fc bb05 	b.w	23faa56 <_ZdlPvj>

023fe44c <_ZN9TCPClient5writeEPKhjm>:
size_t TCPClient::write(const uint8_t *buffer, size_t size, system_tick_t timeout) {
 23fe44c:	e92d 41f0 	stmdb	sp!, {r4, r5, r6, r7, r8, lr}
    void setWriteError(int err = 1) { write_error = err; }
 23fe450:	f04f 0800 	mov.w	r8, #0
 23fe454:	461c      	mov	r4, r3
 23fe456:	b086      	sub	sp, #24
 23fe458:	f8c0 8004 	str.w	r8, [r0, #4]
 23fe45c:	4605      	mov	r5, r0
 23fe45e:	460e      	mov	r6, r1
 23fe460:	4617      	mov	r7, r2
    struct timeval tv = {};
 23fe462:	4641      	mov	r1, r8
 23fe464:	2210      	movs	r2, #16
 23fe466:	a802      	add	r0, sp, #8
 23fe468:	f000 fe2d 	bl	23ff0c6 <memset>
    if (timeout != SOCKET_WAIT_FOREVER) {
 23fe46c:	1c63      	adds	r3, r4, #1
 23fe46e:	d009      	beq.n	23fe484 <_ZN9TCPClient5writeEPKhjm+0x38>
        tv.tv_sec = timeout / 1000;
 23fe470:	f44f 737a 	mov.w	r3, #1000	; 0x3e8
 23fe474:	fbb4 f2f3 	udiv	r2, r4, r3
        tv.tv_usec = (timeout % 1000) * 1000;
 23fe478:	fb03 4412 	mls	r4, r3, r2, r4
 23fe47c:	435c      	muls	r4, r3
        tv.tv_sec = timeout / 1000;
 23fe47e:	e9cd 2802 	strd	r2, r8, [sp, #8]
        tv.tv_usec = (timeout % 1000) * 1000;
 23fe482:	9404      	str	r4, [sp, #16]
    int ret = sock_setsockopt(d_->sock, SOL_SOCKET, SO_SNDTIMEO, &tv, sizeof(tv));
 23fe484:	2310      	movs	r3, #16
 23fe486:	6968      	ldr	r0, [r5, #20]
 23fe488:	9300      	str	r3, [sp, #0]
 23fe48a:	f241 0205 	movw	r2, #4101	; 0x1005
 23fe48e:	f640 71ff 	movw	r1, #4095	; 0xfff
 23fe492:	6800      	ldr	r0, [r0, #0]
 23fe494:	ab02      	add	r3, sp, #8
 23fe496:	f7fe fe31 	bl	23fd0fc <sock_setsockopt>
    if (ret < 0) {
 23fe49a:	2800      	cmp	r0, #0
 23fe49c:	da07      	bge.n	23fe4ae <_ZN9TCPClient5writeEPKhjm+0x62>
        setWriteError(errno);
 23fe49e:	f7ff f959 	bl	23fd754 <__errno>
 23fe4a2:	6803      	ldr	r3, [r0, #0]
        return 0;
 23fe4a4:	2000      	movs	r0, #0
 23fe4a6:	606b      	str	r3, [r5, #4]
}
 23fe4a8:	b006      	add	sp, #24
 23fe4aa:	e8bd 81f0 	ldmia.w	sp!, {r4, r5, r6, r7, r8, pc}
    ret = sock_send(d_->sock, buffer, size, 0);
 23fe4ae:	6968      	ldr	r0, [r5, #20]
 23fe4b0:	2300      	movs	r3, #0
 23fe4b2:	463a      	mov	r2, r7
 23fe4b4:	4631      	mov	r1, r6
 23fe4b6:	6800      	ldr	r0, [r0, #0]
 23fe4b8:	f7fe fe58 	bl	23fd16c <sock_send>
    if (ret < 0) {
 23fe4bc:	1e03      	subs	r3, r0, #0
 23fe4be:	dbee      	blt.n	23fe49e <_ZN9TCPClient5writeEPKhjm+0x52>
    return ret;
 23fe4c0:	4618      	mov	r0, r3
 23fe4c2:	e7f1      	b.n	23fe4a8 <_ZN9TCPClient5writeEPKhjm+0x5c>

023fe4c4 <_ZN9IPAddressaSIPKhEERS_T_.isra.0>:
    IPAddress& operator=(T address) {
 23fe4c4:	b530      	push	{r4, r5, lr}
 23fe4c6:	4604      	mov	r4, r0
 23fe4c8:	b087      	sub	sp, #28
        return *this = IPAddress(address);
 23fe4ca:	4668      	mov	r0, sp
 23fe4cc:	f7ff fd6c 	bl	23fdfa8 <_ZN9IPAddressC1EPKh>
class IPAddress : public Printable {
 23fe4d0:	ad01      	add	r5, sp, #4
 23fe4d2:	3404      	adds	r4, #4
 23fe4d4:	cd0f      	ldmia	r5!, {r0, r1, r2, r3}
 23fe4d6:	c40f      	stmia	r4!, {r0, r1, r2, r3}
 23fe4d8:	682b      	ldr	r3, [r5, #0]
 23fe4da:	7023      	strb	r3, [r4, #0]
    }
 23fe4dc:	b007      	add	sp, #28
 23fe4de:	bd30      	pop	{r4, r5, pc}

023fe4e0 <_ZN9TCPClient8remoteIPEv>:

IPAddress TCPClient::remoteIP() {
 23fe4e0:	b570      	push	{r4, r5, r6, lr}
class IPAddress : public Printable {
 23fe4e2:	4604      	mov	r4, r0
 23fe4e4:	4606      	mov	r6, r0
      { return _M_ptr; }
 23fe4e6:	694d      	ldr	r5, [r1, #20]
 23fe4e8:	4b04      	ldr	r3, [pc, #16]	; (23fe4fc <_ZN9TCPClient8remoteIPEv+0x1c>)
 23fe4ea:	358c      	adds	r5, #140	; 0x8c
 23fe4ec:	f844 3b04 	str.w	r3, [r4], #4
 23fe4f0:	cd0f      	ldmia	r5!, {r0, r1, r2, r3}
 23fe4f2:	c40f      	stmia	r4!, {r0, r1, r2, r3}
 23fe4f4:	682b      	ldr	r3, [r5, #0]
    return d_->remoteIP;
}
 23fe4f6:	4630      	mov	r0, r6
 23fe4f8:	7023      	strb	r3, [r4, #0]
 23fe4fa:	bd70      	pop	{r4, r5, r6, pc}
 23fe4fc:	023ffc88 	.word	0x023ffc88

023fe500 <_ZN9TCPClient7connectEPKctm>:
int TCPClient::connect(const char* host, uint16_t port, network_interface_t nif) {
 23fe500:	e92d 43f0 	stmdb	sp!, {r4, r5, r6, r7, r8, r9, lr}
 23fe504:	460d      	mov	r5, r1
    struct addrinfo* ais = nullptr;
 23fe506:	2400      	movs	r4, #0
int TCPClient::connect(const char* host, uint16_t port, network_interface_t nif) {
 23fe508:	4698      	mov	r8, r3
    stop();
 23fe50a:	6803      	ldr	r3, [r0, #0]
int TCPClient::connect(const char* host, uint16_t port, network_interface_t nif) {
 23fe50c:	b093      	sub	sp, #76	; 0x4c
    stop();
 23fe50e:	6b1b      	ldr	r3, [r3, #48]	; 0x30
int TCPClient::connect(const char* host, uint16_t port, network_interface_t nif) {
 23fe510:	4606      	mov	r6, r0
 23fe512:	4617      	mov	r7, r2
    stop();
 23fe514:	4798      	blx	r3
    CHECK_TRUE(netdb_getaddrinfo(host, nullptr, nullptr, &ais) == 0, 0); // return 0
 23fe516:	4628      	mov	r0, r5
 23fe518:	466b      	mov	r3, sp
 23fe51a:	4622      	mov	r2, r4
 23fe51c:	4621      	mov	r1, r4
    struct addrinfo* ais = nullptr;
 23fe51e:	9400      	str	r4, [sp, #0]
    CHECK_TRUE(netdb_getaddrinfo(host, nullptr, nullptr, &ais) == 0, 0); // return 0
 23fe520:	f7fe fbbc 	bl	23fcc9c <netdb_getaddrinfo>
 23fe524:	4605      	mov	r5, r0
 23fe526:	2800      	cmp	r0, #0
 23fe528:	d163      	bne.n	23fe5f2 <_ZN9TCPClient7connectEPKctm+0xf2>
    if (ais && ais->ai_addr) {
 23fe52a:	9b00      	ldr	r3, [sp, #0]
 23fe52c:	2b00      	cmp	r3, #0
 23fe52e:	d04b      	beq.n	23fe5c8 <_ZN9TCPClient7connectEPKctm+0xc8>
 23fe530:	695b      	ldr	r3, [r3, #20]
 23fe532:	2b00      	cmp	r3, #0
 23fe534:	d048      	beq.n	23fe5c8 <_ZN9TCPClient7connectEPKctm+0xc8>
        IPAddress addr;
 23fe536:	a806      	add	r0, sp, #24
 23fe538:	f7ff fcf2 	bl	23fdf20 <_ZN9IPAddressC1Ev>
        detail::sockaddrToIpAddressPort(ais->ai_addr, addr, nullptr);
 23fe53c:	9b00      	ldr	r3, [sp, #0]
 23fe53e:	695c      	ldr	r4, [r3, #20]
namespace spark {

namespace detail {

inline void sockaddrToIpAddressPort(const struct sockaddr* saddr, IPAddress& addr, uint16_t* port) {
    if (saddr->sa_family == AF_INET) {
 23fe540:	7863      	ldrb	r3, [r4, #1]
 23fe542:	2b02      	cmp	r3, #2
 23fe544:	d104      	bne.n	23fe550 <_ZN9TCPClient7connectEPKctm+0x50>
        const struct sockaddr_in* inaddr = (const struct sockaddr_in*)saddr;
        addr = (const uint8_t*)(&inaddr->sin_addr.s_addr);
 23fe546:	1d21      	adds	r1, r4, #4
            memcpy(a.ipv6, in6addr->sin6_addr.s6_addr, sizeof(a.ipv6));
            a.v = 6;
            addr = IPAddress(a);
        } else {
            auto ptr = (const uint32_t*)(in6addr->sin6_addr.s6_addr);
            addr = (const uint8_t*)(&ptr[3]);
 23fe548:	a806      	add	r0, sp, #24
 23fe54a:	f7ff ffbb 	bl	23fe4c4 <_ZN9IPAddressaSIPKhEERS_T_.isra.0>
        }
        if (port) {
 23fe54e:	e026      	b.n	23fe59e <_ZN9TCPClient7connectEPKctm+0x9e>
    else if (saddr->sa_family == AF_INET6) {
 23fe550:	2b0a      	cmp	r3, #10
 23fe552:	d124      	bne.n	23fe59e <_ZN9TCPClient7connectEPKctm+0x9e>
        HAL_IPAddress a = {};
 23fe554:	2211      	movs	r2, #17
 23fe556:	4629      	mov	r1, r5
 23fe558:	a801      	add	r0, sp, #4
 23fe55a:	f000 fdb4 	bl	23ff0c6 <memset>
        if (!IN6_IS_ADDR_V4MAPPED(&in6addr->sin6_addr)) {
 23fe55e:	68a3      	ldr	r3, [r4, #8]
 23fe560:	2b00      	cmp	r3, #0
 23fe562:	d038      	beq.n	23fe5d6 <_ZN9TCPClient7connectEPKctm+0xd6>
            memcpy(a.ipv6, in6addr->sin6_addr.s6_addr, sizeof(a.ipv6));
 23fe564:	f104 0308 	add.w	r3, r4, #8
 23fe568:	f10d 0c04 	add.w	ip, sp, #4
 23fe56c:	3418      	adds	r4, #24
 23fe56e:	4662      	mov	r2, ip
 23fe570:	6818      	ldr	r0, [r3, #0]
 23fe572:	6859      	ldr	r1, [r3, #4]
 23fe574:	3308      	adds	r3, #8
 23fe576:	c203      	stmia	r2!, {r0, r1}
 23fe578:	42a3      	cmp	r3, r4
 23fe57a:	4694      	mov	ip, r2
 23fe57c:	d1f7      	bne.n	23fe56e <_ZN9TCPClient7connectEPKctm+0x6e>
            a.v = 6;
 23fe57e:	2306      	movs	r3, #6
            addr = IPAddress(a);
 23fe580:	a901      	add	r1, sp, #4
 23fe582:	a80c      	add	r0, sp, #48	; 0x30
            a.v = 6;
 23fe584:	f88d 3014 	strb.w	r3, [sp, #20]
 23fe588:	ac07      	add	r4, sp, #28
            addr = IPAddress(a);
 23fe58a:	f7ff fcd7 	bl	23fdf3c <_ZN9IPAddressC1ERK16_HAL_IPAddress_t>
 23fe58e:	f10d 0c34 	add.w	ip, sp, #52	; 0x34
 23fe592:	e8bc 000f 	ldmia.w	ip!, {r0, r1, r2, r3}
 23fe596:	c40f      	stmia	r4!, {r0, r1, r2, r3}
 23fe598:	f8dc 3000 	ldr.w	r3, [ip]
 23fe59c:	7023      	strb	r3, [r4, #0]
        return static_cast<const IPAddress*>(this)->operator bool();
 23fe59e:	a806      	add	r0, sp, #24
 23fe5a0:	f7ff fcde 	bl	23fdf60 <_ZNK9IPAddresscvbEv>
        if (addr) {
 23fe5a4:	b180      	cbz	r0, 23fe5c8 <_ZN9TCPClient7connectEPKctm+0xc8>
            return connect(addr, port, nif);
 23fe5a6:	6833      	ldr	r3, [r6, #0]
class IPAddress : public Printable {
 23fe5a8:	ac0d      	add	r4, sp, #52	; 0x34
 23fe5aa:	f8d3 9024 	ldr.w	r9, [r3, #36]	; 0x24
 23fe5ae:	4b12      	ldr	r3, [pc, #72]	; (23fe5f8 <_ZN9TCPClient7connectEPKctm+0xf8>)
 23fe5b0:	ad07      	add	r5, sp, #28
 23fe5b2:	930c      	str	r3, [sp, #48]	; 0x30
 23fe5b4:	cd0f      	ldmia	r5!, {r0, r1, r2, r3}
 23fe5b6:	c40f      	stmia	r4!, {r0, r1, r2, r3}
 23fe5b8:	682b      	ldr	r3, [r5, #0]
 23fe5ba:	463a      	mov	r2, r7
 23fe5bc:	7023      	strb	r3, [r4, #0]
 23fe5be:	4630      	mov	r0, r6
 23fe5c0:	4643      	mov	r3, r8
 23fe5c2:	a90c      	add	r1, sp, #48	; 0x30
 23fe5c4:	47c8      	blx	r9
 23fe5c6:	4605      	mov	r5, r0
    SCOPE_GUARD({
 23fe5c8:	9800      	ldr	r0, [sp, #0]
 23fe5ca:	f7fe fb59 	bl	23fcc80 <netdb_freeaddrinfo>
}
 23fe5ce:	4628      	mov	r0, r5
 23fe5d0:	b013      	add	sp, #76	; 0x4c
 23fe5d2:	e8bd 83f0 	ldmia.w	sp!, {r4, r5, r6, r7, r8, r9, pc}
        if (!IN6_IS_ADDR_V4MAPPED(&in6addr->sin6_addr)) {
 23fe5d6:	68e3      	ldr	r3, [r4, #12]
 23fe5d8:	2b00      	cmp	r3, #0
 23fe5da:	d1c3      	bne.n	23fe564 <_ZN9TCPClient7connectEPKctm+0x64>
 23fe5dc:	f64f 70ff 	movw	r0, #65535	; 0xffff
 23fe5e0:	f8d4 9010 	ldr.w	r9, [r4, #16]
 23fe5e4:	f7fe fc56 	bl	23fce94 <inet_htonl>
 23fe5e8:	4581      	cmp	r9, r0
 23fe5ea:	d1bb      	bne.n	23fe564 <_ZN9TCPClient7connectEPKctm+0x64>
            addr = (const uint8_t*)(&ptr[3]);
 23fe5ec:	f104 0114 	add.w	r1, r4, #20
 23fe5f0:	e7aa      	b.n	23fe548 <_ZN9TCPClient7connectEPKctm+0x48>
    CHECK_TRUE(netdb_getaddrinfo(host, nullptr, nullptr, &ais) == 0, 0); // return 0
 23fe5f2:	4625      	mov	r5, r4
 23fe5f4:	e7e8      	b.n	23fe5c8 <_ZN9TCPClient7connectEPKctm+0xc8>
 23fe5f6:	bf00      	nop
 23fe5f8:	023ffc88 	.word	0x023ffc88

023fe5fc <_ZN9TCPClient9connectedEv>:
uint8_t TCPClient::connected() {
 23fe5fc:	b538      	push	{r3, r4, r5, lr}
 23fe5fe:	6943      	ldr	r3, [r0, #20]
 23fe600:	4605      	mov	r5, r0
    bool rv = (status() || bufferCount());
 23fe602:	681a      	ldr	r2, [r3, #0]
 23fe604:	2a00      	cmp	r2, #0
 23fe606:	da10      	bge.n	23fe62a <_ZN9TCPClient9connectedEv+0x2e>
 23fe608:	f8b3 2086 	ldrh.w	r2, [r3, #134]	; 0x86
 23fe60c:	f8b3 3084 	ldrh.w	r3, [r3, #132]	; 0x84
 23fe610:	429a      	cmp	r2, r3
 23fe612:	d10a      	bne.n	23fe62a <_ZN9TCPClient9connectedEv+0x2e>
        rv = available();
 23fe614:	6803      	ldr	r3, [r0, #0]
 23fe616:	691b      	ldr	r3, [r3, #16]
 23fe618:	4798      	blx	r3
        if (!rv) {
 23fe61a:	4604      	mov	r4, r0
 23fe61c:	b928      	cbnz	r0, 23fe62a <_ZN9TCPClient9connectedEv+0x2e>
            stop();
 23fe61e:	682b      	ldr	r3, [r5, #0]
 23fe620:	4628      	mov	r0, r5
 23fe622:	6b1b      	ldr	r3, [r3, #48]	; 0x30
 23fe624:	4798      	blx	r3
        rv = available();
 23fe626:	4620      	mov	r0, r4
}
 23fe628:	bd38      	pop	{r3, r4, r5, pc}
        rv = available();
 23fe62a:	2001      	movs	r0, #1
 23fe62c:	e7fc      	b.n	23fe628 <_ZN9TCPClient9connectedEv+0x2c>

023fe62e <_ZN9TCPClient4peekEv>:
int TCPClient::peek() {
 23fe62e:	b510      	push	{r4, lr}
 23fe630:	6943      	ldr	r3, [r0, #20]
 23fe632:	4604      	mov	r4, r0
    return (bufferCount() || available()) ? d_->buffer[d_->offset] : -1;
 23fe634:	f8b3 2086 	ldrh.w	r2, [r3, #134]	; 0x86
 23fe638:	f8b3 3084 	ldrh.w	r3, [r3, #132]	; 0x84
 23fe63c:	429a      	cmp	r2, r3
 23fe63e:	d005      	beq.n	23fe64c <_ZN9TCPClient4peekEv+0x1e>
 23fe640:	6963      	ldr	r3, [r4, #20]
 23fe642:	f8b3 2084 	ldrh.w	r2, [r3, #132]	; 0x84
 23fe646:	4413      	add	r3, r2
 23fe648:	7918      	ldrb	r0, [r3, #4]
}
 23fe64a:	bd10      	pop	{r4, pc}
    return (bufferCount() || available()) ? d_->buffer[d_->offset] : -1;
 23fe64c:	6803      	ldr	r3, [r0, #0]
 23fe64e:	691b      	ldr	r3, [r3, #16]
 23fe650:	4798      	blx	r3
 23fe652:	2800      	cmp	r0, #0
 23fe654:	d1f4      	bne.n	23fe640 <_ZN9TCPClient4peekEv+0x12>
 23fe656:	f04f 30ff 	mov.w	r0, #4294967295
 23fe65a:	e7f6      	b.n	23fe64a <_ZN9TCPClient4peekEv+0x1c>

023fe65c <_ZN9TCPClient4readEPhj>:
int TCPClient::read(uint8_t *buffer, size_t size) {
 23fe65c:	b5f8      	push	{r3, r4, r5, r6, r7, lr}
 23fe65e:	6943      	ldr	r3, [r0, #20]
 23fe660:	4617      	mov	r7, r2
    if (bufferCount() || available()) {
 23fe662:	f8b3 2086 	ldrh.w	r2, [r3, #134]	; 0x86
 23fe666:	f8b3 3084 	ldrh.w	r3, [r3, #132]	; 0x84
int TCPClient::read(uint8_t *buffer, size_t size) {
 23fe66a:	4605      	mov	r5, r0
    if (bufferCount() || available()) {
 23fe66c:	429a      	cmp	r2, r3
int TCPClient::read(uint8_t *buffer, size_t size) {
 23fe66e:	460e      	mov	r6, r1
    if (bufferCount() || available()) {
 23fe670:	d016      	beq.n	23fe6a0 <_ZN9TCPClient4readEPhj+0x44>
 23fe672:	6969      	ldr	r1, [r5, #20]
        memcpy(buffer, &d_->buffer[d_->offset], read);
 23fe674:	4630      	mov	r0, r6
    return d_->total - d_->offset;
 23fe676:	f8b1 3084 	ldrh.w	r3, [r1, #132]	; 0x84
 23fe67a:	f8b1 4086 	ldrh.w	r4, [r1, #134]	; 0x86
 23fe67e:	1ae4      	subs	r4, r4, r3
        read = (size > (size_t) bufferCount()) ? bufferCount() : size;
 23fe680:	42bc      	cmp	r4, r7
 23fe682:	bf28      	it	cs
 23fe684:	463c      	movcs	r4, r7
        memcpy(buffer, &d_->buffer[d_->offset], read);
 23fe686:	3304      	adds	r3, #4
 23fe688:	4622      	mov	r2, r4
 23fe68a:	4419      	add	r1, r3
 23fe68c:	f000 fd0e 	bl	23ff0ac <memcpy>
 23fe690:	696a      	ldr	r2, [r5, #20]
        d_->offset += read;
 23fe692:	f8b2 3084 	ldrh.w	r3, [r2, #132]	; 0x84
 23fe696:	4423      	add	r3, r4
 23fe698:	f8a2 3084 	strh.w	r3, [r2, #132]	; 0x84
}
 23fe69c:	4620      	mov	r0, r4
 23fe69e:	bdf8      	pop	{r3, r4, r5, r6, r7, pc}
    if (bufferCount() || available()) {
 23fe6a0:	6803      	ldr	r3, [r0, #0]
 23fe6a2:	691b      	ldr	r3, [r3, #16]
 23fe6a4:	4798      	blx	r3
 23fe6a6:	2800      	cmp	r0, #0
 23fe6a8:	d1e3      	bne.n	23fe672 <_ZN9TCPClient4readEPhj+0x16>
    int read = -1;
 23fe6aa:	f04f 34ff 	mov.w	r4, #4294967295
 23fe6ae:	e7f5      	b.n	23fe69c <_ZN9TCPClient4readEPhj+0x40>

023fe6b0 <_ZN9TCPClient12flush_bufferEv>:
    d_->offset = 0;
 23fe6b0:	2300      	movs	r3, #0
 23fe6b2:	6942      	ldr	r2, [r0, #20]
 23fe6b4:	f8a2 3084 	strh.w	r3, [r2, #132]	; 0x84
 23fe6b8:	6942      	ldr	r2, [r0, #20]
    d_->total = 0;
 23fe6ba:	f8a2 3086 	strh.w	r3, [r2, #134]	; 0x86
}
 23fe6be:	4770      	bx	lr

023fe6c0 <_ZN9TCPClient7connectE9IPAddresstm>:
int TCPClient::connect(IPAddress ip, uint16_t port, network_interface_t nif) {
 23fe6c0:	b5f0      	push	{r4, r5, r6, r7, lr}
 23fe6c2:	460c      	mov	r4, r1
 23fe6c4:	461f      	mov	r7, r3
    stop();
 23fe6c6:	6803      	ldr	r3, [r0, #0]
int TCPClient::connect(IPAddress ip, uint16_t port, network_interface_t nif) {
 23fe6c8:	b08b      	sub	sp, #44	; 0x2c
    stop();
 23fe6ca:	6b1b      	ldr	r3, [r3, #48]	; 0x30
int TCPClient::connect(IPAddress ip, uint16_t port, network_interface_t nif) {
 23fe6cc:	4605      	mov	r5, r0
 23fe6ce:	4616      	mov	r6, r2
    stop();
 23fe6d0:	4798      	blx	r3
    d_->sock = sock_socket(ip.version() == 4 ? AF_INET : AF_INET6, SOCK_STREAM, IPPROTO_TCP);
 23fe6d2:	7d23      	ldrb	r3, [r4, #20]
 23fe6d4:	2206      	movs	r2, #6
 23fe6d6:	2b04      	cmp	r3, #4
 23fe6d8:	bf0c      	ite	eq
 23fe6da:	2002      	moveq	r0, #2
 23fe6dc:	200a      	movne	r0, #10
 23fe6de:	2101      	movs	r1, #1
 23fe6e0:	f7fe fd52 	bl	23fd188 <sock_socket>
 23fe6e4:	696b      	ldr	r3, [r5, #20]
 23fe6e6:	6018      	str	r0, [r3, #0]
    CHECK_TRUE(d_->sock >= 0, 0); // return 0
 23fe6e8:	696b      	ldr	r3, [r5, #20]
 23fe6ea:	681b      	ldr	r3, [r3, #0]
 23fe6ec:	2b00      	cmp	r3, #0
 23fe6ee:	da07      	bge.n	23fe700 <_ZN9TCPClient7connectE9IPAddresstm+0x40>
    NAMED_SCOPE_GUARD(done, {
 23fe6f0:	682b      	ldr	r3, [r5, #0]
 23fe6f2:	4628      	mov	r0, r5
 23fe6f4:	6b1b      	ldr	r3, [r3, #48]	; 0x30
        CHECK_TRUE(if_index_to_name(nif, ifr.ifr_name) == 0, 0); // return 0
 23fe6f6:	2400      	movs	r4, #0
    NAMED_SCOPE_GUARD(done, {
 23fe6f8:	4798      	blx	r3
}
 23fe6fa:	4620      	mov	r0, r4
 23fe6fc:	b00b      	add	sp, #44	; 0x2c
 23fe6fe:	bdf0      	pop	{r4, r5, r6, r7, pc}
    flush_buffer();
 23fe700:	4628      	mov	r0, r5
 23fe702:	f7ff ffd5 	bl	23fe6b0 <_ZN9TCPClient12flush_bufferEv>
    if (nif != 0) {
 23fe706:	b1b7      	cbz	r7, 23fe736 <_ZN9TCPClient7connectE9IPAddresstm+0x76>
        struct ifreq ifr = {};
 23fe708:	2300      	movs	r3, #0
        CHECK_TRUE(if_index_to_name(nif, ifr.ifr_name) == 0, 0); // return 0
 23fe70a:	a903      	add	r1, sp, #12
 23fe70c:	b2f8      	uxtb	r0, r7
        struct ifreq ifr = {};
 23fe70e:	9303      	str	r3, [sp, #12]
 23fe710:	f8ad 3010 	strh.w	r3, [sp, #16]
        CHECK_TRUE(if_index_to_name(nif, ifr.ifr_name) == 0, 0); // return 0
 23fe714:	f7fe fb4e 	bl	23fcdb4 <if_index_to_name>
 23fe718:	2800      	cmp	r0, #0
 23fe71a:	d1e9      	bne.n	23fe6f0 <_ZN9TCPClient7connectE9IPAddresstm+0x30>
        CHECK_TRUE(sock_setsockopt(d_->sock, SOL_SOCKET, SO_BINDTODEVICE, &ifr, sizeof(ifr)) == 0, 0); // return 0
 23fe71c:	2306      	movs	r3, #6
 23fe71e:	6968      	ldr	r0, [r5, #20]
 23fe720:	9300      	str	r3, [sp, #0]
 23fe722:	f241 020b 	movw	r2, #4107	; 0x100b
 23fe726:	f640 71ff 	movw	r1, #4095	; 0xfff
 23fe72a:	6800      	ldr	r0, [r0, #0]
 23fe72c:	ab03      	add	r3, sp, #12
 23fe72e:	f7fe fce5 	bl	23fd0fc <sock_setsockopt>
 23fe732:	2800      	cmp	r0, #0
 23fe734:	d1dc      	bne.n	23fe6f0 <_ZN9TCPClient7connectE9IPAddresstm+0x30>
    sockaddr_storage saddr = {};
 23fe736:	221c      	movs	r2, #28
 23fe738:	2100      	movs	r1, #0
 23fe73a:	a803      	add	r0, sp, #12
 23fe73c:	f000 fcc3 	bl	23ff0c6 <memset>
    if (ip.version() == 4) {
 23fe740:	7d23      	ldrb	r3, [r4, #20]
 23fe742:	2b04      	cmp	r3, #4
 23fe744:	d11d      	bne.n	23fe782 <_ZN9TCPClient7connectE9IPAddresstm+0xc2>
        s->sin_len = sizeof(saddr);
 23fe746:	f44f 7307 	mov.w	r3, #540	; 0x21c
        s->sin_port = htons(port);
 23fe74a:	4630      	mov	r0, r6
        s->sin_len = sizeof(saddr);
 23fe74c:	f8ad 300c 	strh.w	r3, [sp, #12]
        s->sin_port = htons(port);
 23fe750:	f7fe fbae 	bl	23fceb0 <inet_htons>
 23fe754:	f8ad 000e 	strh.w	r0, [sp, #14]
        s->sin_addr.s_addr = htonl(ip.raw().ipv4);
 23fe758:	6860      	ldr	r0, [r4, #4]
 23fe75a:	f7fe fb9b 	bl	23fce94 <inet_htonl>
 23fe75e:	9004      	str	r0, [sp, #16]
    CHECK_TRUE(sock_connect(d_->sock, (const sockaddr*)&saddr, sizeof(saddr)) == 0, 0); // return 0
 23fe760:	696b      	ldr	r3, [r5, #20]
 23fe762:	221c      	movs	r2, #28
 23fe764:	6818      	ldr	r0, [r3, #0]
 23fe766:	a903      	add	r1, sp, #12
 23fe768:	f7fe fce4 	bl	23fd134 <sock_connect>
 23fe76c:	2800      	cmp	r0, #0
 23fe76e:	d1bf      	bne.n	23fe6f0 <_ZN9TCPClient7connectE9IPAddresstm+0x30>
 23fe770:	696d      	ldr	r5, [r5, #20]
 23fe772:	3404      	adds	r4, #4
 23fe774:	358c      	adds	r5, #140	; 0x8c
 23fe776:	cc0f      	ldmia	r4!, {r0, r1, r2, r3}
 23fe778:	c50f      	stmia	r5!, {r0, r1, r2, r3}
 23fe77a:	6823      	ldr	r3, [r4, #0]
    return 1; // success
 23fe77c:	2401      	movs	r4, #1
 23fe77e:	702b      	strb	r3, [r5, #0]
 23fe780:	e7bb      	b.n	23fe6fa <_ZN9TCPClient7connectE9IPAddresstm+0x3a>
        s->sin6_len = sizeof(saddr);
 23fe782:	f640 231c 	movw	r3, #2588	; 0xa1c
        s->sin6_port = htons(port);
 23fe786:	4630      	mov	r0, r6
        s->sin6_len = sizeof(saddr);
 23fe788:	f8ad 300c 	strh.w	r3, [sp, #12]
        s->sin6_port = htons(port);
 23fe78c:	f7fe fb90 	bl	23fceb0 <inet_htons>
        memcpy(s->sin6_addr.s6_addr, ip.raw().ipv6, sizeof(s->sin6_addr.s6_addr));
 23fe790:	ae05      	add	r6, sp, #20
        s->sin6_port = htons(port);
 23fe792:	f8ad 000e 	strh.w	r0, [sp, #14]
        memcpy(s->sin6_addr.s6_addr, ip.raw().ipv6, sizeof(s->sin6_addr.s6_addr));
 23fe796:	1d23      	adds	r3, r4, #4
 23fe798:	f104 0714 	add.w	r7, r4, #20
 23fe79c:	4632      	mov	r2, r6
 23fe79e:	6818      	ldr	r0, [r3, #0]
 23fe7a0:	6859      	ldr	r1, [r3, #4]
 23fe7a2:	3308      	adds	r3, #8
 23fe7a4:	c203      	stmia	r2!, {r0, r1}
 23fe7a6:	42bb      	cmp	r3, r7
 23fe7a8:	4616      	mov	r6, r2
 23fe7aa:	d1f7      	bne.n	23fe79c <_ZN9TCPClient7connectE9IPAddresstm+0xdc>
 23fe7ac:	e7d8      	b.n	23fe760 <_ZN9TCPClient7connectE9IPAddresstm+0xa0>
	...

023fe7b0 <_ZN9TCPClient9availableEv>:
{
 23fe7b0:	b530      	push	{r4, r5, lr}
 23fe7b2:	6942      	ldr	r2, [r0, #20]
 23fe7b4:	4604      	mov	r4, r0
    if (d_->total && (d_->offset == d_->total)) {
 23fe7b6:	f8b2 3086 	ldrh.w	r3, [r2, #134]	; 0x86
{
 23fe7ba:	b08b      	sub	sp, #44	; 0x2c
    if (d_->total && (d_->offset == d_->total)) {
 23fe7bc:	b12b      	cbz	r3, 23fe7ca <_ZN9TCPClient9availableEv+0x1a>
 23fe7be:	f8b2 2084 	ldrh.w	r2, [r2, #132]	; 0x84
 23fe7c2:	429a      	cmp	r2, r3
 23fe7c4:	d101      	bne.n	23fe7ca <_ZN9TCPClient9availableEv+0x1a>
        flush_buffer();
 23fe7c6:	f7ff ff73 	bl	23fe6b0 <_ZN9TCPClient12flush_bufferEv>
 23fe7ca:	6961      	ldr	r1, [r4, #20]
    if (isOpen(d_->sock)) {
 23fe7cc:	6808      	ldr	r0, [r1, #0]
 23fe7ce:	2800      	cmp	r0, #0
 23fe7d0:	db18      	blt.n	23fe804 <_ZN9TCPClient9availableEv+0x54>
        if (d_->total < arraySize(d_->buffer)) {
 23fe7d2:	f8b1 5086 	ldrh.w	r5, [r1, #134]	; 0x86
 23fe7d6:	2d7f      	cmp	r5, #127	; 0x7f
 23fe7d8:	d814      	bhi.n	23fe804 <_ZN9TCPClient9availableEv+0x54>
            int ret = sock_recv(d_->sock, d_->buffer + d_->total, arraySize(d_->buffer) - d_->total, MSG_DONTWAIT);
 23fe7da:	3104      	adds	r1, #4
 23fe7dc:	2308      	movs	r3, #8
 23fe7de:	f1c5 0280 	rsb	r2, r5, #128	; 0x80
 23fe7e2:	4429      	add	r1, r5
 23fe7e4:	f7fe fcb4 	bl	23fd150 <sock_recv>
            if (ret > 0) {
 23fe7e8:	2800      	cmp	r0, #0
 23fe7ea:	dd13      	ble.n	23fe814 <_ZN9TCPClient9availableEv+0x64>
 23fe7ec:	6963      	ldr	r3, [r4, #20]
                if (d_->total == 0) {
 23fe7ee:	f8b3 2086 	ldrh.w	r2, [r3, #134]	; 0x86
 23fe7f2:	b90a      	cbnz	r2, 23fe7f8 <_ZN9TCPClient9availableEv+0x48>
                    d_->offset = 0;
 23fe7f4:	f8a3 2084 	strh.w	r2, [r3, #132]	; 0x84
 23fe7f8:	6963      	ldr	r3, [r4, #20]
                d_->total += ret;
 23fe7fa:	f8b3 2086 	ldrh.w	r2, [r3, #134]	; 0x86
 23fe7fe:	4410      	add	r0, r2
 23fe800:	f8a3 0086 	strh.w	r0, [r3, #134]	; 0x86
 23fe804:	6963      	ldr	r3, [r4, #20]
    return d_->total - d_->offset;
 23fe806:	f8b3 0086 	ldrh.w	r0, [r3, #134]	; 0x86
 23fe80a:	f8b3 3084 	ldrh.w	r3, [r3, #132]	; 0x84
}
 23fe80e:	1ac0      	subs	r0, r0, r3
 23fe810:	b00b      	add	sp, #44	; 0x2c
 23fe812:	bd30      	pop	{r4, r5, pc}
                if (errno != EAGAIN && errno != EWOULDBLOCK) {
 23fe814:	f7fe ff9e 	bl	23fd754 <__errno>
 23fe818:	6803      	ldr	r3, [r0, #0]
 23fe81a:	2b0b      	cmp	r3, #11
 23fe81c:	d0f2      	beq.n	23fe804 <_ZN9TCPClient9availableEv+0x54>
 23fe81e:	f7fe ff99 	bl	23fd754 <__errno>
 23fe822:	6803      	ldr	r3, [r0, #0]
 23fe824:	2b0b      	cmp	r3, #11
 23fe826:	d0ed      	beq.n	23fe804 <_ZN9TCPClient9availableEv+0x54>
                    LOG(ERROR, "recv error = %d", errno);
 23fe828:	2320      	movs	r3, #32
 23fe82a:	2500      	movs	r5, #0
 23fe82c:	e9cd 3502 	strd	r3, r5, [sp, #8]
 23fe830:	f7fe ff90 	bl	23fd754 <__errno>
 23fe834:	6803      	ldr	r3, [r0, #0]
 23fe836:	aa02      	add	r2, sp, #8
 23fe838:	9301      	str	r3, [sp, #4]
 23fe83a:	4b08      	ldr	r3, [pc, #32]	; (23fe85c <_ZN9TCPClient9availableEv+0xac>)
 23fe83c:	2032      	movs	r0, #50	; 0x32
 23fe83e:	4908      	ldr	r1, [pc, #32]	; (23fe860 <_ZN9TCPClient9availableEv+0xb0>)
 23fe840:	9300      	str	r3, [sp, #0]
 23fe842:	462b      	mov	r3, r5
 23fe844:	f7fe fdf0 	bl	23fd428 <log_message>
                    sock_close(d_->sock);
 23fe848:	6963      	ldr	r3, [r4, #20]
 23fe84a:	6818      	ldr	r0, [r3, #0]
 23fe84c:	f7fe fc64 	bl	23fd118 <sock_close>
                    d_->sock = -1;
 23fe850:	f04f 32ff 	mov.w	r2, #4294967295
 23fe854:	6963      	ldr	r3, [r4, #20]
 23fe856:	601a      	str	r2, [r3, #0]
 23fe858:	e7d4      	b.n	23fe804 <_ZN9TCPClient9availableEv+0x54>
 23fe85a:	bf00      	nop
 23fe85c:	023ffd2f 	.word	0x023ffd2f
 23fe860:	023ffd28 	.word	0x023ffd28

023fe864 <_ZN9TCPClient4stopEv>:
void TCPClient::stop() {
 23fe864:	b510      	push	{r4, lr}
    if (isOpen(d_->sock)) {
 23fe866:	6943      	ldr	r3, [r0, #20]
void TCPClient::stop() {
 23fe868:	4604      	mov	r4, r0
    if (isOpen(d_->sock)) {
 23fe86a:	6818      	ldr	r0, [r3, #0]
 23fe86c:	2800      	cmp	r0, #0
 23fe86e:	db01      	blt.n	23fe874 <_ZN9TCPClient4stopEv+0x10>
        sock_close(d_->sock);
 23fe870:	f7fe fc52 	bl	23fd118 <sock_close>
    d_->sock = -1;
 23fe874:	f04f 32ff 	mov.w	r2, #4294967295
 23fe878:	6963      	ldr	r3, [r4, #20]
    void clear() { memset(&address, 0, sizeof (address)); }
 23fe87a:	2100      	movs	r1, #0
 23fe87c:	601a      	str	r2, [r3, #0]
 23fe87e:	6960      	ldr	r0, [r4, #20]
 23fe880:	2211      	movs	r2, #17
 23fe882:	308c      	adds	r0, #140	; 0x8c
 23fe884:	f000 fc1f 	bl	23ff0c6 <memset>
    flush_buffer();
 23fe888:	4620      	mov	r0, r4
}
 23fe88a:	e8bd 4010 	ldmia.w	sp!, {r4, lr}
    flush_buffer();
 23fe88e:	f7ff bf0f 	b.w	23fe6b0 <_ZN9TCPClient12flush_bufferEv>

023fe892 <_ZN9TCPClient4DataC1Ei>:

TCPClient::Data::Data(sock_handle_t sock)
        : sock(sock),
          offset(0),
          total(0) {
 23fe892:	2300      	movs	r3, #0
TCPClient::Data::Data(sock_handle_t sock)
 23fe894:	b510      	push	{r4, lr}
 23fe896:	4604      	mov	r4, r0
          total(0) {
 23fe898:	6001      	str	r1, [r0, #0]
 23fe89a:	f8c0 3084 	str.w	r3, [r0, #132]	; 0x84
 23fe89e:	3088      	adds	r0, #136	; 0x88
 23fe8a0:	f7ff fb3e 	bl	23fdf20 <_ZN9IPAddressC1Ev>
}
 23fe8a4:	4620      	mov	r0, r4
 23fe8a6:	bd10      	pop	{r4, pc}

023fe8a8 <_ZN9TCPClientC1Ei>:
 23fe8a8:	2300      	movs	r3, #0
 23fe8aa:	f44f 727a 	mov.w	r2, #1000	; 0x3e8
TCPClient::TCPClient(sock_handle_t sock)
 23fe8ae:	b573      	push	{r0, r1, r4, r5, r6, lr}
 23fe8b0:	e9c0 3201 	strd	r3, r2, [r0, #4]
        : d_(std::make_shared<Data>(sock)) {
 23fe8b4:	4a0e      	ldr	r2, [pc, #56]	; (23fe8f0 <_ZN9TCPClientC1Ei+0x48>)
#include "system_network.h"
#include "spark_wiring_print.h"
#include "spark_wiring_stream.h"
#include "spark_wiring_ipaddress.h"

class Client : public Stream {
 23fe8b6:	6103      	str	r3, [r0, #16]
 23fe8b8:	6002      	str	r2, [r0, #0]

    protected:
      // This constructor is non-standard, it is used by allocate_shared.
      template<typename _Alloc, typename... _Args>
	__shared_ptr(_Sp_alloc_shared_tag<_Alloc> __tag, _Args&&... __args)
	: _M_ptr(), _M_refcount(_M_ptr, __tag, std::forward<_Args>(__args)...)
 23fe8ba:	6143      	str	r3, [r0, #20]
TCPClient::TCPClient(sock_handle_t sock)
 23fe8bc:	4604      	mov	r4, r0
	return static_cast<_Tp*>(::operator new(__n * sizeof(_Tp)));
 23fe8be:	20ac      	movs	r0, #172	; 0xac
 23fe8c0:	9101      	str	r1, [sp, #4]
 23fe8c2:	f7fc f8c4 	bl	23faa4e <_Znwj>
	  auto __pi = ::new (__mem)
 23fe8c6:	1e05      	subs	r5, r0, #0
 23fe8c8:	f105 060c 	add.w	r6, r5, #12
 23fe8cc:	d008      	beq.n	23fe8e0 <_ZN9TCPClientC1Ei+0x38>
      : _M_use_count(1), _M_weak_count(1) { }
 23fe8ce:	2301      	movs	r3, #1
 23fe8d0:	e9c5 3301 	strd	r3, r3, [r5, #4]
	: _M_impl(__a)
 23fe8d4:	4b07      	ldr	r3, [pc, #28]	; (23fe8f4 <_ZN9TCPClientC1Ei+0x4c>)
#if __cplusplus >= 201103L
      template<typename _Up, typename... _Args>
	void
	construct(_Up* __p, _Args&&... __args)
	noexcept(std::is_nothrow_constructible<_Up, _Args...>::value)
	{ ::new((void *)__p) _Up(std::forward<_Args>(__args)...); }
 23fe8d6:	4630      	mov	r0, r6
 23fe8d8:	9901      	ldr	r1, [sp, #4]
 23fe8da:	602b      	str	r3, [r5, #0]
 23fe8dc:	f7ff ffd9 	bl	23fe892 <_ZN9TCPClient4DataC1Ei>
    flush_buffer();
 23fe8e0:	4620      	mov	r0, r4
	  __p = __pi->_M_ptr();
 23fe8e2:	e9c4 6505 	strd	r6, r5, [r4, #20]
 23fe8e6:	f7ff fee3 	bl	23fe6b0 <_ZN9TCPClient12flush_bufferEv>
}
 23fe8ea:	b002      	add	sp, #8
 23fe8ec:	bd70      	pop	{r4, r5, r6, pc}
 23fe8ee:	bf00      	nop
 23fe8f0:	023ffd64 	.word	0x023ffd64
 23fe8f4:	023ffd48 	.word	0x023ffd48

023fe8f8 <_ZN9TCPClientC1Ev>:
TCPClient::TCPClient()
 23fe8f8:	b510      	push	{r4, lr}
 23fe8fa:	4604      	mov	r4, r0
        : TCPClient(-1) {
 23fe8fc:	f04f 31ff 	mov.w	r1, #4294967295
 23fe900:	f7ff ffd2 	bl	23fe8a8 <_ZN9TCPClientC1Ei>
}
 23fe904:	4620      	mov	r0, r4
 23fe906:	bd10      	pop	{r4, pc}

023fe908 <_ZN9TCPClient4DataD1Ev>:

TCPClient::Data::~Data() {
 23fe908:	b510      	push	{r4, lr}
 23fe90a:	4604      	mov	r4, r0
    if (socket_handle_valid(sock)) {
 23fe90c:	6800      	ldr	r0, [r0, #0]
 23fe90e:	2800      	cmp	r0, #0
 23fe910:	db01      	blt.n	23fe916 <_ZN9TCPClient4DataD1Ev+0xe>
        sock_close(sock);
 23fe912:	f7fe fc01 	bl	23fd118 <sock_close>
    }
}
 23fe916:	4620      	mov	r0, r4
 23fe918:	bd10      	pop	{r4, pc}

023fe91a <_ZNSt23_Sp_counted_ptr_inplaceIN9TCPClient4DataESaIS1_ELN9__gnu_cxx12_Lock_policyE0EE10_M_disposeEv>:

      template<typename _Up>
	void
	destroy(_Up* __p)
	noexcept(std::is_nothrow_destructible<_Up>::value)
	{ __p->~_Up(); }
 23fe91a:	300c      	adds	r0, #12
 23fe91c:	f7ff bff4 	b.w	23fe908 <_ZN9TCPClient4DataD1Ev>

023fe920 <_ZN5spark9WiFiClass5readyEv>:
    bool connecting(void) {
        return network_connecting(*this, 0, NULL);
    }

    bool ready(void) {
        return network_ready(*this, 0, NULL);
 23fe920:	2200      	movs	r2, #0
 23fe922:	6840      	ldr	r0, [r0, #4]
 23fe924:	4611      	mov	r1, r2
 23fe926:	f7fe bdfd 	b.w	23fd524 <network_ready>

023fe92a <_ZN5spark9WiFiClass9listeningEv>:
    uint16_t getListenTimeout(void) {
        return network_get_listen_timeout(*this, 0, NULL);
    }

    bool listening(void) {
        return network_listening(*this, 0, NULL);
 23fe92a:	2200      	movs	r2, #0
 23fe92c:	6840      	ldr	r0, [r0, #4]
 23fe92e:	4611      	mov	r1, r2
 23fe930:	f7fe be30 	b.w	23fd594 <network_listening>

023fe934 <_ZN5spark9WiFiClass16getListenTimeoutEv>:
        return network_get_listen_timeout(*this, 0, NULL);
 23fe934:	2200      	movs	r2, #0
 23fe936:	6840      	ldr	r0, [r0, #4]
 23fe938:	4611      	mov	r1, r2
 23fe93a:	f7fe be63 	b.w	23fd604 <network_get_listen_timeout>

023fe93e <_ZN5spark9WiFiClass16setListenTimeoutEt>:
        network_set_listen_timeout(*this, timeout, NULL);
 23fe93e:	2200      	movs	r2, #0
 23fe940:	6840      	ldr	r0, [r0, #4]
 23fe942:	f7fe be51 	b.w	23fd5e8 <network_set_listen_timeout>

023fe946 <_ZN5spark9WiFiClass6listenEb>:
        network_listen(*this, begin ? 0 : 1, NULL);
 23fe946:	2200      	movs	r2, #0
 23fe948:	6840      	ldr	r0, [r0, #4]
 23fe94a:	f081 0101 	eor.w	r1, r1, #1
 23fe94e:	f7fe be13 	b.w	23fd578 <network_listen>

023fe952 <_ZN5spark9WiFiClass3offEv>:
        network_off(*this, 0, 0, NULL);
 23fe952:	2300      	movs	r3, #0
 23fe954:	6840      	ldr	r0, [r0, #4]
 23fe956:	461a      	mov	r2, r3
 23fe958:	4619      	mov	r1, r3
 23fe95a:	f7fe bdff 	b.w	23fd55c <network_off>

023fe95e <_ZN5spark9WiFiClass2onEv>:
        network_on(*this, 0, 0, NULL);
 23fe95e:	2300      	movs	r3, #0
 23fe960:	6840      	ldr	r0, [r0, #4]
 23fe962:	461a      	mov	r2, r3
 23fe964:	4619      	mov	r1, r3
 23fe966:	f7fe bdeb 	b.w	23fd540 <network_on>

023fe96a <_ZN5spark9WiFiClass10connectingEv>:
        return network_connecting(*this, 0, NULL);
 23fe96a:	2200      	movs	r2, #0
 23fe96c:	6840      	ldr	r0, [r0, #4]
 23fe96e:	4611      	mov	r1, r2
 23fe970:	f7fe bdbc 	b.w	23fd4ec <network_connecting>

023fe974 <_ZN5spark9WiFiClass10disconnectEv>:
        network_disconnect(*this, NETWORK_DISCONNECT_REASON_USER, NULL);
 23fe974:	2200      	movs	r2, #0
 23fe976:	2102      	movs	r1, #2
 23fe978:	6840      	ldr	r0, [r0, #4]
 23fe97a:	f7fe bdc5 	b.w	23fd508 <network_disconnect>

023fe97e <_ZN5spark9WiFiClass7connectEj>:
        network_connect(*this, flags, 0, NULL);
 23fe97e:	2300      	movs	r3, #0
 23fe980:	6840      	ldr	r0, [r0, #4]
 23fe982:	461a      	mov	r2, r3
 23fe984:	f7fe bda4 	b.w	23fd4d0 <network_connect>

023fe988 <_GLOBAL__sub_I__ZN10WiFiSignalC2ERK21wlan_connected_info_t>:
 23fe988:	2204      	movs	r2, #4
 23fe98a:	4b02      	ldr	r3, [pc, #8]	; (23fe994 <_GLOBAL__sub_I__ZN10WiFiSignalC2ERK21wlan_connected_info_t+0xc>)
 23fe98c:	605a      	str	r2, [r3, #4]
            NetworkClass(NETWORK_INTERFACE_WIFI_STA) {
 23fe98e:	4a02      	ldr	r2, [pc, #8]	; (23fe998 <_GLOBAL__sub_I__ZN10WiFiSignalC2ERK21wlan_connected_info_t+0x10>)
 23fe990:	601a      	str	r2, [r3, #0]
the same way.
*****************************************************************************/

    WiFiClass WiFi;
    // NetworkClass& Network = WiFi;
}
 23fe992:	4770      	bx	lr
 23fe994:	1007aef4 	.word	0x1007aef4
 23fe998:	023ffdb4 	.word	0x023ffdb4

023fe99c <_ZN5spark12NetworkClass7connectEj>:
        return Network;
    }
}

void NetworkClass::connect(unsigned flags) {
    network_connect(*this, flags, 0, nullptr);
 23fe99c:	2300      	movs	r3, #0
 23fe99e:	6840      	ldr	r0, [r0, #4]
 23fe9a0:	461a      	mov	r2, r3
 23fe9a2:	f7fe bd95 	b.w	23fd4d0 <network_connect>

023fe9a6 <_ZN5spark12NetworkClass10disconnectEv>:
}

void NetworkClass::disconnect() {
    network_disconnect(*this, NETWORK_DISCONNECT_REASON_USER, nullptr);
 23fe9a6:	2200      	movs	r2, #0
 23fe9a8:	2102      	movs	r1, #2
 23fe9aa:	6840      	ldr	r0, [r0, #4]
 23fe9ac:	f7fe bdac 	b.w	23fd508 <network_disconnect>

023fe9b0 <_ZN5spark12NetworkClass10connectingEv>:
}

bool NetworkClass::connecting() {
    return network_connecting(*this, 0, nullptr);
 23fe9b0:	2200      	movs	r2, #0
 23fe9b2:	6840      	ldr	r0, [r0, #4]
 23fe9b4:	4611      	mov	r1, r2
 23fe9b6:	f7fe bd99 	b.w	23fd4ec <network_connecting>

023fe9ba <_ZN5spark12NetworkClass5readyEv>:
}

bool NetworkClass::ready() {
    return network_ready(*this, 0, nullptr);
 23fe9ba:	2200      	movs	r2, #0
 23fe9bc:	6840      	ldr	r0, [r0, #4]
 23fe9be:	4611      	mov	r1, r2
 23fe9c0:	f7fe bdb0 	b.w	23fd524 <network_ready>

023fe9c4 <_ZN5spark12NetworkClass2onEv>:
}

void NetworkClass::on() {
    network_on(*this, 0, 0, nullptr);
 23fe9c4:	2300      	movs	r3, #0
 23fe9c6:	6840      	ldr	r0, [r0, #4]
 23fe9c8:	461a      	mov	r2, r3
 23fe9ca:	4619      	mov	r1, r3
 23fe9cc:	f7fe bdb8 	b.w	23fd540 <network_on>

023fe9d0 <_ZN5spark12NetworkClass3offEv>:
}

void NetworkClass::off() {
    network_off(*this, 0, 0, nullptr);
 23fe9d0:	2300      	movs	r3, #0
 23fe9d2:	6840      	ldr	r0, [r0, #4]
 23fe9d4:	461a      	mov	r2, r3
 23fe9d6:	4619      	mov	r1, r3
 23fe9d8:	f7fe bdc0 	b.w	23fd55c <network_off>

023fe9dc <_ZN5spark12NetworkClass4isOnEv>:
}

bool NetworkClass::isOn() {
    return network_is_on(*this, nullptr);
 23fe9dc:	2100      	movs	r1, #0
 23fe9de:	6840      	ldr	r0, [r0, #4]
 23fe9e0:	f7fe be1e 	b.w	23fd620 <network_is_on>

023fe9e4 <_ZN5spark12NetworkClass5isOffEv>:
}

bool NetworkClass::isOff() {
    return network_is_off(*this, nullptr);
 23fe9e4:	2100      	movs	r1, #0
 23fe9e6:	6840      	ldr	r0, [r0, #4]
 23fe9e8:	f7fe be28 	b.w	23fd63c <network_is_off>

023fe9ec <_ZN5spark12NetworkClass6listenEb>:
}

void NetworkClass::listen(bool begin) {
    network_listen(*this, begin ? 0 : 1, nullptr);
 23fe9ec:	2200      	movs	r2, #0
 23fe9ee:	6840      	ldr	r0, [r0, #4]
 23fe9f0:	f081 0101 	eor.w	r1, r1, #1
 23fe9f4:	f7fe bdc0 	b.w	23fd578 <network_listen>

023fe9f8 <_ZN5spark12NetworkClass16setListenTimeoutEt>:
}

void NetworkClass::setListenTimeout(uint16_t timeout) {
    network_set_listen_timeout(*this, timeout, nullptr);
 23fe9f8:	2200      	movs	r2, #0
 23fe9fa:	6840      	ldr	r0, [r0, #4]
 23fe9fc:	f7fe bdf4 	b.w	23fd5e8 <network_set_listen_timeout>

023fea00 <_ZN5spark12NetworkClass16getListenTimeoutEv>:
}

uint16_t NetworkClass::getListenTimeout() {
    return network_get_listen_timeout(*this, 0, nullptr);
 23fea00:	2200      	movs	r2, #0
 23fea02:	6840      	ldr	r0, [r0, #4]
 23fea04:	4611      	mov	r1, r2
 23fea06:	f7fe bdfd 	b.w	23fd604 <network_get_listen_timeout>

023fea0a <_ZN5spark12NetworkClass9listeningEv>:
}

bool NetworkClass::listening() {
    return network_listening(*this, 0, nullptr);
 23fea0a:	2200      	movs	r2, #0
 23fea0c:	6840      	ldr	r0, [r0, #4]
 23fea0e:	4611      	mov	r1, r2
 23fea10:	f7fe bdc0 	b.w	23fd594 <network_listening>

023fea14 <_ZN5spark12NetworkClass11isPreferredEv>:
    network_handle_t network = network_prefer(*this, prefer, nullptr);
    return Network.from(network);
}

bool NetworkClass::isPreferred() {
    return network_is_preferred(*this, nullptr);
 23fea14:	2100      	movs	r1, #0
 23fea16:	6840      	ldr	r0, [r0, #4]
 23fea18:	f7fe be2c 	b.w	23fd674 <network_is_preferred>

023fea1c <_ZN5spark12NetworkClass7resolveEPKc>:
}

IPAddress NetworkClass::resolve(const char* name) {
 23fea1c:	e92d 43f0 	stmdb	sp!, {r4, r5, r6, r7, r8, r9, lr}
 23fea20:	b095      	sub	sp, #84	; 0x54
 23fea22:	4614      	mov	r4, r2
 23fea24:	460d      	mov	r5, r1
 23fea26:	4607      	mov	r7, r0
    IPAddress addr;
 23fea28:	f7ff fa7a 	bl	23fdf20 <_ZN9IPAddressC1Ev>
#if HAL_USE_INET_HAL_POSIX
    struct addrinfo *ai = nullptr;
 23fea2c:	2100      	movs	r1, #0
    struct addrinfo hints = {};
 23fea2e:	221c      	movs	r2, #28
 23fea30:	a80d      	add	r0, sp, #52	; 0x34
    struct addrinfo *ai = nullptr;
 23fea32:	9100      	str	r1, [sp, #0]
    struct addrinfo hints = {};
 23fea34:	f000 fb47 	bl	23ff0c6 <memset>
    hints.ai_flags = AI_ADDRCONFIG;
 23fea38:	2340      	movs	r3, #64	; 0x40
    hints.ai_family = AF_UNSPEC;
    const int r = getaddrinfo(name, nullptr, &hints, &ai);
 23fea3a:	4620      	mov	r0, r4
    hints.ai_flags = AI_ADDRCONFIG;
 23fea3c:	930c      	str	r3, [sp, #48]	; 0x30
    const int r = getaddrinfo(name, nullptr, &hints, &ai);
 23fea3e:	2100      	movs	r1, #0
 23fea40:	466b      	mov	r3, sp
 23fea42:	aa0c      	add	r2, sp, #48	; 0x30
 23fea44:	f7fe f92a 	bl	23fcc9c <netdb_getaddrinfo>
    if (!r) {
 23fea48:	4604      	mov	r4, r0
 23fea4a:	2800      	cmp	r0, #0
 23fea4c:	d14b      	bne.n	23feae6 <_ZN5spark12NetworkClass7resolveEPKc+0xca>
        bool ok = false;
        // This is not really needed if AI_ADDRCONFIG is properly supported
        bool ipv4 = network_ready(*this, NETWORK_READY_TYPE_IPV4, nullptr);
 23fea4e:	4602      	mov	r2, r0
 23fea50:	2101      	movs	r1, #1
 23fea52:	6868      	ldr	r0, [r5, #4]
 23fea54:	f7fe fd66 	bl	23fd524 <network_ready>
        bool ipv6 = network_ready(*this, NETWORK_READY_TYPE_IPV6, nullptr);
 23fea58:	2102      	movs	r1, #2
        bool ipv4 = network_ready(*this, NETWORK_READY_TYPE_IPV4, nullptr);
 23fea5a:	4680      	mov	r8, r0
        bool ipv6 = network_ready(*this, NETWORK_READY_TYPE_IPV6, nullptr);
 23fea5c:	4622      	mov	r2, r4
 23fea5e:	6868      	ldr	r0, [r5, #4]
 23fea60:	f7fe fd60 	bl	23fd524 <network_ready>
        bool ok = false;
 23fea64:	4621      	mov	r1, r4
        bool ipv6 = network_ready(*this, NETWORK_READY_TYPE_IPV6, nullptr);
 23fea66:	4681      	mov	r9, r0
        for (auto cur = ai; cur != nullptr && !ok; cur = cur->ai_next) {
 23fea68:	9e00      	ldr	r6, [sp, #0]
 23fea6a:	2e00      	cmp	r6, #0
 23fea6c:	d03b      	beq.n	23feae6 <_ZN5spark12NetworkClass7resolveEPKc+0xca>
 23fea6e:	2900      	cmp	r1, #0
 23fea70:	d139      	bne.n	23feae6 <_ZN5spark12NetworkClass7resolveEPKc+0xca>
            // NOTE: using only the first entry that matches the current state of IPv4/IPv6 connectivity
            switch (cur->ai_family) {
 23fea72:	6873      	ldr	r3, [r6, #4]
 23fea74:	2b02      	cmp	r3, #2
 23fea76:	d003      	beq.n	23fea80 <_ZN5spark12NetworkClass7resolveEPKc+0x64>
 23fea78:	2b0a      	cmp	r3, #10
 23fea7a:	d011      	beq.n	23feaa0 <_ZN5spark12NetworkClass7resolveEPKc+0x84>
        for (auto cur = ai; cur != nullptr && !ok; cur = cur->ai_next) {
 23fea7c:	69f6      	ldr	r6, [r6, #28]
 23fea7e:	e7f4      	b.n	23fea6a <_ZN5spark12NetworkClass7resolveEPKc+0x4e>
                case AF_INET: {
                    if (!ipv4) {
 23fea80:	f1b8 0f00 	cmp.w	r8, #0
 23fea84:	d0fa      	beq.n	23fea7c <_ZN5spark12NetworkClass7resolveEPKc+0x60>
                        continue;
                    }
                    // NOTE: HAL_IPAddress is little-endian
                    auto in = (struct sockaddr_in*)cur->ai_addr;
                    addr = (const uint8_t*)(&in->sin_addr.s_addr);
 23fea86:	6971      	ldr	r1, [r6, #20]
        return *this = IPAddress(address);
 23fea88:	a806      	add	r0, sp, #24
 23fea8a:	3104      	adds	r1, #4
class IPAddress : public Printable {
 23fea8c:	1d3c      	adds	r4, r7, #4
 23fea8e:	ad07      	add	r5, sp, #28
        return *this = IPAddress(address);
 23fea90:	f7ff fa8a 	bl	23fdfa8 <_ZN9IPAddressC1EPKh>
class IPAddress : public Printable {
 23fea94:	cd0f      	ldmia	r5!, {r0, r1, r2, r3}
 23fea96:	c40f      	stmia	r4!, {r0, r1, r2, r3}
 23fea98:	682b      	ldr	r3, [r5, #0]
                    ok = true;
 23fea9a:	4641      	mov	r1, r8
 23fea9c:	7023      	strb	r3, [r4, #0]
        return *this = IPAddress(address);
 23fea9e:	e7ed      	b.n	23fea7c <_ZN5spark12NetworkClass7resolveEPKc+0x60>
                    break;
                }
                case AF_INET6: {
                    if (!ipv6) {
 23feaa0:	f1b9 0f00 	cmp.w	r9, #0
 23feaa4:	d0ea      	beq.n	23fea7c <_ZN5spark12NetworkClass7resolveEPKc+0x60>
                        continue;
                    }
                    auto in6 = (struct sockaddr_in6*)cur->ai_addr;
                    HAL_IPAddress a = {};
 23feaa6:	2210      	movs	r2, #16
 23feaa8:	a801      	add	r0, sp, #4
                    auto in6 = (struct sockaddr_in6*)cur->ai_addr;
 23feaaa:	6974      	ldr	r4, [r6, #20]
                    HAL_IPAddress a = {};
 23feaac:	f000 fb0b 	bl	23ff0c6 <memset>
                    a.v = 6;
 23feab0:	2306      	movs	r3, #6
                    memcpy(a.ipv6, in6->sin6_addr.s6_addr, sizeof(a.ipv6));
 23feab2:	ad01      	add	r5, sp, #4
                    a.v = 6;
 23feab4:	f88d 3014 	strb.w	r3, [sp, #20]
                    memcpy(a.ipv6, in6->sin6_addr.s6_addr, sizeof(a.ipv6));
 23feab8:	f104 0308 	add.w	r3, r4, #8
 23feabc:	3418      	adds	r4, #24
 23feabe:	462a      	mov	r2, r5
 23feac0:	6818      	ldr	r0, [r3, #0]
 23feac2:	6859      	ldr	r1, [r3, #4]
 23feac4:	3308      	adds	r3, #8
 23feac6:	c203      	stmia	r2!, {r0, r1}
 23feac8:	42a3      	cmp	r3, r4
 23feaca:	4615      	mov	r5, r2
 23feacc:	d1f7      	bne.n	23feabe <_ZN5spark12NetworkClass7resolveEPKc+0xa2>
                    addr = IPAddress(a);
 23feace:	a901      	add	r1, sp, #4
 23fead0:	a806      	add	r0, sp, #24
class IPAddress : public Printable {
 23fead2:	1d3c      	adds	r4, r7, #4
 23fead4:	ad07      	add	r5, sp, #28
 23fead6:	f7ff fa31 	bl	23fdf3c <_ZN9IPAddressC1ERK16_HAL_IPAddress_t>
 23feada:	cd0f      	ldmia	r5!, {r0, r1, r2, r3}
 23feadc:	c40f      	stmia	r4!, {r0, r1, r2, r3}
 23feade:	682b      	ldr	r3, [r5, #0]
                    ok = true;
 23feae0:	4649      	mov	r1, r9
 23feae2:	7023      	strb	r3, [r4, #0]
                    break;
 23feae4:	e7ca      	b.n	23fea7c <_ZN5spark12NetworkClass7resolveEPKc+0x60>
                }
            }
        }
    }
    freeaddrinfo(ai);
 23feae6:	9800      	ldr	r0, [sp, #0]
 23feae8:	f7fe f8ca 	bl	23fcc80 <netdb_freeaddrinfo>
    return Cellular.resolve(name);
#endif // Wiring_Cellular

#endif // HAL_USE_INET_HAL_POSIX
    return addr;
}
 23feaec:	4638      	mov	r0, r7
 23feaee:	b015      	add	sp, #84	; 0x54
 23feaf0:	e8bd 83f0 	ldmia.w	sp!, {r4, r5, r6, r7, r8, r9, pc}

023feaf4 <_ZN5spark12NetworkClass4fromEm>:
    switch (nif) {
 23feaf4:	3803      	subs	r0, #3
 23feaf6:	2802      	cmp	r0, #2
 23feaf8:	bf9a      	itte	ls
 23feafa:	4b02      	ldrls	r3, [pc, #8]	; (23feb04 <_ZN5spark12NetworkClass4fromEm+0x10>)
 23feafc:	f853 0020 	ldrls.w	r0, [r3, r0, lsl #2]
NetworkClass& NetworkClass::from(network_interface_t nif) {
 23feb00:	4801      	ldrhi	r0, [pc, #4]	; (23feb08 <_ZN5spark12NetworkClass4fromEm+0x14>)
}
 23feb02:	4770      	bx	lr
 23feb04:	023ffdf0 	.word	0x023ffdf0
 23feb08:	1007aefc 	.word	0x1007aefc

023feb0c <_ZN5spark12NetworkClass6preferEb>:
NetworkClass& NetworkClass::prefer(bool prefer) {
 23feb0c:	b508      	push	{r3, lr}
    network_handle_t network = network_prefer(*this, prefer, nullptr);
 23feb0e:	2200      	movs	r2, #0
 23feb10:	6840      	ldr	r0, [r0, #4]
 23feb12:	f7fe fda1 	bl	23fd658 <network_prefer>
}
 23feb16:	e8bd 4008 	ldmia.w	sp!, {r3, lr}
    return Network.from(network);
 23feb1a:	f7ff bfeb 	b.w	23feaf4 <_ZN5spark12NetworkClass4fromEm>
	...

023feb20 <_GLOBAL__sub_I__ZN5spark7NetworkE>:
 23feb20:	4b02      	ldr	r3, [pc, #8]	; (23feb2c <_GLOBAL__sub_I__ZN5spark7NetworkE+0xc>)
 23feb22:	4a03      	ldr	r2, [pc, #12]	; (23feb30 <_GLOBAL__sub_I__ZN5spark7NetworkE+0x10>)
 23feb24:	601a      	str	r2, [r3, #0]
 23feb26:	2200      	movs	r2, #0
 23feb28:	605a      	str	r2, [r3, #4]
    network_free_configuration(c, count, nullptr);
    return res;
}
#endif // HAL_USE_SOCKET_HAL_POSIX

} // spark
 23feb2a:	4770      	bx	lr
 23feb2c:	1007aefc 	.word	0x1007aefc
 23feb30:	023ffe04 	.word	0x023ffe04

023feb34 <getPinMode>:
 * AN_OUTPUT = 7
 * PIN_MODE_NONE = 255
 */
PinMode getPinMode(uint16_t pin)
{
  return hal_gpio_get_mode(pin);
 23feb34:	f7fe b8dc 	b.w	23fccf0 <hal_gpio_get_mode>

023feb38 <pinAvailable>:
/*
 * @brief Perform safety check on desired pin to see if it's already
 * being used.  Return 0 if used, otherwise return 1 if available.
 */
bool pinAvailable(uint16_t pin) {
  if (pin >= TOTAL_PINS) {
 23feb38:	281b      	cmp	r0, #27
bool pinAvailable(uint16_t pin) {
 23feb3a:	b537      	push	{r0, r1, r2, r4, r5, lr}
 23feb3c:	4604      	mov	r4, r0
  if (pin >= TOTAL_PINS) {
 23feb3e:	d902      	bls.n	23feb46 <pinAvailable+0xe>
    return false;
 23feb40:	2000      	movs	r0, #0
    return false; // 'pin' is used
  }
#endif

  return true; // 'pin' is available
}
 23feb42:	b003      	add	sp, #12
 23feb44:	bd30      	pop	{r4, r5, pc}
  if((pin == SCK || pin == MOSI || pin == MISO) && hal_spi_is_enabled(SPI.interface()) == true)
 23feb46:	f1a0 030f 	sub.w	r3, r0, #15
 23feb4a:	2b02      	cmp	r3, #2
 23feb4c:	d90b      	bls.n	23feb66 <pinAvailable+0x2e>
  if((pin == SCL || pin == SDA) && hal_i2c_is_enabled(Wire.interface(), nullptr) == true)
 23feb4e:	2801      	cmp	r0, #1
 23feb50:	d821      	bhi.n	23feb96 <pinAvailable+0x5e>
 23feb52:	f000 f969 	bl	23fee28 <_Z19__fetch_global_Wirev>
 23feb56:	2100      	movs	r1, #0
 23feb58:	7c00      	ldrb	r0, [r0, #16]
 23feb5a:	f7fe faa5 	bl	23fd0a8 <hal_i2c_is_enabled>
  if((pin == RX || pin == TX) && hal_usart_is_enabled(Serial1.interface()) == true)
 23feb5e:	f080 0001 	eor.w	r0, r0, #1
 23feb62:	b2c0      	uxtb	r0, r0
 23feb64:	e7ed      	b.n	23feb42 <pinAvailable+0xa>

template <hal_spi_interface_t Interface>
class SpiProxy {
public:
    static SPIClass& instance() {
        static SPIClass instance(Interface);
 23feb66:	4d11      	ldr	r5, [pc, #68]	; (23febac <pinAvailable+0x74>)
 23feb68:	e8d5 1f8f 	ldab	r1, [r5]
 23feb6c:	f011 0101 	ands.w	r1, r1, #1
 23feb70:	d10b      	bne.n	23feb8a <pinAvailable+0x52>
 23feb72:	4628      	mov	r0, r5
 23feb74:	9101      	str	r1, [sp, #4]
 23feb76:	f7fb ff7d 	bl	23faa74 <__cxa_guard_acquire>
 23feb7a:	9901      	ldr	r1, [sp, #4]
 23feb7c:	b128      	cbz	r0, 23feb8a <pinAvailable+0x52>
 23feb7e:	480c      	ldr	r0, [pc, #48]	; (23febb0 <pinAvailable+0x78>)
 23feb80:	f7fe fe56 	bl	23fd830 <_ZN8SPIClassC1E19hal_spi_interface_t>
 23feb84:	4628      	mov	r0, r5
 23feb86:	f7fb ff7a 	bl	23faa7e <__cxa_guard_release>
  if((pin == SCK || pin == MOSI || pin == MISO) && hal_spi_is_enabled(SPI.interface()) == true)
 23feb8a:	4b09      	ldr	r3, [pc, #36]	; (23febb0 <pinAvailable+0x78>)
 23feb8c:	7818      	ldrb	r0, [r3, #0]
 23feb8e:	f7fe fb5d 	bl	23fd24c <hal_spi_is_enabled>
 23feb92:	2800      	cmp	r0, #0
 23feb94:	d1d4      	bne.n	23feb40 <pinAvailable+0x8>
  if((pin == RX || pin == TX) && hal_usart_is_enabled(Serial1.interface()) == true)
 23feb96:	3c08      	subs	r4, #8
 23feb98:	2c01      	cmp	r4, #1
 23feb9a:	d805      	bhi.n	23feba8 <pinAvailable+0x70>
 23feb9c:	f000 f898 	bl	23fecd0 <_Z22__fetch_global_Serial1v>
 23feba0:	7c00      	ldrb	r0, [r0, #16]
 23feba2:	f7fe f9d9 	bl	23fcf58 <hal_usart_is_enabled>
 23feba6:	e7da      	b.n	23feb5e <pinAvailable+0x26>
  return true; // 'pin' is available
 23feba8:	2001      	movs	r0, #1
 23febaa:	e7ca      	b.n	23feb42 <pinAvailable+0xa>
 23febac:	1007ae10 	.word	0x1007ae10
 23febb0:	1007ae14 	.word	0x1007ae14

023febb4 <pinMode>:
  if(pin >= TOTAL_PINS || setMode == PIN_MODE_NONE )
 23febb4:	281b      	cmp	r0, #27
{
 23febb6:	b538      	push	{r3, r4, r5, lr}
 23febb8:	4604      	mov	r4, r0
 23febba:	460d      	mov	r5, r1
  if(pin >= TOTAL_PINS || setMode == PIN_MODE_NONE )
 23febbc:	d80a      	bhi.n	23febd4 <pinMode+0x20>
 23febbe:	29ff      	cmp	r1, #255	; 0xff
 23febc0:	d008      	beq.n	23febd4 <pinMode+0x20>
  if( !pinAvailable(pin) ) {
 23febc2:	f7ff ffb9 	bl	23feb38 <pinAvailable>
 23febc6:	b128      	cbz	r0, 23febd4 <pinMode+0x20>
  hal_gpio_mode(pin, setMode);
 23febc8:	4629      	mov	r1, r5
 23febca:	4620      	mov	r0, r4
}
 23febcc:	e8bd 4038 	ldmia.w	sp!, {r3, r4, r5, lr}
  hal_gpio_mode(pin, setMode);
 23febd0:	f7fe b880 	b.w	23fccd4 <hal_gpio_mode>
}
 23febd4:	bd38      	pop	{r3, r4, r5, pc}

023febd6 <digitalWrite>:

/*
 * @brief Sets a GPIO pin to HIGH or LOW.
 */
void digitalWrite(hal_pin_t pin, uint8_t value)
{
 23febd6:	b538      	push	{r3, r4, r5, lr}
 23febd8:	4604      	mov	r4, r0
 23febda:	460d      	mov	r5, r1
    PinMode mode = hal_gpio_get_mode(pin);
 23febdc:	f7fe f888 	bl	23fccf0 <hal_gpio_get_mode>
    if (mode==PIN_MODE_NONE || is_input_mode(mode))
 23febe0:	28ff      	cmp	r0, #255	; 0xff
 23febe2:	d010      	beq.n	23fec06 <digitalWrite+0x30>
            mode == INPUT_PULLDOWN ||
 23febe4:	2806      	cmp	r0, #6
 23febe6:	d804      	bhi.n	23febf2 <digitalWrite+0x1c>
 23febe8:	234d      	movs	r3, #77	; 0x4d
 23febea:	fa23 f000 	lsr.w	r0, r3, r0
 23febee:	07c3      	lsls	r3, r0, #31
 23febf0:	d409      	bmi.n	23fec06 <digitalWrite+0x30>
        return;
  // Safety check
  if( !pinAvailable(pin) ) {
 23febf2:	4620      	mov	r0, r4
 23febf4:	f7ff ffa0 	bl	23feb38 <pinAvailable>
 23febf8:	b128      	cbz	r0, 23fec06 <digitalWrite+0x30>
    return;
  }

  hal_gpio_write(pin, value);
 23febfa:	4629      	mov	r1, r5
 23febfc:	4620      	mov	r0, r4
}
 23febfe:	e8bd 4038 	ldmia.w	sp!, {r3, r4, r5, lr}
  hal_gpio_write(pin, value);
 23fec02:	f7fe b883 	b.w	23fcd0c <hal_gpio_write>
}
 23fec06:	bd38      	pop	{r3, r4, r5, pc}

023fec08 <digitalRead>:

/*
 * @brief Reads the value of a GPIO pin. Should return either 1 (HIGH) or 0 (LOW).
 */
int32_t digitalRead(hal_pin_t pin)
{
 23fec08:	b510      	push	{r4, lr}
 23fec0a:	4604      	mov	r4, r0
    PinMode mode = hal_gpio_get_mode(pin);
 23fec0c:	f7fe f870 	bl	23fccf0 <hal_gpio_get_mode>
    return mode == AF_OUTPUT_PUSHPULL ||
 23fec10:	1f03      	subs	r3, r0, #4
    if (is_af_output_mode(mode))
 23fec12:	b2db      	uxtb	r3, r3
 23fec14:	2b01      	cmp	r3, #1
 23fec16:	d908      	bls.n	23fec2a <digitalRead+0x22>
        return LOW;

    // Safety check
    if( !pinAvailable(pin) ) {
 23fec18:	4620      	mov	r0, r4
 23fec1a:	f7ff ff8d 	bl	23feb38 <pinAvailable>
 23fec1e:	b120      	cbz	r0, 23fec2a <digitalRead+0x22>
      return LOW;
    }

    return hal_gpio_read(pin);
 23fec20:	4620      	mov	r0, r4
}
 23fec22:	e8bd 4010 	ldmia.w	sp!, {r4, lr}
    return hal_gpio_read(pin);
 23fec26:	f7fe b87f 	b.w	23fcd28 <hal_gpio_read>
}
 23fec2a:	2000      	movs	r0, #0
 23fec2c:	bd10      	pop	{r4, pc}

023fec2e <shiftOut>:
  }
  return value;
}

void shiftOut(uint8_t dataPin, uint8_t clockPin, uint8_t bitOrder, uint8_t val)
{
 23fec2e:	e92d 41f0 	stmdb	sp!, {r4, r5, r6, r7, r8, lr}
 23fec32:	4690      	mov	r8, r2
 23fec34:	461f      	mov	r7, r3
 23fec36:	2407      	movs	r4, #7
  uint8_t i;

  for (i = 0; i < 8; i++)  {
    if (bitOrder == LSBFIRST)
      digitalWrite(dataPin, !!(val & (1 << i)));
 23fec38:	4606      	mov	r6, r0
    else
      digitalWrite(dataPin, !!(val & (1 << (7 - i))));

    digitalWrite(clockPin, HIGH);
 23fec3a:	460d      	mov	r5, r1
    if (bitOrder == LSBFIRST)
 23fec3c:	f1c4 0107 	rsb	r1, r4, #7
 23fec40:	f1b8 0f00 	cmp.w	r8, #0
 23fec44:	d112      	bne.n	23fec6c <shiftOut+0x3e>
      digitalWrite(dataPin, !!(val & (1 << i)));
 23fec46:	fa47 f101 	asr.w	r1, r7, r1
      digitalWrite(dataPin, !!(val & (1 << (7 - i))));
 23fec4a:	4630      	mov	r0, r6
 23fec4c:	f001 0101 	and.w	r1, r1, #1
 23fec50:	f7ff ffc1 	bl	23febd6 <digitalWrite>
    digitalWrite(clockPin, HIGH);
 23fec54:	2101      	movs	r1, #1
 23fec56:	4628      	mov	r0, r5
 23fec58:	f7ff ffbd 	bl	23febd6 <digitalWrite>
    digitalWrite(clockPin, LOW);
 23fec5c:	2100      	movs	r1, #0
 23fec5e:	4628      	mov	r0, r5
 23fec60:	f7ff ffb9 	bl	23febd6 <digitalWrite>
  for (i = 0; i < 8; i++)  {
 23fec64:	3c01      	subs	r4, #1
 23fec66:	d2e9      	bcs.n	23fec3c <shiftOut+0xe>
  }
}
 23fec68:	e8bd 81f0 	ldmia.w	sp!, {r4, r5, r6, r7, r8, pc}
      digitalWrite(dataPin, !!(val & (1 << (7 - i))));
 23fec6c:	fa47 f104 	asr.w	r1, r7, r4
 23fec70:	e7eb      	b.n	23fec4a <shiftOut+0x1c>

023fec72 <__tcf_0>:
}
#endif

USARTSerial& __fetch_global_Serial1()
{
    static USARTSerial serial1(HAL_USART_SERIAL1, acquireSerial1Buffer());
 23fec72:	4770      	bx	lr

023fec74 <_ZN12_GLOBAL__N_118defaultUsartConfigEv>:
hal_usart_buffer_config_t defaultUsartConfig() {
 23fec74:	b538      	push	{r3, r4, r5, lr}
    hal_usart_buffer_config_t config = {
 23fec76:	2514      	movs	r5, #20
hal_usart_buffer_config_t defaultUsartConfig() {
 23fec78:	4604      	mov	r4, r0
    hal_usart_buffer_config_t config = {
 23fec7a:	462a      	mov	r2, r5
 23fec7c:	2100      	movs	r1, #0
 23fec7e:	f000 fa22 	bl	23ff0c6 <memset>
 23fec82:	8025      	strh	r5, [r4, #0]
 23fec84:	2540      	movs	r5, #64	; 0x40
        .rx_buffer = new (std::nothrow) uint8_t[bufferSize],
 23fec86:	4907      	ldr	r1, [pc, #28]	; (23feca4 <_ZN12_GLOBAL__N_118defaultUsartConfigEv+0x30>)
 23fec88:	4628      	mov	r0, r5
    hal_usart_buffer_config_t config = {
 23fec8a:	8125      	strh	r5, [r4, #8]
 23fec8c:	8225      	strh	r5, [r4, #16]
        .rx_buffer = new (std::nothrow) uint8_t[bufferSize],
 23fec8e:	f000 f8ef 	bl	23fee70 <_ZnajRKSt9nothrow_t>
        .tx_buffer = new (std::nothrow) uint8_t[bufferSize],
 23fec92:	4904      	ldr	r1, [pc, #16]	; (23feca4 <_ZN12_GLOBAL__N_118defaultUsartConfigEv+0x30>)
    };
 23fec94:	6060      	str	r0, [r4, #4]
        .tx_buffer = new (std::nothrow) uint8_t[bufferSize],
 23fec96:	4628      	mov	r0, r5
 23fec98:	f000 f8ea 	bl	23fee70 <_ZnajRKSt9nothrow_t>
    };
 23fec9c:	60e0      	str	r0, [r4, #12]
}
 23fec9e:	4620      	mov	r0, r4
 23feca0:	bd38      	pop	{r3, r4, r5, pc}
 23feca2:	bf00      	nop
 23feca4:	023ffe40 	.word	0x023ffe40

023feca8 <__tcf_2>:
 23feca8:	4770      	bx	lr

023fecaa <__tcf_1>:
 23fecaa:	4770      	bx	lr

023fecac <_Z20acquireSerial1Bufferv>:
{
 23fecac:	b510      	push	{r4, lr}
 23fecae:	4604      	mov	r4, r0
    return defaultUsartConfig();
 23fecb0:	f7ff ffe0 	bl	23fec74 <_ZN12_GLOBAL__N_118defaultUsartConfigEv>
}
 23fecb4:	4620      	mov	r0, r4
 23fecb6:	bd10      	pop	{r4, pc}

023fecb8 <_Z20acquireSerial2Bufferv>:
 23fecb8:	b510      	push	{r4, lr}
 23fecba:	4604      	mov	r4, r0
 23fecbc:	f7ff ffda 	bl	23fec74 <_ZN12_GLOBAL__N_118defaultUsartConfigEv>
 23fecc0:	4620      	mov	r0, r4
 23fecc2:	bd10      	pop	{r4, pc}

023fecc4 <_Z20acquireSerial3Bufferv>:
 23fecc4:	b510      	push	{r4, lr}
 23fecc6:	4604      	mov	r4, r0
 23fecc8:	f7ff ffd4 	bl	23fec74 <_ZN12_GLOBAL__N_118defaultUsartConfigEv>
 23feccc:	4620      	mov	r0, r4
 23fecce:	bd10      	pop	{r4, pc}

023fecd0 <_Z22__fetch_global_Serial1v>:
{
 23fecd0:	b530      	push	{r4, r5, lr}
    static USARTSerial serial1(HAL_USART_SERIAL1, acquireSerial1Buffer());
 23fecd2:	4d0e      	ldr	r5, [pc, #56]	; (23fed0c <_Z22__fetch_global_Serial1v+0x3c>)
{
 23fecd4:	b087      	sub	sp, #28
    static USARTSerial serial1(HAL_USART_SERIAL1, acquireSerial1Buffer());
 23fecd6:	e8d5 1f8f 	ldab	r1, [r5]
 23fecda:	f011 0401 	ands.w	r4, r1, #1
 23fecde:	d111      	bne.n	23fed04 <_Z22__fetch_global_Serial1v+0x34>
 23fece0:	4628      	mov	r0, r5
 23fece2:	f7fb fec7 	bl	23faa74 <__cxa_guard_acquire>
 23fece6:	b168      	cbz	r0, 23fed04 <_Z22__fetch_global_Serial1v+0x34>
 23fece8:	a801      	add	r0, sp, #4
 23fecea:	f7ff ffdf 	bl	23fecac <_Z20acquireSerial1Bufferv>
 23fecee:	4621      	mov	r1, r4
 23fecf0:	aa01      	add	r2, sp, #4
 23fecf2:	4807      	ldr	r0, [pc, #28]	; (23fed10 <_Z22__fetch_global_Serial1v+0x40>)
 23fecf4:	f7ff fa8e 	bl	23fe214 <_ZN11USARTSerialC1E21hal_usart_interface_tRK25hal_usart_buffer_config_t>
 23fecf8:	4628      	mov	r0, r5
 23fecfa:	f7fb fec0 	bl	23faa7e <__cxa_guard_release>
 23fecfe:	4805      	ldr	r0, [pc, #20]	; (23fed14 <_Z22__fetch_global_Serial1v+0x44>)
 23fed00:	f000 f9ce 	bl	23ff0a0 <atexit>
    return serial1;
}
 23fed04:	4802      	ldr	r0, [pc, #8]	; (23fed10 <_Z22__fetch_global_Serial1v+0x40>)
 23fed06:	b007      	add	sp, #28
 23fed08:	bd30      	pop	{r4, r5, pc}
 23fed0a:	bf00      	nop
 23fed0c:	1007af04 	.word	0x1007af04
 23fed10:	1007af10 	.word	0x1007af10
 23fed14:	023fec73 	.word	0x023fec73

023fed18 <_Z22__fetch_global_Serial2v>:

#if Wiring_Serial2
USARTSerial& __fetch_global_Serial2()
{
 23fed18:	b510      	push	{r4, lr}
	static USARTSerial serial2(HAL_USART_SERIAL2, acquireSerial2Buffer());
 23fed1a:	4c0d      	ldr	r4, [pc, #52]	; (23fed50 <_Z22__fetch_global_Serial2v+0x38>)
{
 23fed1c:	b086      	sub	sp, #24
	static USARTSerial serial2(HAL_USART_SERIAL2, acquireSerial2Buffer());
 23fed1e:	e8d4 3f8f 	ldab	r3, [r4]
 23fed22:	07db      	lsls	r3, r3, #31
 23fed24:	d411      	bmi.n	23fed4a <_Z22__fetch_global_Serial2v+0x32>
 23fed26:	4620      	mov	r0, r4
 23fed28:	f7fb fea4 	bl	23faa74 <__cxa_guard_acquire>
 23fed2c:	b168      	cbz	r0, 23fed4a <_Z22__fetch_global_Serial2v+0x32>
 23fed2e:	a801      	add	r0, sp, #4
 23fed30:	f7ff ffc2 	bl	23fecb8 <_Z20acquireSerial2Bufferv>
 23fed34:	2101      	movs	r1, #1
 23fed36:	aa01      	add	r2, sp, #4
 23fed38:	4806      	ldr	r0, [pc, #24]	; (23fed54 <_Z22__fetch_global_Serial2v+0x3c>)
 23fed3a:	f7ff fa6b 	bl	23fe214 <_ZN11USARTSerialC1E21hal_usart_interface_tRK25hal_usart_buffer_config_t>
 23fed3e:	4620      	mov	r0, r4
 23fed40:	f7fb fe9d 	bl	23faa7e <__cxa_guard_release>
 23fed44:	4804      	ldr	r0, [pc, #16]	; (23fed58 <_Z22__fetch_global_Serial2v+0x40>)
 23fed46:	f000 f9ab 	bl	23ff0a0 <atexit>
	return serial2;
}
 23fed4a:	4802      	ldr	r0, [pc, #8]	; (23fed54 <_Z22__fetch_global_Serial2v+0x3c>)
 23fed4c:	b006      	add	sp, #24
 23fed4e:	bd10      	pop	{r4, pc}
 23fed50:	1007af08 	.word	0x1007af08
 23fed54:	1007af24 	.word	0x1007af24
 23fed58:	023fecab 	.word	0x023fecab

023fed5c <_Z15serialEventRun2v>:

void serialEventRun2()
{
 23fed5c:	b510      	push	{r4, lr}
    __handleSerialEvent(Serial2, serialEvent2);
 23fed5e:	f7ff ffdb 	bl	23fed18 <_Z22__fetch_global_Serial2v>

inline void __handleSerialEvent(USARTSerial& serial, void (*handler)(void)) __attribute__((always_inline));

inline void __handleSerialEvent(USARTSerial& serial, void (*handler)(void))
{
    if (handler && serial.isEnabled() && serial.available()>0)
 23fed62:	4b07      	ldr	r3, [pc, #28]	; (23fed80 <_Z15serialEventRun2v+0x24>)
 23fed64:	4604      	mov	r4, r0
 23fed66:	b153      	cbz	r3, 23fed7e <_Z15serialEventRun2v+0x22>
 23fed68:	f7ff fa6f 	bl	23fe24a <_ZN11USARTSerial9isEnabledEv>
 23fed6c:	b138      	cbz	r0, 23fed7e <_Z15serialEventRun2v+0x22>
 23fed6e:	6823      	ldr	r3, [r4, #0]
 23fed70:	4620      	mov	r0, r4
 23fed72:	691b      	ldr	r3, [r3, #16]
 23fed74:	4798      	blx	r3
 23fed76:	2800      	cmp	r0, #0
 23fed78:	dd01      	ble.n	23fed7e <_Z15serialEventRun2v+0x22>
        handler();
 23fed7a:	e000      	b.n	23fed7e <_Z15serialEventRun2v+0x22>
 23fed7c:	bf00      	nop
}
 23fed7e:	bd10      	pop	{r4, pc}
 23fed80:	00000000 	.word	0x00000000

023fed84 <_Z22__fetch_global_Serial3v>:
#endif

#if Wiring_Serial3
USARTSerial& __fetch_global_Serial3()
{
 23fed84:	b510      	push	{r4, lr}
	static USARTSerial serial3(HAL_USART_SERIAL3, acquireSerial3Buffer());
 23fed86:	4c0d      	ldr	r4, [pc, #52]	; (23fedbc <_Z22__fetch_global_Serial3v+0x38>)
{
 23fed88:	b086      	sub	sp, #24
	static USARTSerial serial3(HAL_USART_SERIAL3, acquireSerial3Buffer());
 23fed8a:	e8d4 3f8f 	ldab	r3, [r4]
 23fed8e:	07db      	lsls	r3, r3, #31
 23fed90:	d411      	bmi.n	23fedb6 <_Z22__fetch_global_Serial3v+0x32>
 23fed92:	4620      	mov	r0, r4
 23fed94:	f7fb fe6e 	bl	23faa74 <__cxa_guard_acquire>
 23fed98:	b168      	cbz	r0, 23fedb6 <_Z22__fetch_global_Serial3v+0x32>
 23fed9a:	a801      	add	r0, sp, #4
 23fed9c:	f7ff ff92 	bl	23fecc4 <_Z20acquireSerial3Bufferv>
 23feda0:	2102      	movs	r1, #2
 23feda2:	aa01      	add	r2, sp, #4
 23feda4:	4806      	ldr	r0, [pc, #24]	; (23fedc0 <_Z22__fetch_global_Serial3v+0x3c>)
 23feda6:	f7ff fa35 	bl	23fe214 <_ZN11USARTSerialC1E21hal_usart_interface_tRK25hal_usart_buffer_config_t>
 23fedaa:	4620      	mov	r0, r4
 23fedac:	f7fb fe67 	bl	23faa7e <__cxa_guard_release>
 23fedb0:	4804      	ldr	r0, [pc, #16]	; (23fedc4 <_Z22__fetch_global_Serial3v+0x40>)
 23fedb2:	f000 f975 	bl	23ff0a0 <atexit>
	return serial3;
}
 23fedb6:	4802      	ldr	r0, [pc, #8]	; (23fedc0 <_Z22__fetch_global_Serial3v+0x3c>)
 23fedb8:	b006      	add	sp, #24
 23fedba:	bd10      	pop	{r4, pc}
 23fedbc:	1007af0c 	.word	0x1007af0c
 23fedc0:	1007af38 	.word	0x1007af38
 23fedc4:	023feca9 	.word	0x023feca9

023fedc8 <_Z15serialEventRun3v>:

void serialEventRun3()
{
 23fedc8:	b510      	push	{r4, lr}
    __handleSerialEvent(Serial3, serialEvent3);
 23fedca:	f7ff ffdb 	bl	23fed84 <_Z22__fetch_global_Serial3v>
    if (handler && serial.isEnabled() && serial.available()>0)
 23fedce:	4b07      	ldr	r3, [pc, #28]	; (23fedec <_Z15serialEventRun3v+0x24>)
 23fedd0:	4604      	mov	r4, r0
 23fedd2:	b153      	cbz	r3, 23fedea <_Z15serialEventRun3v+0x22>
 23fedd4:	f7ff fa39 	bl	23fe24a <_ZN11USARTSerial9isEnabledEv>
 23fedd8:	b138      	cbz	r0, 23fedea <_Z15serialEventRun3v+0x22>
 23fedda:	6823      	ldr	r3, [r4, #0]
 23feddc:	4620      	mov	r0, r4
 23fedde:	691b      	ldr	r3, [r3, #16]
 23fede0:	4798      	blx	r3
 23fede2:	2800      	cmp	r0, #0
 23fede4:	dd01      	ble.n	23fedea <_Z15serialEventRun3v+0x22>
        handler();
 23fede6:	e000      	b.n	23fedea <_Z15serialEventRun3v+0x22>
 23fede8:	bf00      	nop
}
 23fedea:	bd10      	pop	{r4, pc}
 23fedec:	00000000 	.word	0x00000000

023fedf0 <__tcf_0>:
}
#endif

TwoWire& __fetch_global_Wire()
{
	static TwoWire wire(HAL_I2C_INTERFACE1, acquireWireBuffer());
 23fedf0:	4770      	bx	lr
	...

023fedf4 <_Z17acquireWireBufferv>:
{
 23fedf4:	b538      	push	{r3, r4, r5, lr}
	hal_i2c_config_t config = {
 23fedf6:	4b0a      	ldr	r3, [pc, #40]	; (23fee20 <_Z17acquireWireBufferv+0x2c>)
{
 23fedf8:	4604      	mov	r4, r0
	hal_i2c_config_t config = {
 23fedfa:	6003      	str	r3, [r0, #0]
 23fedfc:	2301      	movs	r3, #1
		.rx_buffer = new (std::nothrow) uint8_t[i2c_buffer_size],
 23fedfe:	4909      	ldr	r1, [pc, #36]	; (23fee24 <_Z17acquireWireBufferv+0x30>)
	hal_i2c_config_t config = {
 23fee00:	6143      	str	r3, [r0, #20]
		.rx_buffer = new (std::nothrow) uint8_t[i2c_buffer_size],
 23fee02:	2020      	movs	r0, #32
 23fee04:	f000 f834 	bl	23fee70 <_ZnajRKSt9nothrow_t>
	};
 23fee08:	2520      	movs	r5, #32
 23fee0a:	6060      	str	r0, [r4, #4]
		.tx_buffer = new (std::nothrow) uint8_t[i2c_buffer_size],
 23fee0c:	4905      	ldr	r1, [pc, #20]	; (23fee24 <_Z17acquireWireBufferv+0x30>)
 23fee0e:	4628      	mov	r0, r5
	};
 23fee10:	60a5      	str	r5, [r4, #8]
		.tx_buffer = new (std::nothrow) uint8_t[i2c_buffer_size],
 23fee12:	f000 f82d 	bl	23fee70 <_ZnajRKSt9nothrow_t>
	};
 23fee16:	e9c4 0503 	strd	r0, r5, [r4, #12]
}
 23fee1a:	4620      	mov	r0, r4
 23fee1c:	bd38      	pop	{r3, r4, r5, pc}
 23fee1e:	bf00      	nop
 23fee20:	00010018 	.word	0x00010018
 23fee24:	023ffe40 	.word	0x023ffe40

023fee28 <_Z19__fetch_global_Wirev>:
{
 23fee28:	b530      	push	{r4, r5, lr}
	static TwoWire wire(HAL_I2C_INTERFACE1, acquireWireBuffer());
 23fee2a:	4d0e      	ldr	r5, [pc, #56]	; (23fee64 <_Z19__fetch_global_Wirev+0x3c>)
{
 23fee2c:	b087      	sub	sp, #28
	static TwoWire wire(HAL_I2C_INTERFACE1, acquireWireBuffer());
 23fee2e:	e8d5 1f8f 	ldab	r1, [r5]
 23fee32:	f011 0401 	ands.w	r4, r1, #1
 23fee36:	d111      	bne.n	23fee5c <_Z19__fetch_global_Wirev+0x34>
 23fee38:	4628      	mov	r0, r5
 23fee3a:	f7fb fe1b 	bl	23faa74 <__cxa_guard_acquire>
 23fee3e:	b168      	cbz	r0, 23fee5c <_Z19__fetch_global_Wirev+0x34>
 23fee40:	4668      	mov	r0, sp
 23fee42:	f7ff ffd7 	bl	23fedf4 <_Z17acquireWireBufferv>
 23fee46:	466a      	mov	r2, sp
 23fee48:	4621      	mov	r1, r4
 23fee4a:	4807      	ldr	r0, [pc, #28]	; (23fee68 <_Z19__fetch_global_Wirev+0x40>)
 23fee4c:	f7ff fa3c 	bl	23fe2c8 <_ZN7TwoWireC1E19hal_i2c_interface_tRK16hal_i2c_config_t>
 23fee50:	4628      	mov	r0, r5
 23fee52:	f7fb fe14 	bl	23faa7e <__cxa_guard_release>
 23fee56:	4805      	ldr	r0, [pc, #20]	; (23fee6c <_Z19__fetch_global_Wirev+0x44>)
 23fee58:	f000 f922 	bl	23ff0a0 <atexit>
	return wire;
}
 23fee5c:	4802      	ldr	r0, [pc, #8]	; (23fee68 <_Z19__fetch_global_Wirev+0x40>)
 23fee5e:	b007      	add	sp, #28
 23fee60:	bd30      	pop	{r4, r5, pc}
 23fee62:	bf00      	nop
 23fee64:	1007af50 	.word	0x1007af50
 23fee68:	1007af54 	.word	0x1007af54
 23fee6c:	023fedf1 	.word	0x023fedf1

023fee70 <_ZnajRKSt9nothrow_t>:
 23fee70:	f7fb bdef 	b.w	23faa52 <_Znaj>

023fee74 <_ZSt25__throw_bad_function_callv>:
 23fee74:	b508      	push	{r3, lr}
 23fee76:	f7fe fc5f 	bl	23fd738 <abort>
	...

023fee7c <_ZNSt19_Sp_make_shared_tag5_S_eqERKSt9type_info>:
 23fee7c:	4901      	ldr	r1, [pc, #4]	; (23fee84 <_ZNSt19_Sp_make_shared_tag5_S_eqERKSt9type_info+0x8>)
 23fee7e:	f000 b8f9 	b.w	23ff074 <_ZNKSt9type_infoeqERKS_>
 23fee82:	bf00      	nop
 23fee84:	023ffe5c 	.word	0x023ffe5c

023fee88 <_ZNK10__cxxabiv117__class_type_info11__do_upcastEPKS0_PPv>:
 23fee88:	b57f      	push	{r0, r1, r2, r3, r4, r5, r6, lr}
 23fee8a:	2400      	movs	r4, #0
 23fee8c:	2310      	movs	r3, #16
 23fee8e:	4615      	mov	r5, r2
 23fee90:	6812      	ldr	r2, [r2, #0]
 23fee92:	e9cd 3402 	strd	r3, r4, [sp, #8]
 23fee96:	6803      	ldr	r3, [r0, #0]
 23fee98:	e9cd 4400 	strd	r4, r4, [sp]
 23fee9c:	699e      	ldr	r6, [r3, #24]
 23fee9e:	466b      	mov	r3, sp
 23feea0:	47b0      	blx	r6
 23feea2:	f89d 3004 	ldrb.w	r3, [sp, #4]
 23feea6:	f003 0306 	and.w	r3, r3, #6
 23feeaa:	2b06      	cmp	r3, #6
 23feeac:	bf05      	ittet	eq
 23feeae:	9b00      	ldreq	r3, [sp, #0]
 23feeb0:	2001      	moveq	r0, #1
 23feeb2:	4620      	movne	r0, r4
 23feeb4:	602b      	streq	r3, [r5, #0]
 23feeb6:	b004      	add	sp, #16
 23feeb8:	bd70      	pop	{r4, r5, r6, pc}

023feeba <_ZNK10__cxxabiv117__class_type_info20__do_find_public_srcEiPKvPKS0_S2_>:
 23feeba:	9800      	ldr	r0, [sp, #0]
 23feebc:	4290      	cmp	r0, r2
 23feebe:	bf14      	ite	ne
 23feec0:	2001      	movne	r0, #1
 23feec2:	2006      	moveq	r0, #6
 23feec4:	4770      	bx	lr
	...

023feec8 <_ZN10__cxxabiv117__class_type_infoD1Ev>:
 23feec8:	4b03      	ldr	r3, [pc, #12]	; (23feed8 <_ZN10__cxxabiv117__class_type_infoD1Ev+0x10>)
 23feeca:	b510      	push	{r4, lr}
 23feecc:	4604      	mov	r4, r0
 23feece:	6003      	str	r3, [r0, #0]
 23feed0:	f000 f8cd 	bl	23ff06e <_ZNSt9type_infoD1Ev>
 23feed4:	4620      	mov	r0, r4
 23feed6:	bd10      	pop	{r4, pc}
 23feed8:	023ffe9c 	.word	0x023ffe9c

023feedc <_ZN10__cxxabiv117__class_type_infoD0Ev>:
 23feedc:	b510      	push	{r4, lr}
 23feede:	4604      	mov	r4, r0
 23feee0:	f7ff fff2 	bl	23feec8 <_ZN10__cxxabiv117__class_type_infoD1Ev>
 23feee4:	2108      	movs	r1, #8
 23feee6:	4620      	mov	r0, r4
 23feee8:	f7fb fdb5 	bl	23faa56 <_ZdlPvj>
 23feeec:	4620      	mov	r0, r4
 23feeee:	bd10      	pop	{r4, pc}

023feef0 <_ZNK10__cxxabiv117__class_type_info12__do_dyncastEiNS0_10__sub_kindEPKS0_PKvS3_S5_RNS0_16__dyncast_resultE>:
 23feef0:	e92d 41f0 	stmdb	sp!, {r4, r5, r6, r7, r8, lr}
 23feef4:	f8dd 8018 	ldr.w	r8, [sp, #24]
 23feef8:	461f      	mov	r7, r3
 23feefa:	4606      	mov	r6, r0
 23feefc:	4615      	mov	r5, r2
 23feefe:	e9dd 3408 	ldrd	r3, r4, [sp, #32]
 23fef02:	4598      	cmp	r8, r3
 23fef04:	d107      	bne.n	23fef16 <_ZNK10__cxxabiv117__class_type_info12__do_dyncastEiNS0_10__sub_kindEPKS0_PKvS3_S5_RNS0_16__dyncast_resultE+0x26>
 23fef06:	9907      	ldr	r1, [sp, #28]
 23fef08:	f000 f8b4 	bl	23ff074 <_ZNKSt9type_infoeqERKS_>
 23fef0c:	b118      	cbz	r0, 23fef16 <_ZNK10__cxxabiv117__class_type_info12__do_dyncastEiNS0_10__sub_kindEPKS0_PKvS3_S5_RNS0_16__dyncast_resultE+0x26>
 23fef0e:	7165      	strb	r5, [r4, #5]
 23fef10:	2000      	movs	r0, #0
 23fef12:	e8bd 81f0 	ldmia.w	sp!, {r4, r5, r6, r7, r8, pc}
 23fef16:	4639      	mov	r1, r7
 23fef18:	4630      	mov	r0, r6
 23fef1a:	f000 f8ab 	bl	23ff074 <_ZNKSt9type_infoeqERKS_>
 23fef1e:	2800      	cmp	r0, #0
 23fef20:	d0f6      	beq.n	23fef10 <_ZNK10__cxxabiv117__class_type_info12__do_dyncastEiNS0_10__sub_kindEPKS0_PKvS3_S5_RNS0_16__dyncast_resultE+0x20>
 23fef22:	2301      	movs	r3, #1
 23fef24:	f8c4 8000 	str.w	r8, [r4]
 23fef28:	7125      	strb	r5, [r4, #4]
 23fef2a:	71a3      	strb	r3, [r4, #6]
 23fef2c:	e7f0      	b.n	23fef10 <_ZNK10__cxxabiv117__class_type_info12__do_dyncastEiNS0_10__sub_kindEPKS0_PKvS3_S5_RNS0_16__dyncast_resultE+0x20>

023fef2e <_ZNK10__cxxabiv117__class_type_info11__do_upcastEPKS0_PKvRNS0_15__upcast_resultE>:
 23fef2e:	b538      	push	{r3, r4, r5, lr}
 23fef30:	4615      	mov	r5, r2
 23fef32:	461c      	mov	r4, r3
 23fef34:	f000 f89e 	bl	23ff074 <_ZNKSt9type_infoeqERKS_>
 23fef38:	b120      	cbz	r0, 23fef44 <_ZNK10__cxxabiv117__class_type_info11__do_upcastEPKS0_PKvRNS0_15__upcast_resultE+0x16>
 23fef3a:	2308      	movs	r3, #8
 23fef3c:	6025      	str	r5, [r4, #0]
 23fef3e:	60e3      	str	r3, [r4, #12]
 23fef40:	2306      	movs	r3, #6
 23fef42:	7123      	strb	r3, [r4, #4]
 23fef44:	bd38      	pop	{r3, r4, r5, pc}

023fef46 <_ZNK10__cxxabiv117__class_type_info10__do_catchEPKSt9type_infoPPvj>:
 23fef46:	b573      	push	{r0, r1, r4, r5, r6, lr}
 23fef48:	4605      	mov	r5, r0
 23fef4a:	460c      	mov	r4, r1
 23fef4c:	461e      	mov	r6, r3
 23fef4e:	9201      	str	r2, [sp, #4]
 23fef50:	f000 f890 	bl	23ff074 <_ZNKSt9type_infoeqERKS_>
 23fef54:	b950      	cbnz	r0, 23fef6c <_ZNK10__cxxabiv117__class_type_info10__do_catchEPKSt9type_infoPPvj+0x26>
 23fef56:	2e03      	cmp	r6, #3
 23fef58:	d808      	bhi.n	23fef6c <_ZNK10__cxxabiv117__class_type_info10__do_catchEPKSt9type_infoPPvj+0x26>
 23fef5a:	6823      	ldr	r3, [r4, #0]
 23fef5c:	4629      	mov	r1, r5
 23fef5e:	9a01      	ldr	r2, [sp, #4]
 23fef60:	4620      	mov	r0, r4
 23fef62:	695b      	ldr	r3, [r3, #20]
 23fef64:	b002      	add	sp, #8
 23fef66:	e8bd 4070 	ldmia.w	sp!, {r4, r5, r6, lr}
 23fef6a:	4718      	bx	r3
 23fef6c:	b002      	add	sp, #8
 23fef6e:	bd70      	pop	{r4, r5, r6, pc}

023fef70 <_ZN10__cxxabiv120__si_class_type_infoD1Ev>:
 23fef70:	4b03      	ldr	r3, [pc, #12]	; (23fef80 <_ZN10__cxxabiv120__si_class_type_infoD1Ev+0x10>)
 23fef72:	b510      	push	{r4, lr}
 23fef74:	4604      	mov	r4, r0
 23fef76:	6003      	str	r3, [r0, #0]
 23fef78:	f7ff ffa6 	bl	23feec8 <_ZN10__cxxabiv117__class_type_infoD1Ev>
 23fef7c:	4620      	mov	r0, r4
 23fef7e:	bd10      	pop	{r4, pc}
 23fef80:	023ffefc 	.word	0x023ffefc

023fef84 <_ZN10__cxxabiv120__si_class_type_infoD0Ev>:
 23fef84:	b510      	push	{r4, lr}
 23fef86:	4604      	mov	r4, r0
 23fef88:	f7ff fff2 	bl	23fef70 <_ZN10__cxxabiv120__si_class_type_infoD1Ev>
 23fef8c:	210c      	movs	r1, #12
 23fef8e:	4620      	mov	r0, r4
 23fef90:	f7fb fd61 	bl	23faa56 <_ZdlPvj>
 23fef94:	4620      	mov	r0, r4
 23fef96:	bd10      	pop	{r4, pc}

023fef98 <_ZNK10__cxxabiv120__si_class_type_info20__do_find_public_srcEiPKvPKNS_17__class_type_infoES2_>:
 23fef98:	b5f7      	push	{r0, r1, r2, r4, r5, r6, r7, lr}
 23fef9a:	9f08      	ldr	r7, [sp, #32]
 23fef9c:	4605      	mov	r5, r0
 23fef9e:	460e      	mov	r6, r1
 23fefa0:	4614      	mov	r4, r2
 23fefa2:	4297      	cmp	r7, r2
 23fefa4:	d00a      	beq.n	23fefbc <_ZNK10__cxxabiv120__si_class_type_info20__do_find_public_srcEiPKvPKNS_17__class_type_infoES2_+0x24>
 23fefa6:	68a8      	ldr	r0, [r5, #8]
 23fefa8:	4631      	mov	r1, r6
 23fefaa:	6802      	ldr	r2, [r0, #0]
 23fefac:	9708      	str	r7, [sp, #32]
 23fefae:	6a15      	ldr	r5, [r2, #32]
 23fefb0:	4622      	mov	r2, r4
 23fefb2:	46ac      	mov	ip, r5
 23fefb4:	b003      	add	sp, #12
 23fefb6:	e8bd 40f0 	ldmia.w	sp!, {r4, r5, r6, r7, lr}
 23fefba:	4760      	bx	ip
 23fefbc:	4619      	mov	r1, r3
 23fefbe:	9301      	str	r3, [sp, #4]
 23fefc0:	f000 f858 	bl	23ff074 <_ZNKSt9type_infoeqERKS_>
 23fefc4:	9b01      	ldr	r3, [sp, #4]
 23fefc6:	2800      	cmp	r0, #0
 23fefc8:	d0ed      	beq.n	23fefa6 <_ZNK10__cxxabiv120__si_class_type_info20__do_find_public_srcEiPKvPKNS_17__class_type_infoES2_+0xe>
 23fefca:	2006      	movs	r0, #6
 23fefcc:	b003      	add	sp, #12
 23fefce:	bdf0      	pop	{r4, r5, r6, r7, pc}

023fefd0 <_ZNK10__cxxabiv120__si_class_type_info12__do_dyncastEiNS_17__class_type_info10__sub_kindEPKS1_PKvS4_S6_RNS1_16__dyncast_resultE>:
 23fefd0:	e92d 4ff1 	stmdb	sp!, {r0, r4, r5, r6, r7, r8, r9, sl, fp, lr}
 23fefd4:	460d      	mov	r5, r1
 23fefd6:	4619      	mov	r1, r3
 23fefd8:	4681      	mov	r9, r0
 23fefda:	4617      	mov	r7, r2
 23fefdc:	4698      	mov	r8, r3
 23fefde:	e9dd 4b0a 	ldrd	r4, fp, [sp, #40]	; 0x28
 23fefe2:	e9dd a60c 	ldrd	sl, r6, [sp, #48]	; 0x30
 23fefe6:	f000 f845 	bl	23ff074 <_ZNKSt9type_infoeqERKS_>
 23fefea:	b190      	cbz	r0, 23ff012 <_ZNK10__cxxabiv120__si_class_type_info12__do_dyncastEiNS_17__class_type_info10__sub_kindEPKS1_PKvS4_S6_RNS1_16__dyncast_resultE+0x42>
 23fefec:	2d00      	cmp	r5, #0
 23fefee:	6034      	str	r4, [r6, #0]
 23feff0:	7137      	strb	r7, [r6, #4]
 23feff2:	db09      	blt.n	23ff008 <_ZNK10__cxxabiv120__si_class_type_info12__do_dyncastEiNS_17__class_type_info10__sub_kindEPKS1_PKvS4_S6_RNS1_16__dyncast_resultE+0x38>
 23feff4:	1961      	adds	r1, r4, r5
 23feff6:	458a      	cmp	sl, r1
 23feff8:	bf0c      	ite	eq
 23feffa:	2106      	moveq	r1, #6
 23feffc:	2101      	movne	r1, #1
 23feffe:	71b1      	strb	r1, [r6, #6]
 23ff000:	2000      	movs	r0, #0
 23ff002:	b001      	add	sp, #4
 23ff004:	e8bd 8ff0 	ldmia.w	sp!, {r4, r5, r6, r7, r8, r9, sl, fp, pc}
 23ff008:	3502      	adds	r5, #2
 23ff00a:	d1f9      	bne.n	23ff000 <_ZNK10__cxxabiv120__si_class_type_info12__do_dyncastEiNS_17__class_type_info10__sub_kindEPKS1_PKvS4_S6_RNS1_16__dyncast_resultE+0x30>
 23ff00c:	2301      	movs	r3, #1
 23ff00e:	71b3      	strb	r3, [r6, #6]
 23ff010:	e7f6      	b.n	23ff000 <_ZNK10__cxxabiv120__si_class_type_info12__do_dyncastEiNS_17__class_type_info10__sub_kindEPKS1_PKvS4_S6_RNS1_16__dyncast_resultE+0x30>
 23ff012:	4554      	cmp	r4, sl
 23ff014:	d106      	bne.n	23ff024 <_ZNK10__cxxabiv120__si_class_type_info12__do_dyncastEiNS_17__class_type_info10__sub_kindEPKS1_PKvS4_S6_RNS1_16__dyncast_resultE+0x54>
 23ff016:	4659      	mov	r1, fp
 23ff018:	4648      	mov	r0, r9
 23ff01a:	f000 f82b 	bl	23ff074 <_ZNKSt9type_infoeqERKS_>
 23ff01e:	b108      	cbz	r0, 23ff024 <_ZNK10__cxxabiv120__si_class_type_info12__do_dyncastEiNS_17__class_type_info10__sub_kindEPKS1_PKvS4_S6_RNS1_16__dyncast_resultE+0x54>
 23ff020:	7177      	strb	r7, [r6, #5]
 23ff022:	e7ed      	b.n	23ff000 <_ZNK10__cxxabiv120__si_class_type_info12__do_dyncastEiNS_17__class_type_info10__sub_kindEPKS1_PKvS4_S6_RNS1_16__dyncast_resultE+0x30>
 23ff024:	f8d9 0008 	ldr.w	r0, [r9, #8]
 23ff028:	463a      	mov	r2, r7
 23ff02a:	4629      	mov	r1, r5
 23ff02c:	6803      	ldr	r3, [r0, #0]
 23ff02e:	e9cd a60c 	strd	sl, r6, [sp, #48]	; 0x30
 23ff032:	e9cd 4b0a 	strd	r4, fp, [sp, #40]	; 0x28
 23ff036:	69dc      	ldr	r4, [r3, #28]
 23ff038:	4643      	mov	r3, r8
 23ff03a:	46a4      	mov	ip, r4
 23ff03c:	b001      	add	sp, #4
 23ff03e:	e8bd 4ff0 	ldmia.w	sp!, {r4, r5, r6, r7, r8, r9, sl, fp, lr}
 23ff042:	4760      	bx	ip

023ff044 <_ZNK10__cxxabiv120__si_class_type_info11__do_upcastEPKNS_17__class_type_infoEPKvRNS1_15__upcast_resultE>:
 23ff044:	e92d 41f0 	stmdb	sp!, {r4, r5, r6, r7, r8, lr}
 23ff048:	4607      	mov	r7, r0
 23ff04a:	460c      	mov	r4, r1
 23ff04c:	4615      	mov	r5, r2
 23ff04e:	461e      	mov	r6, r3
 23ff050:	f7ff ff6d 	bl	23fef2e <_ZNK10__cxxabiv117__class_type_info11__do_upcastEPKS0_PKvRNS0_15__upcast_resultE>
 23ff054:	b948      	cbnz	r0, 23ff06a <_ZNK10__cxxabiv120__si_class_type_info11__do_upcastEPKNS_17__class_type_infoEPKvRNS1_15__upcast_resultE+0x26>
 23ff056:	68b8      	ldr	r0, [r7, #8]
 23ff058:	462a      	mov	r2, r5
 23ff05a:	4621      	mov	r1, r4
 23ff05c:	6803      	ldr	r3, [r0, #0]
 23ff05e:	699f      	ldr	r7, [r3, #24]
 23ff060:	4633      	mov	r3, r6
 23ff062:	46bc      	mov	ip, r7
 23ff064:	e8bd 41f0 	ldmia.w	sp!, {r4, r5, r6, r7, r8, lr}
 23ff068:	4760      	bx	ip
 23ff06a:	e8bd 81f0 	ldmia.w	sp!, {r4, r5, r6, r7, r8, pc}

023ff06e <_ZNSt9type_infoD1Ev>:
 23ff06e:	4770      	bx	lr

023ff070 <_ZNKSt9type_info14__is_pointer_pEv>:
 23ff070:	2000      	movs	r0, #0
 23ff072:	4770      	bx	lr

023ff074 <_ZNKSt9type_infoeqERKS_>:
 23ff074:	4281      	cmp	r1, r0
 23ff076:	b508      	push	{r3, lr}
 23ff078:	d00e      	beq.n	23ff098 <_ZNKSt9type_infoeqERKS_+0x24>
 23ff07a:	6840      	ldr	r0, [r0, #4]
 23ff07c:	7803      	ldrb	r3, [r0, #0]
 23ff07e:	2b2a      	cmp	r3, #42	; 0x2a
 23ff080:	d00c      	beq.n	23ff09c <_ZNKSt9type_infoeqERKS_+0x28>
 23ff082:	6849      	ldr	r1, [r1, #4]
 23ff084:	780b      	ldrb	r3, [r1, #0]
 23ff086:	2b2a      	cmp	r3, #42	; 0x2a
 23ff088:	bf08      	it	eq
 23ff08a:	3101      	addeq	r1, #1
 23ff08c:	f7fb fcb0 	bl	23fa9f0 <strcmp>
 23ff090:	fab0 f080 	clz	r0, r0
 23ff094:	0940      	lsrs	r0, r0, #5
 23ff096:	bd08      	pop	{r3, pc}
 23ff098:	2001      	movs	r0, #1
 23ff09a:	e7fc      	b.n	23ff096 <_ZNKSt9type_infoeqERKS_+0x22>
 23ff09c:	2000      	movs	r0, #0
 23ff09e:	e7fa      	b.n	23ff096 <_ZNKSt9type_infoeqERKS_+0x22>

023ff0a0 <atexit>:
 23ff0a0:	2300      	movs	r3, #0
 23ff0a2:	4601      	mov	r1, r0
 23ff0a4:	461a      	mov	r2, r3
 23ff0a6:	4618      	mov	r0, r3
 23ff0a8:	f000 b844 	b.w	23ff134 <__register_exitproc>

023ff0ac <memcpy>:
 23ff0ac:	440a      	add	r2, r1
 23ff0ae:	1e43      	subs	r3, r0, #1
 23ff0b0:	4291      	cmp	r1, r2
 23ff0b2:	d100      	bne.n	23ff0b6 <memcpy+0xa>
 23ff0b4:	4770      	bx	lr
 23ff0b6:	b510      	push	{r4, lr}
 23ff0b8:	f811 4b01 	ldrb.w	r4, [r1], #1
 23ff0bc:	4291      	cmp	r1, r2
 23ff0be:	f803 4f01 	strb.w	r4, [r3, #1]!
 23ff0c2:	d1f9      	bne.n	23ff0b8 <memcpy+0xc>
 23ff0c4:	bd10      	pop	{r4, pc}

023ff0c6 <memset>:
 23ff0c6:	4402      	add	r2, r0
 23ff0c8:	4603      	mov	r3, r0
 23ff0ca:	4293      	cmp	r3, r2
 23ff0cc:	d100      	bne.n	23ff0d0 <memset+0xa>
 23ff0ce:	4770      	bx	lr
 23ff0d0:	f803 1b01 	strb.w	r1, [r3], #1
 23ff0d4:	e7f9      	b.n	23ff0ca <memset+0x4>
	...

023ff0d8 <srand>:
 23ff0d8:	b538      	push	{r3, r4, r5, lr}
 23ff0da:	4b10      	ldr	r3, [pc, #64]	; (23ff11c <srand+0x44>)
 23ff0dc:	4604      	mov	r4, r0
 23ff0de:	681d      	ldr	r5, [r3, #0]
 23ff0e0:	6bab      	ldr	r3, [r5, #56]	; 0x38
 23ff0e2:	b9b3      	cbnz	r3, 23ff112 <srand+0x3a>
 23ff0e4:	2018      	movs	r0, #24
 23ff0e6:	f7fe faef 	bl	23fd6c8 <malloc>
 23ff0ea:	4602      	mov	r2, r0
 23ff0ec:	63a8      	str	r0, [r5, #56]	; 0x38
 23ff0ee:	b920      	cbnz	r0, 23ff0fa <srand+0x22>
 23ff0f0:	4b0b      	ldr	r3, [pc, #44]	; (23ff120 <srand+0x48>)
 23ff0f2:	2142      	movs	r1, #66	; 0x42
 23ff0f4:	480b      	ldr	r0, [pc, #44]	; (23ff124 <srand+0x4c>)
 23ff0f6:	f7fe fb3b 	bl	23fd770 <__assert_func>
 23ff0fa:	490b      	ldr	r1, [pc, #44]	; (23ff128 <srand+0x50>)
 23ff0fc:	4b0b      	ldr	r3, [pc, #44]	; (23ff12c <srand+0x54>)
 23ff0fe:	e9c0 1300 	strd	r1, r3, [r0]
 23ff102:	4b0b      	ldr	r3, [pc, #44]	; (23ff130 <srand+0x58>)
 23ff104:	2100      	movs	r1, #0
 23ff106:	6083      	str	r3, [r0, #8]
 23ff108:	230b      	movs	r3, #11
 23ff10a:	8183      	strh	r3, [r0, #12]
 23ff10c:	2001      	movs	r0, #1
 23ff10e:	e9c2 0104 	strd	r0, r1, [r2, #16]
 23ff112:	6bab      	ldr	r3, [r5, #56]	; 0x38
 23ff114:	2200      	movs	r2, #0
 23ff116:	611c      	str	r4, [r3, #16]
 23ff118:	615a      	str	r2, [r3, #20]
 23ff11a:	bd38      	pop	{r3, r4, r5, pc}
 23ff11c:	1007ac14 	.word	0x1007ac14
 23ff120:	023fff35 	.word	0x023fff35
 23ff124:	023fff4c 	.word	0x023fff4c
 23ff128:	abcd330e 	.word	0xabcd330e
 23ff12c:	e66d1234 	.word	0xe66d1234
 23ff130:	0005deec 	.word	0x0005deec

023ff134 <__register_exitproc>:
 23ff134:	e92d 43f8 	stmdb	sp!, {r3, r4, r5, r6, r7, r8, r9, lr}
 23ff138:	f8df 80bc 	ldr.w	r8, [pc, #188]	; 23ff1f8 <__register_exitproc+0xc4>
 23ff13c:	4606      	mov	r6, r0
 23ff13e:	461f      	mov	r7, r3
 23ff140:	460d      	mov	r5, r1
 23ff142:	f8d8 0000 	ldr.w	r0, [r8]
 23ff146:	4691      	mov	r9, r2
 23ff148:	f000 f858 	bl	23ff1fc <__retarget_lock_acquire_recursive>
 23ff14c:	4b26      	ldr	r3, [pc, #152]	; (23ff1e8 <__register_exitproc+0xb4>)
 23ff14e:	681c      	ldr	r4, [r3, #0]
 23ff150:	b934      	cbnz	r4, 23ff160 <__register_exitproc+0x2c>
 23ff152:	4c26      	ldr	r4, [pc, #152]	; (23ff1ec <__register_exitproc+0xb8>)
 23ff154:	601c      	str	r4, [r3, #0]
 23ff156:	4b26      	ldr	r3, [pc, #152]	; (23ff1f0 <__register_exitproc+0xbc>)
 23ff158:	b113      	cbz	r3, 23ff160 <__register_exitproc+0x2c>
 23ff15a:	681b      	ldr	r3, [r3, #0]
 23ff15c:	f8c4 3088 	str.w	r3, [r4, #136]	; 0x88
 23ff160:	6863      	ldr	r3, [r4, #4]
 23ff162:	2b1f      	cmp	r3, #31
 23ff164:	dd07      	ble.n	23ff176 <__register_exitproc+0x42>
 23ff166:	f8d8 0000 	ldr.w	r0, [r8]
 23ff16a:	f000 f849 	bl	23ff200 <__retarget_lock_release_recursive>
 23ff16e:	f04f 30ff 	mov.w	r0, #4294967295
 23ff172:	e8bd 83f8 	ldmia.w	sp!, {r3, r4, r5, r6, r7, r8, r9, pc}
 23ff176:	b35e      	cbz	r6, 23ff1d0 <__register_exitproc+0x9c>
 23ff178:	f8d4 0088 	ldr.w	r0, [r4, #136]	; 0x88
 23ff17c:	b988      	cbnz	r0, 23ff1a2 <__register_exitproc+0x6e>
 23ff17e:	4b1d      	ldr	r3, [pc, #116]	; (23ff1f4 <__register_exitproc+0xc0>)
 23ff180:	b923      	cbnz	r3, 23ff18c <__register_exitproc+0x58>
 23ff182:	f8d8 0000 	ldr.w	r0, [r8]
 23ff186:	f000 f83a 	bl	23ff1fe <__retarget_lock_release>
 23ff18a:	e7f0      	b.n	23ff16e <__register_exitproc+0x3a>
 23ff18c:	f44f 7084 	mov.w	r0, #264	; 0x108
 23ff190:	f7fe fa9a 	bl	23fd6c8 <malloc>
 23ff194:	2800      	cmp	r0, #0
 23ff196:	d0f4      	beq.n	23ff182 <__register_exitproc+0x4e>
 23ff198:	2300      	movs	r3, #0
 23ff19a:	e9c0 3340 	strd	r3, r3, [r0, #256]	; 0x100
 23ff19e:	f8c4 0088 	str.w	r0, [r4, #136]	; 0x88
 23ff1a2:	6863      	ldr	r3, [r4, #4]
 23ff1a4:	2201      	movs	r2, #1
 23ff1a6:	2e02      	cmp	r6, #2
 23ff1a8:	f840 9023 	str.w	r9, [r0, r3, lsl #2]
 23ff1ac:	fa02 f203 	lsl.w	r2, r2, r3
 23ff1b0:	eb00 0183 	add.w	r1, r0, r3, lsl #2
 23ff1b4:	f8d0 3100 	ldr.w	r3, [r0, #256]	; 0x100
 23ff1b8:	ea43 0302 	orr.w	r3, r3, r2
 23ff1bc:	f8c0 3100 	str.w	r3, [r0, #256]	; 0x100
 23ff1c0:	f8c1 7080 	str.w	r7, [r1, #128]	; 0x80
 23ff1c4:	bf02      	ittt	eq
 23ff1c6:	f8d0 3104 	ldreq.w	r3, [r0, #260]	; 0x104
 23ff1ca:	4313      	orreq	r3, r2
 23ff1cc:	f8c0 3104 	streq.w	r3, [r0, #260]	; 0x104
 23ff1d0:	6863      	ldr	r3, [r4, #4]
 23ff1d2:	f8d8 0000 	ldr.w	r0, [r8]
 23ff1d6:	1c5a      	adds	r2, r3, #1
 23ff1d8:	3302      	adds	r3, #2
 23ff1da:	6062      	str	r2, [r4, #4]
 23ff1dc:	f844 5023 	str.w	r5, [r4, r3, lsl #2]
 23ff1e0:	f000 f80e 	bl	23ff200 <__retarget_lock_release_recursive>
 23ff1e4:	2000      	movs	r0, #0
 23ff1e6:	e7c4      	b.n	23ff172 <__register_exitproc+0x3e>
 23ff1e8:	1007aff4 	.word	0x1007aff4
 23ff1ec:	1007af68 	.word	0x1007af68
 23ff1f0:	00000000 	.word	0x00000000
 23ff1f4:	023fd6c9 	.word	0x023fd6c9
 23ff1f8:	1007ac78 	.word	0x1007ac78

023ff1fc <__retarget_lock_acquire_recursive>:
 23ff1fc:	4770      	bx	lr

023ff1fe <__retarget_lock_release>:
 23ff1fe:	4770      	bx	lr

023ff200 <__retarget_lock_release_recursive>:
 23ff200:	4770      	bx	lr
	...

023ff204 <link_const_data_start>:
 23ff204:	ff7e0000 	.word	0xff7e0000
 23ff208:	00010006 	.word	0x00010006
 23ff20c:	ef000000 	.word	0xef000000

023ff210 <dynalib_user>:
 23ff210:	023faa15 023faa3d 023faa41 00000000     ..?.=.?.A.?.....
 23ff220:	6c6c6143 206e6f20 65727570 72697620     Call on pure vir
 23ff230:	6c617574 206f4e00 6e616843 2d206567     tual.No Change -
 23ff240:	6e614320 6c6c6563 20676e69 0a444d43      Cancelling CMD.
 23ff250:	6f227b00 743a226e 2c657572 74617322     .{"on":true,"sat
 23ff260:	2c003a22 69726222 2c003a22 65756822     ":.,"bri":.,"hue
 23ff270:	7b003a22 226e6f22 6c61663a 007d6573     ":.{"on":false}.
 23ff280:	646e6553 20676e69 6d6d6f43 20646e61     Sending Command 
 23ff290:	48206f74 203a6575 000a7325 20545550     to Hue: %s..PUT 
 23ff2a0:	6970612f 6c2f002f 74686769 2f002f73     /api/./lights/./
 23ff2b0:	74617473 54482065 312f5054 6b00312e     state HTTP/1.1.k
 23ff2c0:	2d706565 76696c61 6f480065 203a7473     eep-alive.Host: 
 23ff2d0:	6e6f4300 746e6574 6e654c2d 3a687467     .Content-Length:
 23ff2e0:	6f430020 6e65746e 79542d74 203a6570      .Content-Type: 
 23ff2f0:	74786574 616c702f 633b6e69 73726168     text/plain;chars
 23ff300:	553d7465 382d4654 546f4900 7774654e     et=UTF-8.IoTNetw
 23ff310:	006b726f 0a0a002e 454d4200 20746120     ork......BME at 
 23ff320:	72646461 20737365 66206925 656c6961     address %i faile
 23ff330:	6f742064 61747320 000a7472 62616e55     d to start..Unab
 23ff340:	7420656c 6562206f 3a6e6967 2e31000a     le to begin:..1.
 23ff350:	61656c50 72206573 65686365 74206b63     Please recheck t
 23ff360:	63206568 656e6e6f 6f697463 000a216e     he connection!..
 23ff370:	6c502e32 65736165 736e6920 20747265     2.Please insert 
 23ff380:	20656874 63204453 21647261 4644000a     the SD card!..DF
 23ff390:	79616c50 4d207265 20696e69 696c6e6f     Player Mini onli
 23ff3a0:	0a2e656e 61655200 74207964 6f67206f     ne...Ready to go
 23ff3b0:	6d655400 00203a70 006e616e 00666e69     .Temp: .nan.inf.
 23ff3c0:	0066766f 61706150 63754420               ovf.Papa Duck.

023ff3ce <_ZL6duckie>:
	...
 23ff41e:	fc070000 00000000 070c0000 00000000     ................
 23ff42e:	01300000 00000080 00600000 000000c0     ..0.......`.....
 23ff43e:	00400000 00000060 00800000 00000020     ..@.`....... ...
 23ff44e:	00800100 00000030 00000100 00000010     ....0...........
 23ff45e:	00000100 00000010 00060100 00000010     ................
 23ff46e:	000f0100 00000010 00c70300 00000010     ................
 23ff47e:	00600600 00000010 00300c00 00000030     ..`.......0.0...
 23ff48e:	00100800 00000020 00600600 0000c061     .... .....`.a...
 23ff49e:	00e00300 000060c3 01300000 000030de     .....`....0..0..
 23ff4ae:	03600000 000018f0 00c00000 00000800     ..`.............
 23ff4be:	00800000 00000c00 00000100 00000400     ................
 23ff4ce:	00000300 00000600 00000200 00000600     ................
 23ff4de:	00000600 00000200 00000400 00000200     ................
 23ff4ee:	00000400 00000200 00000400 00000200     ................
 23ff4fe:	00000c00 00000200 00000400 00000600     ................
 23ff50e:	00000400 00000400 00000600 00000400     ................
 23ff51e:	00000200 00000800 00000300 00001800     ................
 23ff52e:	00800100 00003000 00e00000 00006000     .....0.......`..
 23ff53e:	00300000 00008003 000e0000 0000001e     ..0.............
 23ff54e:	ff030000 000000f0 00000000 00000000     ................
	...
 23ff5a6:	ffffffff e0ffffff ffffffff e0ffffff     ................
 23ff5b6:	ffffffff e0ffffff ffffffff e0ffffff     ................
 23ff5c6:	ffffffff e0ffffff                        ..........

023ff5d0 <_ZL7rainbow>:
 23ff5d0:	00ff0000 00ffa500 00ffff00 00008000     ................
 23ff5e0:	000000ff 004b0082 009400d3 61666564     ......K.....defa
 23ff5f0:	20746c75 42534d00 42534c00 50533c00     ult .MSB.LSB.<SP
 23ff600:	74655349 676e6974 65642073 6c756166     ISettings defaul
 23ff610:	3c003e74 53495053 69747465 2073676e     t>.<SPISettings 
 23ff620:	75257325 20732520 45444f4d 003e7525     %s%u %s MODE%u>.

023ff630 <_ZTVN8particle11SPISettingsE>:
	...
 23ff638:	023fb67d 023fb66d 023fb66f 2f495053     }.?.m.?.o.?.SPI/
 23ff648:	31495053 746e6920 61667265 6e206563     SPI1 interface n
 23ff658:	6420746f 6e696665 00216465 65786950     ot defined!.Pixe
 23ff668:	7974206c 6e206570 7320746f 6f707075     l type not suppo
 23ff678:	64657472 00000021 20746f4e 756f6e65     rted!...Not enou
 23ff688:	6d206867 726f6d65 76612079 616c6961     gh memory availa
 23ff698:	21656c62 00000000                       ble!....

023ff6a0 <_ZTV16Adafruit_SSD1306>:
	...
 23ff6a8:	023fc465 023fc4f5 023fcbf5 023fdba9     e.?...?...?...?.
 23ff6b8:	023fc469 023fc879 023fc2ed 023fc179     i.?.y.?...?.y.?.
 23ff6c8:	023fc937 023fc9d5 023fca0b 023fca27     7.?...?...?.'.?.

023ff6d8 <_ZL4font>:
 23ff6d8:	00000000 4f5b3e00 6b3e3e5b 1c3e6b4f     .....>[O[>>kOk>.
 23ff6e8:	1c3e7c3e 3c7e3c18 7d571c18 5e1c1c57     >|>..<~<..W}W..^
 23ff6f8:	001c5e7f 00183c18 e7c3e7ff 241800ff     .^...<.........$
 23ff708:	e7ff0018 30ffe7db 0e063a48 29792926     .......0H:..&)y)
 23ff718:	057f4026 7f400705 5a3f2505 5a3ce73c     &@....@..%?Z<.<Z
 23ff728:	1c1c3e7f 1c1c0808 22147f3e 5f14227f     .>......>.."."._
 23ff738:	5f5f005f 017f0906 8966007f 60606a95     _.__......f..j``
 23ff748:	94606060 94a2ffa2 047e0408 7e201008     ```.......~... ~
 23ff758:	08081020 08081c2a 08082a1c 1010101e      ...*....*......
 23ff768:	0c1e0c10 38300c1e 0630383e 060e3e0e     ......08>80..>..
 23ff778:	00000000 5f000000 07000000 14000700     ......._........
 23ff788:	147f147f 2a7f2a24 08132312 49366264     ....$*.*.#..db6I
 23ff798:	00502056 00030708 41221c00 22410000     V P......."A..A"
 23ff7a8:	1c2a001c 082a1c7f 08083e08 30708000     ..*...*..>....p0
 23ff7b8:	08080800 00000808 20006060 02040810     ........``. ....
 23ff7c8:	4549513e 7f42003e 49720040 21464949     >QIE>.B.@.rIIIF!
 23ff7d8:	334d4941 7f121418 45452710 4a3c3945     AIM3.....'EEE9<J
 23ff7e8:	41314949 07091121 49494936 49494636     II1A!...6III6FII
 23ff7f8:	00001e29 00000014 00003440 22140800     ).......@4....."
 23ff808:	14141441 41001414 02081422 06095901     A......A"....Y..
 23ff818:	595d413e 11127c4e 497f7c12 3e364949     >A]YN|...|.III6>
 23ff828:	22414141 4141417f 49497f3e 097f4149     AAA".AAA>.IIIA..
 23ff838:	3e010909 73514141 0808087f 7f41007f     ...>AAQs......A.
 23ff848:	40200041 7f013f41 41221408 4040407f     A. @A?...."A.@@@
 23ff858:	1c027f40 047f7f02 3e7f1008 3e414141     @..........>AAA>
 23ff868:	0909097f 51413e06 097f5e21 26462919     .....>AQ!^...)F&
 23ff878:	32494949 017f0103 40403f03 201f3f40     III2.....?@@@?. 
 23ff888:	3f1f2040 3f403840 14081463 78040363     @ .?@8@?c...c..x
 23ff898:	59610304 00434d49 4141417f 10080402     ..aYIMC..AAA....
 23ff8a8:	41410020 02047f41 40040201 40404040      .AAA......@@@@@
 23ff8b8:	08070300 54542000 287f4078 38384444     ..... TTx@.(DD88
 23ff8c8:	28444444 28444438 5454387f 08001854     DDD(8DD(.8TTT...
 23ff8d8:	1802097e 789ca4a4 0404087f 7d440078     ~......x....x.D}
 23ff8e8:	40200040 7f003d40 00442810 407f4100     @. @@=...(D..A.@
 23ff8f8:	78047c00 087c7804 38780404 38444444     .|.x.x|...x8DDD8
 23ff908:	242418fc 24241818 087cfc18 48080404     ..$$..$$..|....H
 23ff918:	24545454 443f0404 40403c24 201c7c20     TTT$..?D$<@@ |. 
 23ff928:	3c1c2040 3c403040 28102844 90904c44     @ .<@0@<D(.(DL..
 23ff938:	64447c90 00444c54 00413608 00770000     .|DdTLD..6A...w.
 23ff948:	36410000 01020008 3c020402 3c262326     ..A6.......<&#&<
 23ff958:	61a1a11e 40403a12 54387a20 21595554     ...a.:@@ z8TTUY!
 23ff968:	41795555 78545421 54552141 54204078     UUyA!TTxA!UTx@ T
 23ff978:	0c407955 1272521e 55555539 54543959     Uy@..Rr.9UUUY9TT
 23ff988:	55395954 00585454 417c4500 7d450200     TY9UTTX..E|A..E}
 23ff998:	45010042 29f0407c f0f02924 f0282528     B..E|@.)$)..(%(.
 23ff9a8:	4555547c 54542000 0a7c547c 32497f09     |TUE. TT|T|...I2
 23ff9b8:	32494949 48484832 484a3232 413a3048     III22HHH22JHH0:A
 23ff9c8:	3a7a2141 78204042 a0a09d00 4444397d     A!z:B@ x....}9DD
 23ff9d8:	403d3944 3c3d4040 2424ff24 43497e48     D9=@@@=<$.$$H~IC
 23ff9e8:	fc2f2b66 09ff2b2f c020f629 03097e88     f+/./+..). ..~..
 23ff9f8:	79545420 44000041 4830417d 38324a48      TTyA..D}A0HHJ28
 23ffa08:	7a224040 0a0a7a00 190d7d72 29267d31     @@"z.z..r}..1}&)
 23ffa18:	26282f29 26292929 404d4830 08083820     )/(&)))&0HM@ 8..
 23ffa28:	08080808 2f380808 baacc810 3428102f     ......8/..../.(4
 23ffa38:	7b0000fa 14080000 2222142a 08142a14     ...{....*."".*..
 23ffa48:	005500aa aa55aaaa 0000aa55 1000ff00     ..U...U.U.......
 23ffa58:	00ff1010 ff141414 ff101000 1010ff00     ................
 23ffa68:	14f010f0 00fc1414 00f71414 ff0000ff     ................
 23ffa78:	1414ff00 14fc04f4 1f101714 101f1010     ................
 23ffa88:	1414141f 1010001f 0000f010 101f0000     ................
 23ffa98:	1f101010 10101010 000010f0 1010ff00     ................
 23ffaa8:	10101010 ff101010 00000010 000014ff     ................
 23ffab8:	00ff00ff 17101f00 04fc0000 171414f4     ................
 23ffac8:	14141710 00f404f4 f700ff00 14141414     ................
 23ffad8:	f7141414 1414f700 10141714 1f101f10     ................
 23ffae8:	f4141414 f0101014 0000f010 001f101f     ................
 23ffaf8:	141f0000 fc000000 f0000014 1010f010     ................
 23ffb08:	14ff10ff 14ff1414 1f101010 00000000     ................
 23ffb18:	ffff10f0 f0ffffff f0f0f0f0 00ffffff     ................
 23ffb28:	00000000 0f0fffff 380f0f0f 44384444     ...........8DD8D
 23ffb38:	3e2a2a7c 02027e14 7e020606 63027e02     |**>.~.....~.~.c
 23ffb48:	63414955 3c444438 207e4004 0206201e     UIAc8DD<.@~ . ..
 23ffb58:	9902027e 99a5e7a5 2a492a1c 01724c1c     ~........*I*.Lr.
 23ffb68:	4a304c72 30304d4d 30487848 465a62bc     rL0JMM00HxH0.bZF
 23ffb78:	49493e3d 017e0049 2a7e0101 2a2a2a2a     =>III.~...~*****
 23ffb88:	445f4444 4a514044 44404044 0040514a     DD_DD@QJD@@DJQ@.
 23ffb98:	0301ff00 00ff80e0 6b080800 1236086b     ...........kk.6.
 23ffba8:	06362436 060f090f 18180000 10000000     6$6.............
 23ffbb8:	40300010 000101ff 1e01011f 171d1900     ..0@............
 23ffbc8:	3c3c0012 00003c3c 00000000              ..<<<<......

023ffbd4 <_ZTV12Adafruit_GFX>:
	...
 23ffbe4:	023fcbf5 023fdba9 023faa5d 023fc879     ..?...?.].?.y.?.
 23ffbf4:	023fc99f 023fc9bb 023fc937 023fc9d5     ..?...?.7.?...?.
 23ffc04:	023fca0b 023fca27                       ..?.'.?.

023ffc0c <_ZTVN5spark13EthernetClassE>:
	...
 23ffc14:	023fd807 023fd7fd 023fd7f3 023fd7e9     ..?...?...?...?.
 23ffc24:	023fd7dd 023fd7d1 023fe9dd 023fe9e5     ..?...?...?...?.
 23ffc34:	023fd7c5 023fd7bd 023fd7b3 023fd7a9     ..?...?...?...?.
 23ffc44:	023feb0d 023fea15 023fea1d              ..?...?...?.

023ffc50 <_ZN12_GLOBAL__N_1L14clock_divisorsE>:
 23ffc50:	18100800 38302820                       .... (08

023ffc58 <_ZZNSt19_Sp_make_shared_tag5_S_tiEvE5__tag>:
	...
 23ffc60:	00707061 252d5925 64252d6d 3a482554     app.%Y-%m-%dT%H:
 23ffc70:	253a4d25 007a2553 74637361 00656d69     %M:%S%z.asctime.

023ffc80 <_ZTV9IPAddress>:
	...
 23ffc88:	023fdebd 023fdead 023fdeaf              ..?...?...?.

023ffc94 <_ZTV9USBSerial>:
	...
 23ffc9c:	023fdfcf 023fe037 023fe00d 023fdba9     ..?.7.?...?...?.
 23ffcac:	023fdfff 023fdfd1 023fdfe1 023fe031     ..?...?...?.1.?.
 23ffcbc:	023fdcfb 023fdff1 023fdfc9              ..?...?...?.

023ffcc8 <_ZTV11USARTSerial>:
	...
 23ffcd0:	023fe199 023fe205 023fe1dd 023fdba9     ..?...?...?...?.
 23ffce0:	023fe1ad 023fe1c9 023fe1bb 023fe1d7     ..?...?...?...?.
 23ffcf0:	023fdcfb 023fe19b 023fe19f              ..?...?...?.

023ffcfc <_ZTV7TwoWire>:
	...
 23ffd04:	023fe251 023fe29b 023fe273 023fe253     Q.?...?.s.?.S.?.
 23ffd14:	023fe27b 023fe283 023fe28b 023fe293     {.?...?...?...?.
 23ffd24:	023fdcfb 69726977 7200676e 20766365     ..?.wiring.recv 
 23ffd34:	6f727265 203d2072 00006425              error = %d..

023ffd40 <_ZTVSt23_Sp_counted_ptr_inplaceIN9TCPClient4DataESaIS1_ELN9__gnu_cxx12_Lock_policyE0EE>:
	...
 23ffd48:	023fe415 023fe439 023fe91b 023fe447     ..?.9.?...?.G.?.
 23ffd58:	023fe419                                ..?.

023ffd5c <_ZTV9TCPClient>:
	...
 23ffd64:	023fac75 023faca9 023fe391 023fe3ab     u.?...?...?...?.
 23ffd74:	023fe7b1 023fe3d5 023fe62f 023fe409     ..?...?./.?...?.
 23ffd84:	023fdcfb 023fe6c1 023fe501 023fe65d     ..?...?...?.].?.
 23ffd94:	023fe865 023fe5fd 023fe40b 023fe3bd     e.?...?...?...?.
 23ffda4:	023fe44d 023fe4e1                       M.?...?.

023ffdac <_ZTVN5spark9WiFiClassE>:
	...
 23ffdb4:	023fe97f 023fe975 023fe96b 023fe921     ..?.u.?.k.?.!.?.
 23ffdc4:	023fe95f 023fe953 023fe9dd 023fe9e5     _.?.S.?...?...?.
 23ffdd4:	023fe947 023fe93f 023fe935 023fe92b     G.?.?.?.5.?.+.?.
 23ffde4:	023feb0d 023fea15 023fea1d              ..?...?...?.

023ffdf0 <CSWTCH.109>:
 23ffdf0:	1007ae1c 1007aef4 1007aefc              ............

023ffdfc <_ZTVN5spark12NetworkClassE>:
	...
 23ffe04:	023fe99d 023fe9a7 023fe9b1 023fe9bb     ..?...?...?...?.
 23ffe14:	023fe9c5 023fe9d1 023fe9dd 023fe9e5     ..?...?...?...?.
 23ffe24:	023fe9ed 023fe9f9 023fea01 023fea0b     ..?...?...?...?.
 23ffe34:	023feb0d 023fea15 023fea1d              ..?...?...?.

023ffe40 <_ZSt7nothrow>:
	...

023ffe41 <_ZTSSt19_Sp_make_shared_tag>:
 23ffe41:	39317453 5f70535f 656b616d 6168735f     St19_Sp_make_sha
 23ffe51:	5f646572 00676174                        red_tag....

023ffe5c <_ZTISt19_Sp_make_shared_tag>:
 23ffe5c:	023ffe9c 023ffe41                       ..?.A.?.

023ffe64 <_ZTIN10__cxxabiv117__class_type_infoE>:
 23ffe64:	023ffefc 023ffe70 023fff20              ..?.p.?. .?.

023ffe70 <_ZTSN10__cxxabiv117__class_type_infoE>:
 23ffe70:	5f30314e 7878635f 76696261 5f373131     N10__cxxabiv117_
 23ffe80:	616c635f 745f7373 5f657079 6f666e69     _class_type_info
 23ffe90:	00000045                                E...

023ffe94 <_ZTVN10__cxxabiv117__class_type_infoE>:
 23ffe94:	00000000 023ffe64 023feec9 023feedd     ....d.?...?...?.
 23ffea4:	023ff071 023ff071 023fef47 023fee89     q.?.q.?.G.?...?.
 23ffeb4:	023fef2f 023feef1 023feebb              /.?...?...?.

023ffec0 <_ZTIN10__cxxabiv120__si_class_type_infoE>:
 23ffec0:	023ffefc 023ffecc 023ffe64              ..?...?.d.?.

023ffecc <_ZTSN10__cxxabiv120__si_class_type_infoE>:
 23ffecc:	5f30314e 7878635f 76696261 5f303231     N10__cxxabiv120_
 23ffedc:	5f69735f 73616c63 79745f73 695f6570     _si_class_type_i
 23ffeec:	456f666e 00000000                       nfoE....

023ffef4 <_ZTVN10__cxxabiv120__si_class_type_infoE>:
 23ffef4:	00000000 023ffec0 023fef71 023fef85     ......?.q.?...?.
 23fff04:	023ff071 023ff071 023fef47 023fee89     q.?.q.?.G.?...?.
 23fff14:	023ff045 023fefd1 023fef99              E.?...?...?.

023fff20 <_ZTISt9type_info>:
 23fff20:	023ffe9c 023fff28                       ..?.(.?.

023fff28 <_ZTSSt9type_info>:
 23fff28:	74397453 5f657079 6f666e69 45455200     St9type_info.REE
 23fff38:	6d20544e 6f6c6c61 75732063 65656363     NT malloc succee
 23fff48:	00646564 746e6d2f 726f772f 6170736b     ded./mnt/workspa
 23fff58:	772f6563 736b726f 65636170 4343472f     ce/workspace/GCC
 23fff68:	2d30312d 65706970 656e696c 6e656a2f     -10-pipeline/jen
 23fff78:	736e696b 4343472d 2d30312d 65706970     kins-GCC-10-pipe
 23fff88:	656e696c 5f38342d 30323032 34323131     line-48_20201124
 23fff98:	3036315f 30383136 2f313436 2f637273     _1606180641/src/
 23fffa8:	6c77656e 6e2f6269 696c7765 696c2f62     newlib/newlib/li
 23fffb8:	732f6362 696c6474 61722f62 632e646e     bc/stdlib/rand.c
	...

023fffc9 <link_const_data_end>:
 23fffc9:	00          	.byte	0x00
	...

023fffcc <link_constructors_location>:
 23fffcc:	023fb289 	.word	0x023fb289
 23fffd0:	023fd811 	.word	0x023fd811
 23fffd4:	023fdac5 	.word	0x023fdac5
 23fffd8:	023fdb99 	.word	0x023fdb99
 23fffdc:	023fdd25 	.word	0x023fdd25
 23fffe0:	023fdd35 	.word	0x023fdd35
 23fffe4:	023fdd51 	.word	0x023fdd51
 23fffe8:	023fe375 	.word	0x023fe375
 23fffec:	023fe989 	.word	0x023fe989
 23ffff0:	023feb21 	.word	0x023feb21
